
RoboSoccer_F767ZI.elf:     file format elf32-littlearm

Sections:
Idx Name          Size      VMA       LMA       File off  Algn
  0 .isr_vector   000001f8  08000000  08000000  00010000  2**0
                  CONTENTS, ALLOC, LOAD, READONLY, DATA
  1 .text         00008d94  08000200  08000200  00010200  2**4
                  CONTENTS, ALLOC, LOAD, READONLY, CODE
  2 .rodata       0000062c  08008f94  08008f94  00018f94  2**2
                  CONTENTS, ALLOC, LOAD, READONLY, DATA
  3 .ARM.extab    00000000  080095c0  080095c0  0002014c  2**0
                  CONTENTS
  4 .ARM          00000008  080095c0  080095c0  000195c0  2**2
                  CONTENTS, ALLOC, LOAD, READONLY, DATA
  5 .preinit_array 00000000  080095c8  080095c8  0002014c  2**0
                  CONTENTS, ALLOC, LOAD, DATA
  6 .init_array   00000004  080095c8  080095c8  000195c8  2**2
                  CONTENTS, ALLOC, LOAD, DATA
  7 .fini_array   00000004  080095cc  080095cc  000195cc  2**2
                  CONTENTS, ALLOC, LOAD, DATA
  8 .data         0000014c  20000000  080095d0  00020000  2**2
                  CONTENTS, ALLOC, LOAD, DATA
  9 .bss          000061d4  20000160  0800971c  00020160  2**5
                  ALLOC
 10 ._user_heap_stack 00000604  20006334  0800971c  00026334  2**0
                  ALLOC
 11 .ARM.attributes 0000002e  00000000  00000000  0002014c  2**0
                  CONTENTS, READONLY
 12 .comment      00000043  00000000  00000000  0002017a  2**0
                  CONTENTS, READONLY
 13 .debug_frame  00000898  00000000  00000000  000201c0  2**2
                  CONTENTS, READONLY, DEBUGGING, OCTETS

Disassembly of section .text:

08000200 <__do_global_dtors_aux>:
 8000200:	b510      	push	{r4, lr}
 8000202:	4c05      	ldr	r4, [pc, #20]	; (8000218 <__do_global_dtors_aux+0x18>)
 8000204:	7823      	ldrb	r3, [r4, #0]
 8000206:	b933      	cbnz	r3, 8000216 <__do_global_dtors_aux+0x16>
 8000208:	4b04      	ldr	r3, [pc, #16]	; (800021c <__do_global_dtors_aux+0x1c>)
 800020a:	b113      	cbz	r3, 8000212 <__do_global_dtors_aux+0x12>
 800020c:	4804      	ldr	r0, [pc, #16]	; (8000220 <__do_global_dtors_aux+0x20>)
 800020e:	f3af 8000 	nop.w
 8000212:	2301      	movs	r3, #1
 8000214:	7023      	strb	r3, [r4, #0]
 8000216:	bd10      	pop	{r4, pc}
 8000218:	20000160 	.word	0x20000160
 800021c:	00000000 	.word	0x00000000
 8000220:	08008f7c 	.word	0x08008f7c

08000224 <frame_dummy>:
 8000224:	b508      	push	{r3, lr}
 8000226:	4b03      	ldr	r3, [pc, #12]	; (8000234 <frame_dummy+0x10>)
 8000228:	b11b      	cbz	r3, 8000232 <frame_dummy+0xe>
 800022a:	4903      	ldr	r1, [pc, #12]	; (8000238 <frame_dummy+0x14>)
 800022c:	4803      	ldr	r0, [pc, #12]	; (800023c <frame_dummy+0x18>)
 800022e:	f3af 8000 	nop.w
 8000232:	bd08      	pop	{r3, pc}
 8000234:	00000000 	.word	0x00000000
 8000238:	20000164 	.word	0x20000164
 800023c:	08008f7c 	.word	0x08008f7c

08000240 <memchr>:
 8000240:	f001 01ff 	and.w	r1, r1, #255	; 0xff
 8000244:	2a10      	cmp	r2, #16
 8000246:	db2b      	blt.n	80002a0 <memchr+0x60>
 8000248:	f010 0f07 	tst.w	r0, #7
 800024c:	d008      	beq.n	8000260 <memchr+0x20>
 800024e:	f810 3b01 	ldrb.w	r3, [r0], #1
 8000252:	3a01      	subs	r2, #1
 8000254:	428b      	cmp	r3, r1
 8000256:	d02d      	beq.n	80002b4 <memchr+0x74>
 8000258:	f010 0f07 	tst.w	r0, #7
 800025c:	b342      	cbz	r2, 80002b0 <memchr+0x70>
 800025e:	d1f6      	bne.n	800024e <memchr+0xe>
 8000260:	b4f0      	push	{r4, r5, r6, r7}
 8000262:	ea41 2101 	orr.w	r1, r1, r1, lsl #8
 8000266:	ea41 4101 	orr.w	r1, r1, r1, lsl #16
 800026a:	f022 0407 	bic.w	r4, r2, #7
 800026e:	f07f 0700 	mvns.w	r7, #0
 8000272:	2300      	movs	r3, #0
 8000274:	e8f0 5602 	ldrd	r5, r6, [r0], #8
 8000278:	3c08      	subs	r4, #8
 800027a:	ea85 0501 	eor.w	r5, r5, r1
 800027e:	ea86 0601 	eor.w	r6, r6, r1
 8000282:	fa85 f547 	uadd8	r5, r5, r7
 8000286:	faa3 f587 	sel	r5, r3, r7
 800028a:	fa86 f647 	uadd8	r6, r6, r7
 800028e:	faa5 f687 	sel	r6, r5, r7
 8000292:	b98e      	cbnz	r6, 80002b8 <memchr+0x78>
 8000294:	d1ee      	bne.n	8000274 <memchr+0x34>
 8000296:	bcf0      	pop	{r4, r5, r6, r7}
 8000298:	f001 01ff 	and.w	r1, r1, #255	; 0xff
 800029c:	f002 0207 	and.w	r2, r2, #7
 80002a0:	b132      	cbz	r2, 80002b0 <memchr+0x70>
 80002a2:	f810 3b01 	ldrb.w	r3, [r0], #1
 80002a6:	3a01      	subs	r2, #1
 80002a8:	ea83 0301 	eor.w	r3, r3, r1
 80002ac:	b113      	cbz	r3, 80002b4 <memchr+0x74>
 80002ae:	d1f8      	bne.n	80002a2 <memchr+0x62>
 80002b0:	2000      	movs	r0, #0
 80002b2:	4770      	bx	lr
 80002b4:	3801      	subs	r0, #1
 80002b6:	4770      	bx	lr
 80002b8:	2d00      	cmp	r5, #0
 80002ba:	bf06      	itte	eq
 80002bc:	4635      	moveq	r5, r6
 80002be:	3803      	subeq	r0, #3
 80002c0:	3807      	subne	r0, #7
 80002c2:	f015 0f01 	tst.w	r5, #1
 80002c6:	d107      	bne.n	80002d8 <memchr+0x98>
 80002c8:	3001      	adds	r0, #1
 80002ca:	f415 7f80 	tst.w	r5, #256	; 0x100
 80002ce:	bf02      	ittt	eq
 80002d0:	3001      	addeq	r0, #1
 80002d2:	f415 3fc0 	tsteq.w	r5, #98304	; 0x18000
 80002d6:	3001      	addeq	r0, #1
 80002d8:	bcf0      	pop	{r4, r5, r6, r7}
 80002da:	3801      	subs	r0, #1
 80002dc:	4770      	bx	lr
 80002de:	bf00      	nop

080002e0 <__aeabi_uldivmod>:
 80002e0:	b953      	cbnz	r3, 80002f8 <__aeabi_uldivmod+0x18>
 80002e2:	b94a      	cbnz	r2, 80002f8 <__aeabi_uldivmod+0x18>
 80002e4:	2900      	cmp	r1, #0
 80002e6:	bf08      	it	eq
 80002e8:	2800      	cmpeq	r0, #0
 80002ea:	bf1c      	itt	ne
 80002ec:	f04f 31ff 	movne.w	r1, #4294967295
 80002f0:	f04f 30ff 	movne.w	r0, #4294967295
 80002f4:	f000 b970 	b.w	80005d8 <__aeabi_idiv0>
 80002f8:	f1ad 0c08 	sub.w	ip, sp, #8
 80002fc:	e96d ce04 	strd	ip, lr, [sp, #-16]!
 8000300:	f000 f806 	bl	8000310 <__udivmoddi4>
 8000304:	f8dd e004 	ldr.w	lr, [sp, #4]
 8000308:	e9dd 2302 	ldrd	r2, r3, [sp, #8]
 800030c:	b004      	add	sp, #16
 800030e:	4770      	bx	lr

08000310 <__udivmoddi4>:
 8000310:	e92d 47f0 	stmdb	sp!, {r4, r5, r6, r7, r8, r9, sl, lr}
 8000314:	9e08      	ldr	r6, [sp, #32]
 8000316:	460d      	mov	r5, r1
 8000318:	4604      	mov	r4, r0
 800031a:	460f      	mov	r7, r1
 800031c:	2b00      	cmp	r3, #0
 800031e:	d14a      	bne.n	80003b6 <__udivmoddi4+0xa6>
 8000320:	428a      	cmp	r2, r1
 8000322:	4694      	mov	ip, r2
 8000324:	d965      	bls.n	80003f2 <__udivmoddi4+0xe2>
 8000326:	fab2 f382 	clz	r3, r2
 800032a:	b143      	cbz	r3, 800033e <__udivmoddi4+0x2e>
 800032c:	fa02 fc03 	lsl.w	ip, r2, r3
 8000330:	f1c3 0220 	rsb	r2, r3, #32
 8000334:	409f      	lsls	r7, r3
 8000336:	fa20 f202 	lsr.w	r2, r0, r2
 800033a:	4317      	orrs	r7, r2
 800033c:	409c      	lsls	r4, r3
 800033e:	ea4f 4e1c 	mov.w	lr, ip, lsr #16
 8000342:	fa1f f58c 	uxth.w	r5, ip
 8000346:	fbb7 f1fe 	udiv	r1, r7, lr
 800034a:	0c22      	lsrs	r2, r4, #16
 800034c:	fb0e 7711 	mls	r7, lr, r1, r7
 8000350:	ea42 4207 	orr.w	r2, r2, r7, lsl #16
 8000354:	fb01 f005 	mul.w	r0, r1, r5
 8000358:	4290      	cmp	r0, r2
 800035a:	d90a      	bls.n	8000372 <__udivmoddi4+0x62>
 800035c:	eb1c 0202 	adds.w	r2, ip, r2
 8000360:	f101 37ff 	add.w	r7, r1, #4294967295
 8000364:	f080 811c 	bcs.w	80005a0 <__udivmoddi4+0x290>
 8000368:	4290      	cmp	r0, r2
 800036a:	f240 8119 	bls.w	80005a0 <__udivmoddi4+0x290>
 800036e:	3902      	subs	r1, #2
 8000370:	4462      	add	r2, ip
 8000372:	1a12      	subs	r2, r2, r0
 8000374:	b2a4      	uxth	r4, r4
 8000376:	fbb2 f0fe 	udiv	r0, r2, lr
 800037a:	fb0e 2210 	mls	r2, lr, r0, r2
 800037e:	ea44 4402 	orr.w	r4, r4, r2, lsl #16
 8000382:	fb00 f505 	mul.w	r5, r0, r5
 8000386:	42a5      	cmp	r5, r4
 8000388:	d90a      	bls.n	80003a0 <__udivmoddi4+0x90>
 800038a:	eb1c 0404 	adds.w	r4, ip, r4
 800038e:	f100 32ff 	add.w	r2, r0, #4294967295
 8000392:	f080 8107 	bcs.w	80005a4 <__udivmoddi4+0x294>
 8000396:	42a5      	cmp	r5, r4
 8000398:	f240 8104 	bls.w	80005a4 <__udivmoddi4+0x294>
 800039c:	4464      	add	r4, ip
 800039e:	3802      	subs	r0, #2
 80003a0:	ea40 4001 	orr.w	r0, r0, r1, lsl #16
 80003a4:	1b64      	subs	r4, r4, r5
 80003a6:	2100      	movs	r1, #0
 80003a8:	b11e      	cbz	r6, 80003b2 <__udivmoddi4+0xa2>
 80003aa:	40dc      	lsrs	r4, r3
 80003ac:	2300      	movs	r3, #0
 80003ae:	e9c6 4300 	strd	r4, r3, [r6]
 80003b2:	e8bd 87f0 	ldmia.w	sp!, {r4, r5, r6, r7, r8, r9, sl, pc}
 80003b6:	428b      	cmp	r3, r1
 80003b8:	d908      	bls.n	80003cc <__udivmoddi4+0xbc>
 80003ba:	2e00      	cmp	r6, #0
 80003bc:	f000 80ed 	beq.w	800059a <__udivmoddi4+0x28a>
 80003c0:	2100      	movs	r1, #0
 80003c2:	e9c6 0500 	strd	r0, r5, [r6]
 80003c6:	4608      	mov	r0, r1
 80003c8:	e8bd 87f0 	ldmia.w	sp!, {r4, r5, r6, r7, r8, r9, sl, pc}
 80003cc:	fab3 f183 	clz	r1, r3
 80003d0:	2900      	cmp	r1, #0
 80003d2:	d149      	bne.n	8000468 <__udivmoddi4+0x158>
 80003d4:	42ab      	cmp	r3, r5
 80003d6:	d302      	bcc.n	80003de <__udivmoddi4+0xce>
 80003d8:	4282      	cmp	r2, r0
 80003da:	f200 80f8 	bhi.w	80005ce <__udivmoddi4+0x2be>
 80003de:	1a84      	subs	r4, r0, r2
 80003e0:	eb65 0203 	sbc.w	r2, r5, r3
 80003e4:	2001      	movs	r0, #1
 80003e6:	4617      	mov	r7, r2
 80003e8:	2e00      	cmp	r6, #0
 80003ea:	d0e2      	beq.n	80003b2 <__udivmoddi4+0xa2>
 80003ec:	e9c6 4700 	strd	r4, r7, [r6]
 80003f0:	e7df      	b.n	80003b2 <__udivmoddi4+0xa2>
 80003f2:	b902      	cbnz	r2, 80003f6 <__udivmoddi4+0xe6>
 80003f4:	deff      	udf	#255	; 0xff
 80003f6:	fab2 f382 	clz	r3, r2
 80003fa:	2b00      	cmp	r3, #0
 80003fc:	f040 8090 	bne.w	8000520 <__udivmoddi4+0x210>
 8000400:	1a8a      	subs	r2, r1, r2
 8000402:	ea4f 471c 	mov.w	r7, ip, lsr #16
 8000406:	fa1f fe8c 	uxth.w	lr, ip
 800040a:	2101      	movs	r1, #1
 800040c:	fbb2 f5f7 	udiv	r5, r2, r7
 8000410:	fb07 2015 	mls	r0, r7, r5, r2
 8000414:	0c22      	lsrs	r2, r4, #16
 8000416:	ea42 4200 	orr.w	r2, r2, r0, lsl #16
 800041a:	fb0e f005 	mul.w	r0, lr, r5
 800041e:	4290      	cmp	r0, r2
 8000420:	d908      	bls.n	8000434 <__udivmoddi4+0x124>
 8000422:	eb1c 0202 	adds.w	r2, ip, r2
 8000426:	f105 38ff 	add.w	r8, r5, #4294967295
 800042a:	d202      	bcs.n	8000432 <__udivmoddi4+0x122>
 800042c:	4290      	cmp	r0, r2
 800042e:	f200 80cb 	bhi.w	80005c8 <__udivmoddi4+0x2b8>
 8000432:	4645      	mov	r5, r8
 8000434:	1a12      	subs	r2, r2, r0
 8000436:	b2a4      	uxth	r4, r4
 8000438:	fbb2 f0f7 	udiv	r0, r2, r7
 800043c:	fb07 2210 	mls	r2, r7, r0, r2
 8000440:	ea44 4402 	orr.w	r4, r4, r2, lsl #16
 8000444:	fb0e fe00 	mul.w	lr, lr, r0
 8000448:	45a6      	cmp	lr, r4
 800044a:	d908      	bls.n	800045e <__udivmoddi4+0x14e>
 800044c:	eb1c 0404 	adds.w	r4, ip, r4
 8000450:	f100 32ff 	add.w	r2, r0, #4294967295
 8000454:	d202      	bcs.n	800045c <__udivmoddi4+0x14c>
 8000456:	45a6      	cmp	lr, r4
 8000458:	f200 80bb 	bhi.w	80005d2 <__udivmoddi4+0x2c2>
 800045c:	4610      	mov	r0, r2
 800045e:	eba4 040e 	sub.w	r4, r4, lr
 8000462:	ea40 4005 	orr.w	r0, r0, r5, lsl #16
 8000466:	e79f      	b.n	80003a8 <__udivmoddi4+0x98>
 8000468:	f1c1 0720 	rsb	r7, r1, #32
 800046c:	408b      	lsls	r3, r1
 800046e:	fa22 fc07 	lsr.w	ip, r2, r7
 8000472:	ea4c 0c03 	orr.w	ip, ip, r3
 8000476:	fa05 f401 	lsl.w	r4, r5, r1
 800047a:	fa20 f307 	lsr.w	r3, r0, r7
 800047e:	40fd      	lsrs	r5, r7
 8000480:	ea4f 491c 	mov.w	r9, ip, lsr #16
 8000484:	4323      	orrs	r3, r4
 8000486:	fbb5 f8f9 	udiv	r8, r5, r9
 800048a:	fa1f fe8c 	uxth.w	lr, ip
 800048e:	fb09 5518 	mls	r5, r9, r8, r5
 8000492:	0c1c      	lsrs	r4, r3, #16
 8000494:	ea44 4405 	orr.w	r4, r4, r5, lsl #16
 8000498:	fb08 f50e 	mul.w	r5, r8, lr
 800049c:	42a5      	cmp	r5, r4
 800049e:	fa02 f201 	lsl.w	r2, r2, r1
 80004a2:	fa00 f001 	lsl.w	r0, r0, r1
 80004a6:	d90b      	bls.n	80004c0 <__udivmoddi4+0x1b0>
 80004a8:	eb1c 0404 	adds.w	r4, ip, r4
 80004ac:	f108 3aff 	add.w	sl, r8, #4294967295
 80004b0:	f080 8088 	bcs.w	80005c4 <__udivmoddi4+0x2b4>
 80004b4:	42a5      	cmp	r5, r4
 80004b6:	f240 8085 	bls.w	80005c4 <__udivmoddi4+0x2b4>
 80004ba:	f1a8 0802 	sub.w	r8, r8, #2
 80004be:	4464      	add	r4, ip
 80004c0:	1b64      	subs	r4, r4, r5
 80004c2:	b29d      	uxth	r5, r3
 80004c4:	fbb4 f3f9 	udiv	r3, r4, r9
 80004c8:	fb09 4413 	mls	r4, r9, r3, r4
 80004cc:	ea45 4404 	orr.w	r4, r5, r4, lsl #16
 80004d0:	fb03 fe0e 	mul.w	lr, r3, lr
 80004d4:	45a6      	cmp	lr, r4
 80004d6:	d908      	bls.n	80004ea <__udivmoddi4+0x1da>
 80004d8:	eb1c 0404 	adds.w	r4, ip, r4
 80004dc:	f103 35ff 	add.w	r5, r3, #4294967295
 80004e0:	d26c      	bcs.n	80005bc <__udivmoddi4+0x2ac>
 80004e2:	45a6      	cmp	lr, r4
 80004e4:	d96a      	bls.n	80005bc <__udivmoddi4+0x2ac>
 80004e6:	3b02      	subs	r3, #2
 80004e8:	4464      	add	r4, ip
 80004ea:	ea43 4308 	orr.w	r3, r3, r8, lsl #16
 80004ee:	fba3 9502 	umull	r9, r5, r3, r2
 80004f2:	eba4 040e 	sub.w	r4, r4, lr
 80004f6:	42ac      	cmp	r4, r5
 80004f8:	46c8      	mov	r8, r9
 80004fa:	46ae      	mov	lr, r5
 80004fc:	d356      	bcc.n	80005ac <__udivmoddi4+0x29c>
 80004fe:	d053      	beq.n	80005a8 <__udivmoddi4+0x298>
 8000500:	b156      	cbz	r6, 8000518 <__udivmoddi4+0x208>
 8000502:	ebb0 0208 	subs.w	r2, r0, r8
 8000506:	eb64 040e 	sbc.w	r4, r4, lr
 800050a:	fa04 f707 	lsl.w	r7, r4, r7
 800050e:	40ca      	lsrs	r2, r1
 8000510:	40cc      	lsrs	r4, r1
 8000512:	4317      	orrs	r7, r2
 8000514:	e9c6 7400 	strd	r7, r4, [r6]
 8000518:	4618      	mov	r0, r3
 800051a:	2100      	movs	r1, #0
 800051c:	e8bd 87f0 	ldmia.w	sp!, {r4, r5, r6, r7, r8, r9, sl, pc}
 8000520:	f1c3 0120 	rsb	r1, r3, #32
 8000524:	fa02 fc03 	lsl.w	ip, r2, r3
 8000528:	fa20 f201 	lsr.w	r2, r0, r1
 800052c:	fa25 f101 	lsr.w	r1, r5, r1
 8000530:	409d      	lsls	r5, r3
 8000532:	432a      	orrs	r2, r5
 8000534:	ea4f 471c 	mov.w	r7, ip, lsr #16
 8000538:	fa1f fe8c 	uxth.w	lr, ip
 800053c:	fbb1 f0f7 	udiv	r0, r1, r7
 8000540:	fb07 1510 	mls	r5, r7, r0, r1
 8000544:	0c11      	lsrs	r1, r2, #16
 8000546:	ea41 4105 	orr.w	r1, r1, r5, lsl #16
 800054a:	fb00 f50e 	mul.w	r5, r0, lr
 800054e:	428d      	cmp	r5, r1
 8000550:	fa04 f403 	lsl.w	r4, r4, r3
 8000554:	d908      	bls.n	8000568 <__udivmoddi4+0x258>
 8000556:	eb1c 0101 	adds.w	r1, ip, r1
 800055a:	f100 38ff 	add.w	r8, r0, #4294967295
 800055e:	d22f      	bcs.n	80005c0 <__udivmoddi4+0x2b0>
 8000560:	428d      	cmp	r5, r1
 8000562:	d92d      	bls.n	80005c0 <__udivmoddi4+0x2b0>
 8000564:	3802      	subs	r0, #2
 8000566:	4461      	add	r1, ip
 8000568:	1b49      	subs	r1, r1, r5
 800056a:	b292      	uxth	r2, r2
 800056c:	fbb1 f5f7 	udiv	r5, r1, r7
 8000570:	fb07 1115 	mls	r1, r7, r5, r1
 8000574:	ea42 4201 	orr.w	r2, r2, r1, lsl #16
 8000578:	fb05 f10e 	mul.w	r1, r5, lr
 800057c:	4291      	cmp	r1, r2
 800057e:	d908      	bls.n	8000592 <__udivmoddi4+0x282>
 8000580:	eb1c 0202 	adds.w	r2, ip, r2
 8000584:	f105 38ff 	add.w	r8, r5, #4294967295
 8000588:	d216      	bcs.n	80005b8 <__udivmoddi4+0x2a8>
 800058a:	4291      	cmp	r1, r2
 800058c:	d914      	bls.n	80005b8 <__udivmoddi4+0x2a8>
 800058e:	3d02      	subs	r5, #2
 8000590:	4462      	add	r2, ip
 8000592:	1a52      	subs	r2, r2, r1
 8000594:	ea45 4100 	orr.w	r1, r5, r0, lsl #16
 8000598:	e738      	b.n	800040c <__udivmoddi4+0xfc>
 800059a:	4631      	mov	r1, r6
 800059c:	4630      	mov	r0, r6
 800059e:	e708      	b.n	80003b2 <__udivmoddi4+0xa2>
 80005a0:	4639      	mov	r1, r7
 80005a2:	e6e6      	b.n	8000372 <__udivmoddi4+0x62>
 80005a4:	4610      	mov	r0, r2
 80005a6:	e6fb      	b.n	80003a0 <__udivmoddi4+0x90>
 80005a8:	4548      	cmp	r0, r9
 80005aa:	d2a9      	bcs.n	8000500 <__udivmoddi4+0x1f0>
 80005ac:	ebb9 0802 	subs.w	r8, r9, r2
 80005b0:	eb65 0e0c 	sbc.w	lr, r5, ip
 80005b4:	3b01      	subs	r3, #1
 80005b6:	e7a3      	b.n	8000500 <__udivmoddi4+0x1f0>
 80005b8:	4645      	mov	r5, r8
 80005ba:	e7ea      	b.n	8000592 <__udivmoddi4+0x282>
 80005bc:	462b      	mov	r3, r5
 80005be:	e794      	b.n	80004ea <__udivmoddi4+0x1da>
 80005c0:	4640      	mov	r0, r8
 80005c2:	e7d1      	b.n	8000568 <__udivmoddi4+0x258>
 80005c4:	46d0      	mov	r8, sl
 80005c6:	e77b      	b.n	80004c0 <__udivmoddi4+0x1b0>
 80005c8:	3d02      	subs	r5, #2
 80005ca:	4462      	add	r2, ip
 80005cc:	e732      	b.n	8000434 <__udivmoddi4+0x124>
 80005ce:	4608      	mov	r0, r1
 80005d0:	e70a      	b.n	80003e8 <__udivmoddi4+0xd8>
 80005d2:	4464      	add	r4, ip
 80005d4:	3802      	subs	r0, #2
 80005d6:	e742      	b.n	800045e <__udivmoddi4+0x14e>

080005d8 <__aeabi_idiv0>:
 80005d8:	4770      	bx	lr
 80005da:	bf00      	nop

080005dc <MX_ADC1_Init>:
 80005dc:	b530      	push	{r4, r5, lr}
 80005de:	b085      	sub	sp, #20
 80005e0:	2210      	movs	r2, #16
 80005e2:	2100      	movs	r1, #0
 80005e4:	2400      	movs	r4, #0
 80005e6:	4668      	mov	r0, sp
 80005e8:	2501      	movs	r5, #1
 80005ea:	f007 fed9 	bl	80083a0 <memset>
 80005ee:	4812      	ldr	r0, [pc, #72]	; (8000638 <MX_ADC1_Init+0x5c>)
 80005f0:	f44f 3380 	mov.w	r3, #65536	; 0x10000
 80005f4:	4a11      	ldr	r2, [pc, #68]	; (800063c <MX_ADC1_Init+0x60>)
 80005f6:	6084      	str	r4, [r0, #8]
 80005f8:	6105      	str	r5, [r0, #16]
 80005fa:	6184      	str	r4, [r0, #24]
 80005fc:	f880 4020 	strb.w	r4, [r0, #32]
 8000600:	62c4      	str	r4, [r0, #44]	; 0x2c
 8000602:	60c4      	str	r4, [r0, #12]
 8000604:	61c5      	str	r5, [r0, #28]
 8000606:	f880 5030 	strb.w	r5, [r0, #48]	; 0x30
 800060a:	6145      	str	r5, [r0, #20]
 800060c:	e9c0 2300 	strd	r2, r3, [r0]
 8000610:	4b0b      	ldr	r3, [pc, #44]	; (8000640 <MX_ADC1_Init+0x64>)
 8000612:	6283      	str	r3, [r0, #40]	; 0x28
 8000614:	f001 fbe4 	bl	8001de0 <HAL_ADC_Init>
 8000618:	b108      	cbz	r0, 800061e <MX_ADC1_Init+0x42>
 800061a:	f000 fea5 	bl	8001368 <Error_Handler>
 800061e:	2307      	movs	r3, #7
 8000620:	4669      	mov	r1, sp
 8000622:	4805      	ldr	r0, [pc, #20]	; (8000638 <MX_ADC1_Init+0x5c>)
 8000624:	9302      	str	r3, [sp, #8]
 8000626:	e9cd 4500 	strd	r4, r5, [sp]
 800062a:	f001 fd99 	bl	8002160 <HAL_ADC_ConfigChannel>
 800062e:	b108      	cbz	r0, 8000634 <MX_ADC1_Init+0x58>
 8000630:	f000 fe9a 	bl	8001368 <Error_Handler>
 8000634:	b005      	add	sp, #20
 8000636:	bd30      	pop	{r4, r5, pc}
 8000638:	2000017c 	.word	0x2000017c
 800063c:	40012000 	.word	0x40012000
 8000640:	0f000001 	.word	0x0f000001

08000644 <HAL_ADC_MspInit>:
 8000644:	b530      	push	{r4, r5, lr}
 8000646:	b089      	sub	sp, #36	; 0x24
 8000648:	4605      	mov	r5, r0
 800064a:	2214      	movs	r2, #20
 800064c:	2100      	movs	r1, #0
 800064e:	a803      	add	r0, sp, #12
 8000650:	f007 fea6 	bl	80083a0 <memset>
 8000654:	682a      	ldr	r2, [r5, #0]
 8000656:	4b20      	ldr	r3, [pc, #128]	; (80006d8 <HAL_ADC_MspInit+0x94>)
 8000658:	429a      	cmp	r2, r3
 800065a:	d13a      	bne.n	80006d2 <HAL_ADC_MspInit+0x8e>
 800065c:	f503 338c 	add.w	r3, r3, #71680	; 0x11800
 8000660:	a903      	add	r1, sp, #12
 8000662:	481e      	ldr	r0, [pc, #120]	; (80006dc <HAL_ADC_MspInit+0x98>)
 8000664:	6c5a      	ldr	r2, [r3, #68]	; 0x44
 8000666:	4c1e      	ldr	r4, [pc, #120]	; (80006e0 <HAL_ADC_MspInit+0x9c>)
 8000668:	f442 7280 	orr.w	r2, r2, #256	; 0x100
 800066c:	645a      	str	r2, [r3, #68]	; 0x44
 800066e:	6c5a      	ldr	r2, [r3, #68]	; 0x44
 8000670:	f402 7280 	and.w	r2, r2, #256	; 0x100
 8000674:	9201      	str	r2, [sp, #4]
 8000676:	9a01      	ldr	r2, [sp, #4]
 8000678:	6b1a      	ldr	r2, [r3, #48]	; 0x30
 800067a:	f042 0201 	orr.w	r2, r2, #1
 800067e:	631a      	str	r2, [r3, #48]	; 0x30
 8000680:	2201      	movs	r2, #1
 8000682:	6b1b      	ldr	r3, [r3, #48]	; 0x30
 8000684:	f003 0301 	and.w	r3, r3, #1
 8000688:	9302      	str	r3, [sp, #8]
 800068a:	9b02      	ldr	r3, [sp, #8]
 800068c:	2303      	movs	r3, #3
 800068e:	e9cd 2303 	strd	r2, r3, [sp, #12]
 8000692:	f002 f855 	bl	8002740 <HAL_GPIO_Init>
 8000696:	f44f 6080 	mov.w	r0, #1024	; 0x400
 800069a:	f44f 6200 	mov.w	r2, #2048	; 0x800
 800069e:	f44f 5c00 	mov.w	ip, #8192	; 0x2000
 80006a2:	2300      	movs	r3, #0
 80006a4:	490f      	ldr	r1, [pc, #60]	; (80006e4 <HAL_ADC_MspInit+0xa0>)
 80006a6:	e9c4 0204 	strd	r0, r2, [r4, #16]
 80006aa:	f44f 7280 	mov.w	r2, #256	; 0x100
 80006ae:	4620      	mov	r0, r4
 80006b0:	e9c4 c206 	strd	ip, r2, [r4, #24]
 80006b4:	f44f 3280 	mov.w	r2, #65536	; 0x10000
 80006b8:	e9c4 1300 	strd	r1, r3, [r4]
 80006bc:	e9c4 3302 	strd	r3, r3, [r4, #8]
 80006c0:	e9c4 2308 	strd	r2, r3, [r4, #32]
 80006c4:	f001 fe72 	bl	80023ac <HAL_DMA_Init>
 80006c8:	b108      	cbz	r0, 80006ce <HAL_ADC_MspInit+0x8a>
 80006ca:	f000 fe4d 	bl	8001368 <Error_Handler>
 80006ce:	63ac      	str	r4, [r5, #56]	; 0x38
 80006d0:	63a5      	str	r5, [r4, #56]	; 0x38
 80006d2:	b009      	add	sp, #36	; 0x24
 80006d4:	bd30      	pop	{r4, r5, pc}
 80006d6:	bf00      	nop
 80006d8:	40012000 	.word	0x40012000
 80006dc:	40020000 	.word	0x40020000
 80006e0:	200001c4 	.word	0x200001c4
 80006e4:	40026410 	.word	0x40026410

080006e8 <HAL_ADC_ConvCpltCallback>:
 80006e8:	6802      	ldr	r2, [r0, #0]
 80006ea:	4b04      	ldr	r3, [pc, #16]	; (80006fc <HAL_ADC_ConvCpltCallback+0x14>)
 80006ec:	429a      	cmp	r2, r3
 80006ee:	d104      	bne.n	80006fa <HAL_ADC_ConvCpltCallback+0x12>
 80006f0:	4b03      	ldr	r3, [pc, #12]	; (8000700 <HAL_ADC_ConvCpltCallback+0x18>)
 80006f2:	6818      	ldr	r0, [r3, #0]
 80006f4:	b108      	cbz	r0, 80006fa <HAL_ADC_ConvCpltCallback+0x12>
 80006f6:	f004 bc33 	b.w	8004f60 <osSemaphoreRelease>
 80006fa:	4770      	bx	lr
 80006fc:	40012000 	.word	0x40012000
 8000700:	20000254 	.word	0x20000254

08000704 <ADC1_ReadAverage>:
 8000704:	e92d 47f0 	stmdb	sp!, {r4, r5, r6, r7, r8, r9, sl, lr}
 8000708:	2500      	movs	r5, #0
 800070a:	4606      	mov	r6, r0
 800070c:	460f      	mov	r7, r1
 800070e:	f8df 90a0 	ldr.w	r9, [pc, #160]	; 80007b0 <ADC1_ReadAverage+0xac>
 8000712:	462c      	mov	r4, r5
 8000714:	f8df 808c 	ldr.w	r8, [pc, #140]	; 80007a4 <ADC1_ReadAverage+0xa0>
 8000718:	f8df a098 	ldr.w	sl, [pc, #152]	; 80007b4 <ADC1_ReadAverage+0xb0>
 800071c:	42b5      	cmp	r5, r6
 800071e:	d105      	bne.n	800072c <ADC1_ReadAverage+0x28>
 8000720:	4b1f      	ldr	r3, [pc, #124]	; (80007a0 <ADC1_ReadAverage+0x9c>)
 8000722:	2000      	movs	r0, #0
 8000724:	fbb4 f4f5 	udiv	r4, r4, r5
 8000728:	801c      	strh	r4, [r3, #0]
 800072a:	e018      	b.n	800075e <ADC1_ReadAverage+0x5a>
 800072c:	2100      	movs	r1, #0
 800072e:	f8d9 0000 	ldr.w	r0, [r9]
 8000732:	f004 fbdb 	bl	8004eec <osSemaphoreAcquire>
 8000736:	f3bf 8f4f 	dsb	sy
 800073a:	f8ca 8268 	str.w	r8, [sl, #616]	; 0x268
 800073e:	f3bf 8f4f 	dsb	sy
 8000742:	f3bf 8f6f 	isb	sy
 8000746:	2201      	movs	r2, #1
 8000748:	4916      	ldr	r1, [pc, #88]	; (80007a4 <ADC1_ReadAverage+0xa0>)
 800074a:	4817      	ldr	r0, [pc, #92]	; (80007a8 <ADC1_ReadAverage+0xa4>)
 800074c:	f001 fbee 	bl	8001f2c <HAL_ADC_Start_DMA>
 8000750:	b138      	cbz	r0, 8000762 <ADC1_ReadAverage+0x5e>
 8000752:	4a16      	ldr	r2, [pc, #88]	; (80007ac <ADC1_ReadAverage+0xa8>)
 8000754:	7813      	ldrb	r3, [r2, #0]
 8000756:	f043 0301 	orr.w	r3, r3, #1
 800075a:	7013      	strb	r3, [r2, #0]
 800075c:	2001      	movs	r0, #1
 800075e:	e8bd 87f0 	ldmia.w	sp!, {r4, r5, r6, r7, r8, r9, sl, pc}
 8000762:	4639      	mov	r1, r7
 8000764:	f8d9 0000 	ldr.w	r0, [r9]
 8000768:	3501      	adds	r5, #1
 800076a:	f004 fbbf 	bl	8004eec <osSemaphoreAcquire>
 800076e:	b140      	cbz	r0, 8000782 <ADC1_ReadAverage+0x7e>
 8000770:	4a0e      	ldr	r2, [pc, #56]	; (80007ac <ADC1_ReadAverage+0xa8>)
 8000772:	480d      	ldr	r0, [pc, #52]	; (80007a8 <ADC1_ReadAverage+0xa4>)
 8000774:	7813      	ldrb	r3, [r2, #0]
 8000776:	f043 0302 	orr.w	r3, r3, #2
 800077a:	7013      	strb	r3, [r2, #0]
 800077c:	f001 fc6e 	bl	800205c <HAL_ADC_Stop_DMA>
 8000780:	e7ec      	b.n	800075c <ADC1_ReadAverage+0x58>
 8000782:	4809      	ldr	r0, [pc, #36]	; (80007a8 <ADC1_ReadAverage+0xa4>)
 8000784:	f001 fc6a 	bl	800205c <HAL_ADC_Stop_DMA>
 8000788:	f3bf 8f4f 	dsb	sy
 800078c:	f8ca 825c 	str.w	r8, [sl, #604]	; 0x25c
 8000790:	f3bf 8f4f 	dsb	sy
 8000794:	f3bf 8f6f 	isb	sy
 8000798:	f8b8 3000 	ldrh.w	r3, [r8]
 800079c:	441c      	add	r4, r3
 800079e:	e7bd      	b.n	800071c <ADC1_ReadAverage+0x18>
 80007a0:	20000244 	.word	0x20000244
 80007a4:	20000240 	.word	0x20000240
 80007a8:	2000017c 	.word	0x2000017c
 80007ac:	20000242 	.word	0x20000242
 80007b0:	20000254 	.word	0x20000254
 80007b4:	e000ed00 	.word	0xe000ed00

080007b8 <MX_DMA_Init>:
 80007b8:	4b0a      	ldr	r3, [pc, #40]	; (80007e4 <MX_DMA_Init+0x2c>)
 80007ba:	b507      	push	{r0, r1, r2, lr}
 80007bc:	6b1a      	ldr	r2, [r3, #48]	; 0x30
 80007be:	2105      	movs	r1, #5
 80007c0:	2038      	movs	r0, #56	; 0x38
 80007c2:	f442 0280 	orr.w	r2, r2, #4194304	; 0x400000
 80007c6:	631a      	str	r2, [r3, #48]	; 0x30
 80007c8:	2200      	movs	r2, #0
 80007ca:	6b1b      	ldr	r3, [r3, #48]	; 0x30
 80007cc:	f403 0380 	and.w	r3, r3, #4194304	; 0x400000
 80007d0:	9301      	str	r3, [sp, #4]
 80007d2:	9b01      	ldr	r3, [sp, #4]
 80007d4:	f001 fd82 	bl	80022dc <HAL_NVIC_SetPriority>
 80007d8:	2038      	movs	r0, #56	; 0x38
 80007da:	b003      	add	sp, #12
 80007dc:	f85d eb04 	ldr.w	lr, [sp], #4
 80007e0:	f001 bdae 	b.w	8002340 <HAL_NVIC_EnableIRQ>
 80007e4:	40023800 	.word	0x40023800

080007e8 <RoboSoccer_errorHandler>:
 80007e8:	4e16      	ldr	r6, [pc, #88]	; (8000844 <RoboSoccer_errorHandler+0x5c>)
 80007ea:	4d17      	ldr	r5, [pc, #92]	; (8000848 <RoboSoccer_errorHandler+0x60>)
 80007ec:	4c17      	ldr	r4, [pc, #92]	; (800084c <RoboSoccer_errorHandler+0x64>)
 80007ee:	b508      	push	{r3, lr}
 80007f0:	4630      	mov	r0, r6
 80007f2:	f007 fcf5 	bl	80081e0 <puts>
 80007f6:	8829      	ldrh	r1, [r5, #0]
 80007f8:	4815      	ldr	r0, [pc, #84]	; (8000850 <RoboSoccer_errorHandler+0x68>)
 80007fa:	b289      	uxth	r1, r1
 80007fc:	f007 fc8a 	bl	8008114 <iprintf>
 8000800:	4b14      	ldr	r3, [pc, #80]	; (8000854 <RoboSoccer_errorHandler+0x6c>)
 8000802:	4815      	ldr	r0, [pc, #84]	; (8000858 <RoboSoccer_errorHandler+0x70>)
 8000804:	6819      	ldr	r1, [r3, #0]
 8000806:	f007 fc85 	bl	8008114 <iprintf>
 800080a:	4b14      	ldr	r3, [pc, #80]	; (800085c <RoboSoccer_errorHandler+0x74>)
 800080c:	4814      	ldr	r0, [pc, #80]	; (8000860 <RoboSoccer_errorHandler+0x78>)
 800080e:	6819      	ldr	r1, [r3, #0]
 8000810:	f007 fc80 	bl	8008114 <iprintf>
 8000814:	4b13      	ldr	r3, [pc, #76]	; (8000864 <RoboSoccer_errorHandler+0x7c>)
 8000816:	4814      	ldr	r0, [pc, #80]	; (8000868 <RoboSoccer_errorHandler+0x80>)
 8000818:	7819      	ldrb	r1, [r3, #0]
 800081a:	f007 fc7b 	bl	8008114 <iprintf>
 800081e:	4b13      	ldr	r3, [pc, #76]	; (800086c <RoboSoccer_errorHandler+0x84>)
 8000820:	4813      	ldr	r0, [pc, #76]	; (8000870 <RoboSoccer_errorHandler+0x88>)
 8000822:	6819      	ldr	r1, [r3, #0]
 8000824:	f007 fc76 	bl	8008114 <iprintf>
 8000828:	4812      	ldr	r0, [pc, #72]	; (8000874 <RoboSoccer_errorHandler+0x8c>)
 800082a:	f007 fcd9 	bl	80081e0 <puts>
 800082e:	b672      	cpsid	i
 8000830:	f44f 4180 	mov.w	r1, #16384	; 0x4000
 8000834:	4620      	mov	r0, r4
 8000836:	f002 f90a 	bl	8002a4e <HAL_GPIO_TogglePin>
 800083a:	f44f 70fa 	mov.w	r0, #500	; 0x1f4
 800083e:	f001 fabd 	bl	8001dbc <HAL_Delay>
 8000842:	e7d5      	b.n	80007f0 <RoboSoccer_errorHandler+0x8>
 8000844:	08008f94 	.word	0x08008f94
 8000848:	20000bdc 	.word	0x20000bdc
 800084c:	40020400 	.word	0x40020400
 8000850:	08008fb1 	.word	0x08008fb1
 8000854:	200000d8 	.word	0x200000d8
 8000858:	08008fd3 	.word	0x08008fd3
 800085c:	200000dc 	.word	0x200000dc
 8000860:	08008ff6 	.word	0x08008ff6
 8000864:	20000242 	.word	0x20000242
 8000868:	08009019 	.word	0x08009019
 800086c:	200002b0 	.word	0x200002b0
 8000870:	0800903b 	.word	0x0800903b
 8000874:	0800905e 	.word	0x0800905e

08000878 <StartAnalogTask>:
 8000878:	b507      	push	{r0, r1, r2, lr}
 800087a:	f005 fb8d 	bl	8005f98 <xTaskGetTickCount>
 800087e:	9001      	str	r0, [sp, #4]
 8000880:	4807      	ldr	r0, [pc, #28]	; (80008a0 <StartAnalogTask+0x28>)
 8000882:	f007 fc47 	bl	8008114 <iprintf>
 8000886:	2102      	movs	r1, #2
 8000888:	2005      	movs	r0, #5
 800088a:	f7ff ff3b 	bl	8000704 <ADC1_ReadAverage>
 800088e:	b108      	cbz	r0, 8000894 <StartAnalogTask+0x1c>
 8000890:	f7ff ffaa 	bl	80007e8 <RoboSoccer_errorHandler>
 8000894:	2101      	movs	r1, #1
 8000896:	a801      	add	r0, sp, #4
 8000898:	f005 fc98 	bl	80061cc <vTaskDelayUntil>
 800089c:	e7f3      	b.n	8000886 <StartAnalogTask+0xe>
 800089e:	bf00      	nop
 80008a0:	0800907b 	.word	0x0800907b

080008a4 <StartGeneralTask0>:
 80008a4:	b507      	push	{r0, r1, r2, lr}
 80008a6:	4d0b      	ldr	r5, [pc, #44]	; (80008d4 <StartGeneralTask0+0x30>)
 80008a8:	f640 36b8 	movw	r6, #3000	; 0xbb8
 80008ac:	4c0a      	ldr	r4, [pc, #40]	; (80008d8 <StartGeneralTask0+0x34>)
 80008ae:	f005 fb73 	bl	8005f98 <xTaskGetTickCount>
 80008b2:	9001      	str	r0, [sp, #4]
 80008b4:	4809      	ldr	r0, [pc, #36]	; (80008dc <StartGeneralTask0+0x38>)
 80008b6:	f007 fc93 	bl	80081e0 <puts>
 80008ba:	882b      	ldrh	r3, [r5, #0]
 80008bc:	2164      	movs	r1, #100	; 0x64
 80008be:	a801      	add	r0, sp, #4
 80008c0:	42b3      	cmp	r3, r6
 80008c2:	bf8c      	ite	hi
 80008c4:	2380      	movhi	r3, #128	; 0x80
 80008c6:	f44f 0300 	movls.w	r3, #8388608	; 0x800000
 80008ca:	61a3      	str	r3, [r4, #24]
 80008cc:	f005 fc7e 	bl	80061cc <vTaskDelayUntil>
 80008d0:	e7f3      	b.n	80008ba <StartGeneralTask0+0x16>
 80008d2:	bf00      	nop
 80008d4:	20000244 	.word	0x20000244
 80008d8:	40020400 	.word	0x40020400
 80008dc:	0800909a 	.word	0x0800909a

080008e0 <StartImuTask>:
 80008e0:	b507      	push	{r0, r1, r2, lr}
 80008e2:	f005 fb59 	bl	8005f98 <xTaskGetTickCount>
 80008e6:	9001      	str	r0, [sp, #4]
 80008e8:	f000 fc5e 	bl	80011a8 <imu_sys_init>
 80008ec:	b108      	cbz	r0, 80008f2 <StartImuTask+0x12>
 80008ee:	f7ff ff7b 	bl	80007e8 <RoboSoccer_errorHandler>
 80008f2:	4805      	ldr	r0, [pc, #20]	; (8000908 <StartImuTask+0x28>)
 80008f4:	f007 fc0e 	bl	8008114 <iprintf>
 80008f8:	f000 fcc6 	bl	8001288 <imu_service>
 80008fc:	2101      	movs	r1, #1
 80008fe:	a801      	add	r0, sp, #4
 8000900:	f005 fc64 	bl	80061cc <vTaskDelayUntil>
 8000904:	e7f8      	b.n	80008f8 <StartImuTask+0x18>
 8000906:	bf00      	nop
 8000908:	080090bb 	.word	0x080090bb

0800090c <configureTimerForRunTimeStats>:
 800090c:	4770      	bx	lr

0800090e <getRunTimeCounterValue>:
 800090e:	2000      	movs	r0, #0
 8000910:	4770      	bx	lr
	...

08000914 <vApplicationIdleHook>:
 8000914:	4801      	ldr	r0, [pc, #4]	; (800091c <vApplicationIdleHook+0x8>)
 8000916:	f002 b8df 	b.w	8002ad8 <HAL_IWDG_Refresh>
 800091a:	bf00      	nop
 800091c:	20000914 	.word	0x20000914

08000920 <vApplicationTickHook>:
 8000920:	4770      	bx	lr
	...

08000924 <vApplicationStackOverflowHook>:
 8000924:	4801      	ldr	r0, [pc, #4]	; (800092c <vApplicationStackOverflowHook+0x8>)
 8000926:	f007 bbf5 	b.w	8008114 <iprintf>
 800092a:	bf00      	nop
 800092c:	080090d7 	.word	0x080090d7

08000930 <MX_FREERTOS_Init>:
 8000930:	2101      	movs	r1, #1
 8000932:	4a0e      	ldr	r2, [pc, #56]	; (800096c <MX_FREERTOS_Init+0x3c>)
 8000934:	b508      	push	{r3, lr}
 8000936:	4608      	mov	r0, r1
 8000938:	f004 fa82 	bl	8004e40 <osSemaphoreNew>
 800093c:	4b0c      	ldr	r3, [pc, #48]	; (8000970 <MX_FREERTOS_Init+0x40>)
 800093e:	4a0d      	ldr	r2, [pc, #52]	; (8000974 <MX_FREERTOS_Init+0x44>)
 8000940:	2100      	movs	r1, #0
 8000942:	6018      	str	r0, [r3, #0]
 8000944:	480c      	ldr	r0, [pc, #48]	; (8000978 <MX_FREERTOS_Init+0x48>)
 8000946:	f004 fa27 	bl	8004d98 <osThreadNew>
 800094a:	4b0c      	ldr	r3, [pc, #48]	; (800097c <MX_FREERTOS_Init+0x4c>)
 800094c:	4a0c      	ldr	r2, [pc, #48]	; (8000980 <MX_FREERTOS_Init+0x50>)
 800094e:	2100      	movs	r1, #0
 8000950:	6018      	str	r0, [r3, #0]
 8000952:	480c      	ldr	r0, [pc, #48]	; (8000984 <MX_FREERTOS_Init+0x54>)
 8000954:	f004 fa20 	bl	8004d98 <osThreadNew>
 8000958:	4b0b      	ldr	r3, [pc, #44]	; (8000988 <MX_FREERTOS_Init+0x58>)
 800095a:	4a0c      	ldr	r2, [pc, #48]	; (800098c <MX_FREERTOS_Init+0x5c>)
 800095c:	2100      	movs	r1, #0
 800095e:	6018      	str	r0, [r3, #0]
 8000960:	480b      	ldr	r0, [pc, #44]	; (8000990 <MX_FREERTOS_Init+0x60>)
 8000962:	f004 fa19 	bl	8004d98 <osThreadNew>
 8000966:	4b0b      	ldr	r3, [pc, #44]	; (8000994 <MX_FREERTOS_Init+0x64>)
 8000968:	6018      	str	r0, [r3, #0]
 800096a:	bd08      	pop	{r3, pc}
 800096c:	08009184 	.word	0x08009184
 8000970:	20000254 	.word	0x20000254
 8000974:	08009118 	.word	0x08009118
 8000978:	08000879 	.word	0x08000879
 800097c:	20000248 	.word	0x20000248
 8000980:	0800913c 	.word	0x0800913c
 8000984:	080008a5 	.word	0x080008a5
 8000988:	2000024c 	.word	0x2000024c
 800098c:	08009160 	.word	0x08009160
 8000990:	080008e1 	.word	0x080008e1
 8000994:	20000250 	.word	0x20000250

08000998 <MX_GPIO_Init>:
 8000998:	e92d 41f0 	stmdb	sp!, {r4, r5, r6, r7, r8, lr}
 800099c:	b08e      	sub	sp, #56	; 0x38
 800099e:	2214      	movs	r2, #20
 80009a0:	2100      	movs	r1, #0
 80009a2:	4e5a      	ldr	r6, [pc, #360]	; (8000b0c <MX_GPIO_Init+0x174>)
 80009a4:	a809      	add	r0, sp, #36	; 0x24
 80009a6:	f8df 8178 	ldr.w	r8, [pc, #376]	; 8000b20 <MX_GPIO_Init+0x188>
 80009aa:	f007 fcf9 	bl	80083a0 <memset>
 80009ae:	4b58      	ldr	r3, [pc, #352]	; (8000b10 <MX_GPIO_Init+0x178>)
 80009b0:	4630      	mov	r0, r6
 80009b2:	2103      	movs	r1, #3
 80009b4:	6b1a      	ldr	r2, [r3, #48]	; 0x30
 80009b6:	2400      	movs	r4, #0
 80009b8:	4f56      	ldr	r7, [pc, #344]	; (8000b14 <MX_GPIO_Init+0x17c>)
 80009ba:	2501      	movs	r5, #1
 80009bc:	f042 0204 	orr.w	r2, r2, #4
 80009c0:	631a      	str	r2, [r3, #48]	; 0x30
 80009c2:	6b1a      	ldr	r2, [r3, #48]	; 0x30
 80009c4:	f002 0204 	and.w	r2, r2, #4
 80009c8:	9201      	str	r2, [sp, #4]
 80009ca:	9a01      	ldr	r2, [sp, #4]
 80009cc:	6b1a      	ldr	r2, [r3, #48]	; 0x30
 80009ce:	f042 0220 	orr.w	r2, r2, #32
 80009d2:	631a      	str	r2, [r3, #48]	; 0x30
 80009d4:	6b1a      	ldr	r2, [r3, #48]	; 0x30
 80009d6:	f002 0220 	and.w	r2, r2, #32
 80009da:	9202      	str	r2, [sp, #8]
 80009dc:	9a02      	ldr	r2, [sp, #8]
 80009de:	6b1a      	ldr	r2, [r3, #48]	; 0x30
 80009e0:	f042 0280 	orr.w	r2, r2, #128	; 0x80
 80009e4:	631a      	str	r2, [r3, #48]	; 0x30
 80009e6:	6b1a      	ldr	r2, [r3, #48]	; 0x30
 80009e8:	f002 0280 	and.w	r2, r2, #128	; 0x80
 80009ec:	9203      	str	r2, [sp, #12]
 80009ee:	9a03      	ldr	r2, [sp, #12]
 80009f0:	6b1a      	ldr	r2, [r3, #48]	; 0x30
 80009f2:	f042 0201 	orr.w	r2, r2, #1
 80009f6:	631a      	str	r2, [r3, #48]	; 0x30
 80009f8:	6b1a      	ldr	r2, [r3, #48]	; 0x30
 80009fa:	f002 0201 	and.w	r2, r2, #1
 80009fe:	9204      	str	r2, [sp, #16]
 8000a00:	9a04      	ldr	r2, [sp, #16]
 8000a02:	6b1a      	ldr	r2, [r3, #48]	; 0x30
 8000a04:	f042 0202 	orr.w	r2, r2, #2
 8000a08:	631a      	str	r2, [r3, #48]	; 0x30
 8000a0a:	6b1a      	ldr	r2, [r3, #48]	; 0x30
 8000a0c:	f002 0202 	and.w	r2, r2, #2
 8000a10:	9205      	str	r2, [sp, #20]
 8000a12:	9a05      	ldr	r2, [sp, #20]
 8000a14:	6b1a      	ldr	r2, [r3, #48]	; 0x30
 8000a16:	f042 0208 	orr.w	r2, r2, #8
 8000a1a:	631a      	str	r2, [r3, #48]	; 0x30
 8000a1c:	6b1a      	ldr	r2, [r3, #48]	; 0x30
 8000a1e:	f002 0208 	and.w	r2, r2, #8
 8000a22:	9206      	str	r2, [sp, #24]
 8000a24:	9a06      	ldr	r2, [sp, #24]
 8000a26:	6b1a      	ldr	r2, [r3, #48]	; 0x30
 8000a28:	f042 0240 	orr.w	r2, r2, #64	; 0x40
 8000a2c:	631a      	str	r2, [r3, #48]	; 0x30
 8000a2e:	6b1a      	ldr	r2, [r3, #48]	; 0x30
 8000a30:	f002 0240 	and.w	r2, r2, #64	; 0x40
 8000a34:	9207      	str	r2, [sp, #28]
 8000a36:	9a07      	ldr	r2, [sp, #28]
 8000a38:	6b1a      	ldr	r2, [r3, #48]	; 0x30
 8000a3a:	f042 0210 	orr.w	r2, r2, #16
 8000a3e:	631a      	str	r2, [r3, #48]	; 0x30
 8000a40:	2200      	movs	r2, #0
 8000a42:	6b1b      	ldr	r3, [r3, #48]	; 0x30
 8000a44:	f003 0310 	and.w	r3, r3, #16
 8000a48:	9308      	str	r3, [sp, #32]
 8000a4a:	9b08      	ldr	r3, [sp, #32]
 8000a4c:	f001 fffa 	bl	8002a44 <HAL_GPIO_WritePin>
 8000a50:	4630      	mov	r0, r6
 8000a52:	2201      	movs	r2, #1
 8000a54:	2104      	movs	r1, #4
 8000a56:	f001 fff5 	bl	8002a44 <HAL_GPIO_WritePin>
 8000a5a:	4640      	mov	r0, r8
 8000a5c:	2200      	movs	r2, #0
 8000a5e:	f44f 4181 	mov.w	r1, #16512	; 0x4080
 8000a62:	f001 ffef 	bl	8002a44 <HAL_GPIO_WritePin>
 8000a66:	4638      	mov	r0, r7
 8000a68:	2200      	movs	r2, #0
 8000a6a:	2140      	movs	r1, #64	; 0x40
 8000a6c:	f001 ffea 	bl	8002a44 <HAL_GPIO_WritePin>
 8000a70:	f44f 5200 	mov.w	r2, #8192	; 0x2000
 8000a74:	f44f 1388 	mov.w	r3, #1114112	; 0x110000
 8000a78:	a909      	add	r1, sp, #36	; 0x24
 8000a7a:	4827      	ldr	r0, [pc, #156]	; (8000b18 <MX_GPIO_Init+0x180>)
 8000a7c:	940b      	str	r4, [sp, #44]	; 0x2c
 8000a7e:	e9cd 2309 	strd	r2, r3, [sp, #36]	; 0x24
 8000a82:	f001 fe5d 	bl	8002740 <HAL_GPIO_Init>
 8000a86:	2305      	movs	r3, #5
 8000a88:	a909      	add	r1, sp, #36	; 0x24
 8000a8a:	4630      	mov	r0, r6
 8000a8c:	e9cd 3509 	strd	r3, r5, [sp, #36]	; 0x24
 8000a90:	e9cd 440b 	strd	r4, r4, [sp, #44]	; 0x2c
 8000a94:	f001 fe54 	bl	8002740 <HAL_GPIO_Init>
 8000a98:	2302      	movs	r3, #2
 8000a9a:	a909      	add	r1, sp, #36	; 0x24
 8000a9c:	4630      	mov	r0, r6
 8000a9e:	940b      	str	r4, [sp, #44]	; 0x2c
 8000aa0:	e9cd 3509 	strd	r3, r5, [sp, #36]	; 0x24
 8000aa4:	2303      	movs	r3, #3
 8000aa6:	930c      	str	r3, [sp, #48]	; 0x30
 8000aa8:	f001 fe4a 	bl	8002740 <HAL_GPIO_Init>
 8000aac:	f44f 4381 	mov.w	r3, #16512	; 0x4080
 8000ab0:	a909      	add	r1, sp, #36	; 0x24
 8000ab2:	4640      	mov	r0, r8
 8000ab4:	e9cd 3509 	strd	r3, r5, [sp, #36]	; 0x24
 8000ab8:	e9cd 440b 	strd	r4, r4, [sp, #44]	; 0x2c
 8000abc:	f001 fe40 	bl	8002740 <HAL_GPIO_Init>
 8000ac0:	2340      	movs	r3, #64	; 0x40
 8000ac2:	a909      	add	r1, sp, #36	; 0x24
 8000ac4:	4638      	mov	r0, r7
 8000ac6:	e9cd 3509 	strd	r3, r5, [sp, #36]	; 0x24
 8000aca:	e9cd 440b 	strd	r4, r4, [sp, #44]	; 0x2c
 8000ace:	f001 fe37 	bl	8002740 <HAL_GPIO_Init>
 8000ad2:	2380      	movs	r3, #128	; 0x80
 8000ad4:	a909      	add	r1, sp, #36	; 0x24
 8000ad6:	4638      	mov	r0, r7
 8000ad8:	940b      	str	r4, [sp, #44]	; 0x2c
 8000ada:	e9cd 3409 	strd	r3, r4, [sp, #36]	; 0x24
 8000ade:	f001 fe2f 	bl	8002740 <HAL_GPIO_Init>
 8000ae2:	f44f 1304 	mov.w	r3, #2162688	; 0x210000
 8000ae6:	a909      	add	r1, sp, #36	; 0x24
 8000ae8:	480c      	ldr	r0, [pc, #48]	; (8000b1c <MX_GPIO_Init+0x184>)
 8000aea:	9509      	str	r5, [sp, #36]	; 0x24
 8000aec:	e9cd 350a 	strd	r3, r5, [sp, #40]	; 0x28
 8000af0:	f001 fe26 	bl	8002740 <HAL_GPIO_Init>
 8000af4:	4622      	mov	r2, r4
 8000af6:	2104      	movs	r1, #4
 8000af8:	2006      	movs	r0, #6
 8000afa:	f001 fbef 	bl	80022dc <HAL_NVIC_SetPriority>
 8000afe:	2006      	movs	r0, #6
 8000b00:	f001 fc1e 	bl	8002340 <HAL_NVIC_EnableIRQ>
 8000b04:	b00e      	add	sp, #56	; 0x38
 8000b06:	e8bd 81f0 	ldmia.w	sp!, {r4, r5, r6, r7, r8, pc}
 8000b0a:	bf00      	nop
 8000b0c:	40021400 	.word	0x40021400
 8000b10:	40023800 	.word	0x40023800
 8000b14:	40021800 	.word	0x40021800
 8000b18:	40020800 	.word	0x40020800
 8000b1c:	40021000 	.word	0x40021000
 8000b20:	40020400 	.word	0x40020400

08000b24 <imu_hal_init_gpio>:
 8000b24:	b530      	push	{r4, r5, lr}
 8000b26:	b089      	sub	sp, #36	; 0x24
 8000b28:	2214      	movs	r2, #20
 8000b2a:	2100      	movs	r1, #0
 8000b2c:	2501      	movs	r5, #1
 8000b2e:	a803      	add	r0, sp, #12
 8000b30:	2400      	movs	r4, #0
 8000b32:	f007 fc35 	bl	80083a0 <memset>
 8000b36:	4b1d      	ldr	r3, [pc, #116]	; (8000bac <imu_hal_init_gpio+0x88>)
 8000b38:	481d      	ldr	r0, [pc, #116]	; (8000bb0 <imu_hal_init_gpio+0x8c>)
 8000b3a:	2107      	movs	r1, #7
 8000b3c:	6b1a      	ldr	r2, [r3, #48]	; 0x30
 8000b3e:	f042 0204 	orr.w	r2, r2, #4
 8000b42:	631a      	str	r2, [r3, #48]	; 0x30
 8000b44:	6b1a      	ldr	r2, [r3, #48]	; 0x30
 8000b46:	f002 0204 	and.w	r2, r2, #4
 8000b4a:	9201      	str	r2, [sp, #4]
 8000b4c:	9a01      	ldr	r2, [sp, #4]
 8000b4e:	6b1a      	ldr	r2, [r3, #48]	; 0x30
 8000b50:	f042 0220 	orr.w	r2, r2, #32
 8000b54:	631a      	str	r2, [r3, #48]	; 0x30
 8000b56:	2200      	movs	r2, #0
 8000b58:	6b1b      	ldr	r3, [r3, #48]	; 0x30
 8000b5a:	f003 0320 	and.w	r3, r3, #32
 8000b5e:	9302      	str	r3, [sp, #8]
 8000b60:	9b02      	ldr	r3, [sp, #8]
 8000b62:	f001 ff6f 	bl	8002a44 <HAL_GPIO_WritePin>
 8000b66:	2305      	movs	r3, #5
 8000b68:	a903      	add	r1, sp, #12
 8000b6a:	4811      	ldr	r0, [pc, #68]	; (8000bb0 <imu_hal_init_gpio+0x8c>)
 8000b6c:	e9cd 3503 	strd	r3, r5, [sp, #12]
 8000b70:	e9cd 4405 	strd	r4, r4, [sp, #20]
 8000b74:	f001 fde4 	bl	8002740 <HAL_GPIO_Init>
 8000b78:	2302      	movs	r3, #2
 8000b7a:	a903      	add	r1, sp, #12
 8000b7c:	480c      	ldr	r0, [pc, #48]	; (8000bb0 <imu_hal_init_gpio+0x8c>)
 8000b7e:	9405      	str	r4, [sp, #20]
 8000b80:	e9cd 3503 	strd	r3, r5, [sp, #12]
 8000b84:	2303      	movs	r3, #3
 8000b86:	9306      	str	r3, [sp, #24]
 8000b88:	f001 fdda 	bl	8002740 <HAL_GPIO_Init>
 8000b8c:	f44f 1304 	mov.w	r3, #2162688	; 0x210000
 8000b90:	a903      	add	r1, sp, #12
 8000b92:	4808      	ldr	r0, [pc, #32]	; (8000bb4 <imu_hal_init_gpio+0x90>)
 8000b94:	9503      	str	r5, [sp, #12]
 8000b96:	e9cd 3504 	strd	r3, r5, [sp, #16]
 8000b9a:	f001 fdd1 	bl	8002740 <HAL_GPIO_Init>
 8000b9e:	4622      	mov	r2, r4
 8000ba0:	2104      	movs	r1, #4
 8000ba2:	2006      	movs	r0, #6
 8000ba4:	f001 fb9a 	bl	80022dc <HAL_NVIC_SetPriority>
 8000ba8:	b009      	add	sp, #36	; 0x24
 8000baa:	bd30      	pop	{r4, r5, pc}
 8000bac:	40023800 	.word	0x40023800
 8000bb0:	40021400 	.word	0x40021400
 8000bb4:	40021000 	.word	0x40021000

08000bb8 <HAL_GPIO_EXTI_Callback>:
 8000bb8:	2801      	cmp	r0, #1
 8000bba:	d110      	bne.n	8000bde <HAL_GPIO_EXTI_Callback+0x26>
 8000bbc:	4b08      	ldr	r3, [pc, #32]	; (8000be0 <HAL_GPIO_EXTI_Callback+0x28>)
 8000bbe:	681b      	ldr	r3, [r3, #0]
 8000bc0:	6a5a      	ldr	r2, [r3, #36]	; 0x24
 8000bc2:	4b08      	ldr	r3, [pc, #32]	; (8000be4 <HAL_GPIO_EXTI_Callback+0x2c>)
 8000bc4:	f8c3 2528 	str.w	r2, [r3, #1320]	; 0x528
 8000bc8:	4b07      	ldr	r3, [pc, #28]	; (8000be8 <HAL_GPIO_EXTI_Callback+0x30>)
 8000bca:	781a      	ldrb	r2, [r3, #0]
 8000bcc:	f042 0202 	orr.w	r2, r2, #2
 8000bd0:	701a      	strb	r2, [r3, #0]
 8000bd2:	781a      	ldrb	r2, [r3, #0]
 8000bd4:	f002 02fb 	and.w	r2, r2, #251	; 0xfb
 8000bd8:	701a      	strb	r2, [r3, #0]
 8000bda:	f000 b9c7 	b.w	8000f6c <imu_spi_activate>
 8000bde:	4770      	bx	lr
 8000be0:	20000be4 	.word	0x20000be4
 8000be4:	20000380 	.word	0x20000380
 8000be8:	2000036c 	.word	0x2000036c

08000bec <delay>:
 8000bec:	4b07      	ldr	r3, [pc, #28]	; (8000c0c <delay+0x20>)
 8000bee:	b082      	sub	sp, #8
 8000bf0:	681a      	ldr	r2, [r3, #0]
 8000bf2:	6a53      	ldr	r3, [r2, #36]	; 0x24
 8000bf4:	9301      	str	r3, [sp, #4]
 8000bf6:	9901      	ldr	r1, [sp, #4]
 8000bf8:	9b01      	ldr	r3, [sp, #4]
 8000bfa:	1a5b      	subs	r3, r3, r1
 8000bfc:	4283      	cmp	r3, r0
 8000bfe:	d301      	bcc.n	8000c04 <delay+0x18>
 8000c00:	b002      	add	sp, #8
 8000c02:	4770      	bx	lr
 8000c04:	6a53      	ldr	r3, [r2, #36]	; 0x24
 8000c06:	9301      	str	r3, [sp, #4]
 8000c08:	e7f6      	b.n	8000bf8 <delay+0xc>
 8000c0a:	bf00      	nop
 8000c0c:	20000be4 	.word	0x20000be4

08000c10 <imu_hal_get_time>:
 8000c10:	4b01      	ldr	r3, [pc, #4]	; (8000c18 <imu_hal_get_time+0x8>)
 8000c12:	681b      	ldr	r3, [r3, #0]
 8000c14:	6a58      	ldr	r0, [r3, #36]	; 0x24
 8000c16:	4770      	bx	lr
 8000c18:	20000be4 	.word	0x20000be4

08000c1c <imu_start_Receive>:
 8000c1c:	b508      	push	{r3, lr}
 8000c1e:	4602      	mov	r2, r0
 8000c20:	460b      	mov	r3, r1
 8000c22:	4804      	ldr	r0, [pc, #16]	; (8000c34 <imu_start_Receive+0x18>)
 8000c24:	4904      	ldr	r1, [pc, #16]	; (8000c38 <imu_start_Receive+0x1c>)
 8000c26:	f002 ffc7 	bl	8003bb8 <HAL_SPI_TransmitReceive_IT>
 8000c2a:	b110      	cbz	r0, 8000c32 <imu_start_Receive+0x16>
 8000c2c:	2802      	cmp	r0, #2
 8000c2e:	bf18      	it	ne
 8000c30:	2001      	movne	r0, #1
 8000c32:	bd08      	pop	{r3, pc}
 8000c34:	20000b2c 	.word	0x20000b2c
 8000c38:	200007a0 	.word	0x200007a0

08000c3c <imu_dataHandler>:
 8000c3c:	b500      	push	{lr}
 8000c3e:	b095      	sub	sp, #84	; 0x54
 8000c40:	4668      	mov	r0, sp
 8000c42:	f006 fd43 	bl	80076cc <sh2_decodeSensorEvent>
 8000c46:	b140      	cbz	r0, 8000c5a <imu_dataHandler+0x1e>
 8000c48:	4a0f      	ldr	r2, [pc, #60]	; (8000c88 <imu_dataHandler+0x4c>)
 8000c4a:	8813      	ldrh	r3, [r2, #0]
 8000c4c:	b29b      	uxth	r3, r3
 8000c4e:	f443 6300 	orr.w	r3, r3, #2048	; 0x800
 8000c52:	8013      	strh	r3, [r2, #0]
 8000c54:	b015      	add	sp, #84	; 0x54
 8000c56:	f85d fb04 	ldr.w	pc, [sp], #4
 8000c5a:	f89d 3000 	ldrb.w	r3, [sp]
 8000c5e:	2b04      	cmp	r3, #4
 8000c60:	d007      	beq.n	8000c72 <imu_dataHandler+0x36>
 8000c62:	2b06      	cmp	r3, #6
 8000c64:	d00b      	beq.n	8000c7e <imu_dataHandler+0x42>
 8000c66:	2b02      	cmp	r3, #2
 8000c68:	d1f4      	bne.n	8000c54 <imu_dataHandler+0x18>
 8000c6a:	2250      	movs	r2, #80	; 0x50
 8000c6c:	4669      	mov	r1, sp
 8000c6e:	4807      	ldr	r0, [pc, #28]	; (8000c8c <imu_dataHandler+0x50>)
 8000c70:	e002      	b.n	8000c78 <imu_dataHandler+0x3c>
 8000c72:	2250      	movs	r2, #80	; 0x50
 8000c74:	4669      	mov	r1, sp
 8000c76:	4806      	ldr	r0, [pc, #24]	; (8000c90 <imu_dataHandler+0x54>)
 8000c78:	f007 fc63 	bl	8008542 <memcpy>
 8000c7c:	e7ea      	b.n	8000c54 <imu_dataHandler+0x18>
 8000c7e:	2250      	movs	r2, #80	; 0x50
 8000c80:	4669      	mov	r1, sp
 8000c82:	4804      	ldr	r0, [pc, #16]	; (8000c94 <imu_dataHandler+0x58>)
 8000c84:	e7f8      	b.n	8000c78 <imu_dataHandler+0x3c>
 8000c86:	bf00      	nop
 8000c88:	200002b0 	.word	0x200002b0
 8000c8c:	20000308 	.word	0x20000308
 8000c90:	20000260 	.word	0x20000260
 8000c94:	200002b8 	.word	0x200002b8

08000c98 <sh2_eventHanlder>:
 8000c98:	680b      	ldr	r3, [r1, #0]
 8000c9a:	2b01      	cmp	r3, #1
 8000c9c:	b507      	push	{r0, r1, r2, lr}
 8000c9e:	d021      	beq.n	8000ce4 <sh2_eventHanlder+0x4c>
 8000ca0:	2b02      	cmp	r3, #2
 8000ca2:	d00b      	beq.n	8000cbc <sh2_eventHanlder+0x24>
 8000ca4:	b9db      	cbnz	r3, 8000cde <sh2_eventHanlder+0x46>
 8000ca6:	4a1c      	ldr	r2, [pc, #112]	; (8000d18 <sh2_eventHanlder+0x80>)
 8000ca8:	481c      	ldr	r0, [pc, #112]	; (8000d1c <sh2_eventHanlder+0x84>)
 8000caa:	7813      	ldrb	r3, [r2, #0]
 8000cac:	f043 0308 	orr.w	r3, r3, #8
 8000cb0:	7013      	strb	r3, [r2, #0]
 8000cb2:	b003      	add	sp, #12
 8000cb4:	f85d eb04 	ldr.w	lr, [sp], #4
 8000cb8:	f007 ba2c 	b.w	8008114 <iprintf>
 8000cbc:	690a      	ldr	r2, [r1, #16]
 8000cbe:	4818      	ldr	r0, [pc, #96]	; (8000d20 <sh2_eventHanlder+0x88>)
 8000cc0:	ee07 2a90 	vmov	s15, r2
 8000cc4:	eeb8 7a67 	vcvt.f32.u32	s14, s15
 8000cc8:	ed9f 5b11 	vldr	d5, [pc, #68]	; 8000d10 <sh2_eventHanlder+0x78>
 8000ccc:	eeb7 7ac7 	vcvt.f64.f32	d7, s14
 8000cd0:	ee85 6b07 	vdiv.f64	d6, d5, d7
 8000cd4:	ed8d 6b00 	vstr	d6, [sp]
 8000cd8:	7909      	ldrb	r1, [r1, #4]
 8000cda:	f007 fa1b 	bl	8008114 <iprintf>
 8000cde:	b003      	add	sp, #12
 8000ce0:	f85d fb04 	ldr.w	pc, [sp], #4
 8000ce4:	790a      	ldrb	r2, [r1, #4]
 8000ce6:	2a07      	cmp	r2, #7
 8000ce8:	d808      	bhi.n	8000cfc <sh2_eventHanlder+0x64>
 8000cea:	4b0e      	ldr	r3, [pc, #56]	; (8000d24 <sh2_eventHanlder+0x8c>)
 8000cec:	480e      	ldr	r0, [pc, #56]	; (8000d28 <sh2_eventHanlder+0x90>)
 8000cee:	f853 1022 	ldr.w	r1, [r3, r2, lsl #2]
 8000cf2:	b003      	add	sp, #12
 8000cf4:	f85d eb04 	ldr.w	lr, [sp], #4
 8000cf8:	f007 ba0c 	b.w	8008114 <iprintf>
 8000cfc:	4611      	mov	r1, r2
 8000cfe:	480b      	ldr	r0, [pc, #44]	; (8000d2c <sh2_eventHanlder+0x94>)
 8000d00:	b003      	add	sp, #12
 8000d02:	f85d eb04 	ldr.w	lr, [sp], #4
 8000d06:	f007 ba05 	b.w	8008114 <iprintf>
 8000d0a:	bf00      	nop
 8000d0c:	f3af 8000 	nop.w
 8000d10:	00000000 	.word	0x00000000
 8000d14:	412e8480 	.word	0x412e8480
 8000d18:	2000036c 	.word	0x2000036c
 8000d1c:	08009194 	.word	0x08009194
 8000d20:	080091ad 	.word	0x080091ad
 8000d24:	08009344 	.word	0x08009344
 8000d28:	080091d7 	.word	0x080091d7
 8000d2c:	080091ef 	.word	0x080091ef

08000d30 <imu_hal_disable_interrupt>:
 8000d30:	2033      	movs	r0, #51	; 0x33
 8000d32:	b508      	push	{r3, lr}
 8000d34:	f001 fb12 	bl	800235c <HAL_NVIC_DisableIRQ>
 8000d38:	2006      	movs	r0, #6
 8000d3a:	e8bd 4008 	ldmia.w	sp!, {r3, lr}
 8000d3e:	f001 bb0d 	b.w	800235c <HAL_NVIC_DisableIRQ>

08000d42 <imu_hal_enable_interrupt>:
 8000d42:	2006      	movs	r0, #6
 8000d44:	b508      	push	{r3, lr}
 8000d46:	f001 fafb 	bl	8002340 <HAL_NVIC_EnableIRQ>
 8000d4a:	2033      	movs	r0, #51	; 0x33
 8000d4c:	e8bd 4008 	ldmia.w	sp!, {r3, lr}
 8000d50:	f001 baf6 	b.w	8002340 <HAL_NVIC_EnableIRQ>

08000d54 <imu_hal_close>:
 8000d54:	b508      	push	{r3, lr}
 8000d56:	f7ff ffeb 	bl	8000d30 <imu_hal_disable_interrupt>
 8000d5a:	4b12      	ldr	r3, [pc, #72]	; (8000da4 <imu_hal_close+0x50>)
 8000d5c:	2200      	movs	r2, #0
 8000d5e:	4812      	ldr	r0, [pc, #72]	; (8000da8 <imu_hal_close+0x54>)
 8000d60:	f883 2524 	strb.w	r2, [r3, #1316]	; 0x524
 8000d64:	f44f 3280 	mov.w	r2, #65536	; 0x10000
 8000d68:	4b10      	ldr	r3, [pc, #64]	; (8000dac <imu_hal_close+0x58>)
 8000d6a:	619a      	str	r2, [r3, #24]
 8000d6c:	2202      	movs	r2, #2
 8000d6e:	619a      	str	r2, [r3, #24]
 8000d70:	f002 fdd8 	bl	8003924 <HAL_SPI_DeInit>
 8000d74:	4b0e      	ldr	r3, [pc, #56]	; (8000db0 <imu_hal_close+0x5c>)
 8000d76:	681a      	ldr	r2, [r3, #0]
 8000d78:	6a13      	ldr	r3, [r2, #32]
 8000d7a:	f003 3311 	and.w	r3, r3, #286331153	; 0x11111111
 8000d7e:	f023 5388 	bic.w	r3, r3, #285212672	; 0x11000000
 8000d82:	b943      	cbnz	r3, 8000d96 <imu_hal_close+0x42>
 8000d84:	6a11      	ldr	r1, [r2, #32]
 8000d86:	f240 4344 	movw	r3, #1092	; 0x444
 8000d8a:	4219      	tst	r1, r3
 8000d8c:	d103      	bne.n	8000d96 <imu_hal_close+0x42>
 8000d8e:	6813      	ldr	r3, [r2, #0]
 8000d90:	f023 0301 	bic.w	r3, r3, #1
 8000d94:	6013      	str	r3, [r2, #0]
 8000d96:	4a07      	ldr	r2, [pc, #28]	; (8000db4 <imu_hal_close+0x60>)
 8000d98:	7813      	ldrb	r3, [r2, #0]
 8000d9a:	f003 03fe 	and.w	r3, r3, #254	; 0xfe
 8000d9e:	7013      	strb	r3, [r2, #0]
 8000da0:	bd08      	pop	{r3, pc}
 8000da2:	bf00      	nop
 8000da4:	20000380 	.word	0x20000380
 8000da8:	20000b2c 	.word	0x20000b2c
 8000dac:	40021400 	.word	0x40021400
 8000db0:	20000be4 	.word	0x20000be4
 8000db4:	2000036c 	.word	0x2000036c

08000db8 <imu_start_reports>:
 8000db8:	b570      	push	{r4, r5, r6, lr}
 8000dba:	4d14      	ldr	r5, [pc, #80]	; (8000e0c <imu_start_reports+0x54>)
 8000dbc:	2400      	movs	r4, #0
 8000dbe:	f855 6c04 	ldr.w	r6, [r5, #-4]
 8000dc2:	4629      	mov	r1, r5
 8000dc4:	b2f0      	uxtb	r0, r6
 8000dc6:	f006 fb95 	bl	80074f4 <sh2_setSensorConfig>
 8000dca:	b1c8      	cbz	r0, 8000e00 <imu_start_reports+0x48>
 8000dcc:	4b10      	ldr	r3, [pc, #64]	; (8000e10 <imu_start_reports+0x58>)
 8000dce:	2218      	movs	r2, #24
 8000dd0:	4631      	mov	r1, r6
 8000dd2:	fb02 3304 	mla	r3, r2, r4, r3
 8000dd6:	4c0f      	ldr	r4, [pc, #60]	; (8000e14 <imu_start_reports+0x5c>)
 8000dd8:	68db      	ldr	r3, [r3, #12]
 8000dda:	b14b      	cbz	r3, 8000df0 <imu_start_reports+0x38>
 8000ddc:	480e      	ldr	r0, [pc, #56]	; (8000e18 <imu_start_reports+0x60>)
 8000dde:	f007 f999 	bl	8008114 <iprintf>
 8000de2:	8823      	ldrh	r3, [r4, #0]
 8000de4:	b29b      	uxth	r3, r3
 8000de6:	f443 7380 	orr.w	r3, r3, #256	; 0x100
 8000dea:	2001      	movs	r0, #1
 8000dec:	8023      	strh	r3, [r4, #0]
 8000dee:	bd70      	pop	{r4, r5, r6, pc}
 8000df0:	480a      	ldr	r0, [pc, #40]	; (8000e1c <imu_start_reports+0x64>)
 8000df2:	f007 f98f 	bl	8008114 <iprintf>
 8000df6:	8823      	ldrh	r3, [r4, #0]
 8000df8:	b29b      	uxth	r3, r3
 8000dfa:	f043 0380 	orr.w	r3, r3, #128	; 0x80
 8000dfe:	e7f4      	b.n	8000dea <imu_start_reports+0x32>
 8000e00:	3401      	adds	r4, #1
 8000e02:	3518      	adds	r5, #24
 8000e04:	2c09      	cmp	r4, #9
 8000e06:	d1da      	bne.n	8000dbe <imu_start_reports+0x6>
 8000e08:	e7f1      	b.n	8000dee <imu_start_reports+0x36>
 8000e0a:	bf00      	nop
 8000e0c:	20000004 	.word	0x20000004
 8000e10:	20000000 	.word	0x20000000
 8000e14:	200002b0 	.word	0x200002b0
 8000e18:	0800920b 	.word	0x0800920b
 8000e1c:	0800922c 	.word	0x0800922c

08000e20 <imu_hal_write>:
 8000e20:	b538      	push	{r3, r4, r5, lr}
 8000e22:	4614      	mov	r4, r2
 8000e24:	b1e8      	cbz	r0, 8000e62 <imu_hal_write+0x42>
 8000e26:	2a80      	cmp	r2, #128	; 0x80
 8000e28:	d81b      	bhi.n	8000e62 <imu_hal_write+0x42>
 8000e2a:	b102      	cbz	r2, 8000e2e <imu_hal_write+0xe>
 8000e2c:	b1c9      	cbz	r1, 8000e62 <imu_hal_write+0x42>
 8000e2e:	4d0e      	ldr	r5, [pc, #56]	; (8000e68 <imu_hal_write+0x48>)
 8000e30:	f8d5 3520 	ldr.w	r3, [r5, #1312]	; 0x520
 8000e34:	b12b      	cbz	r3, 8000e42 <imu_hal_write+0x22>
 8000e36:	4b0d      	ldr	r3, [pc, #52]	; (8000e6c <imu_hal_write+0x4c>)
 8000e38:	2204      	movs	r2, #4
 8000e3a:	2400      	movs	r4, #0
 8000e3c:	619a      	str	r2, [r3, #24]
 8000e3e:	4620      	mov	r0, r4
 8000e40:	bd38      	pop	{r3, r4, r5, pc}
 8000e42:	4622      	mov	r2, r4
 8000e44:	f505 6094 	add.w	r0, r5, #1184	; 0x4a0
 8000e48:	f007 fb7b 	bl	8008542 <memcpy>
 8000e4c:	f8c5 4520 	str.w	r4, [r5, #1312]	; 0x520
 8000e50:	f7ff ff6e 	bl	8000d30 <imu_hal_disable_interrupt>
 8000e54:	4b05      	ldr	r3, [pc, #20]	; (8000e6c <imu_hal_write+0x4c>)
 8000e56:	f44f 2280 	mov.w	r2, #262144	; 0x40000
 8000e5a:	619a      	str	r2, [r3, #24]
 8000e5c:	f7ff ff71 	bl	8000d42 <imu_hal_enable_interrupt>
 8000e60:	e7ed      	b.n	8000e3e <imu_hal_write+0x1e>
 8000e62:	f06f 0401 	mvn.w	r4, #1
 8000e66:	e7ea      	b.n	8000e3e <imu_hal_write+0x1e>
 8000e68:	20000380 	.word	0x20000380
 8000e6c:	40021400 	.word	0x40021400

08000e70 <imu_hal_open>:
 8000e70:	e92d 41ff 	stmdb	sp!, {r0, r1, r2, r3, r4, r5, r6, r7, r8, lr}
 8000e74:	4d33      	ldr	r5, [pc, #204]	; (8000f44 <imu_hal_open+0xd4>)
 8000e76:	782c      	ldrb	r4, [r5, #0]
 8000e78:	f014 0401 	ands.w	r4, r4, #1
 8000e7c:	d15f      	bne.n	8000f3e <imu_hal_open+0xce>
 8000e7e:	782b      	ldrb	r3, [r5, #0]
 8000e80:	f04f 0802 	mov.w	r8, #2
 8000e84:	4e30      	ldr	r6, [pc, #192]	; (8000f48 <imu_hal_open+0xd8>)
 8000e86:	f043 0301 	orr.w	r3, r3, #1
 8000e8a:	4f30      	ldr	r7, [pc, #192]	; (8000f4c <imu_hal_open+0xdc>)
 8000e8c:	702b      	strb	r3, [r5, #0]
 8000e8e:	f000 fe05 	bl	8001a9c <imu_hal_init_timer>
 8000e92:	f7ff fe47 	bl	8000b24 <imu_hal_init_gpio>
 8000e96:	f000 fc03 	bl	80016a0 <imu_hal_init_spi>
 8000e9a:	f44f 3380 	mov.w	r3, #65536	; 0x10000
 8000e9e:	aa03      	add	r2, sp, #12
 8000ea0:	a902      	add	r1, sp, #8
 8000ea2:	61b3      	str	r3, [r6, #24]
 8000ea4:	782b      	ldrb	r3, [r5, #0]
 8000ea6:	482a      	ldr	r0, [pc, #168]	; (8000f50 <imu_hal_open+0xe0>)
 8000ea8:	f043 0304 	orr.w	r3, r3, #4
 8000eac:	702b      	strb	r3, [r5, #0]
 8000eae:	f8c6 8018 	str.w	r8, [r6, #24]
 8000eb2:	f8c7 4400 	str.w	r4, [r7, #1024]	; 0x400
 8000eb6:	f8c7 4520 	str.w	r4, [r7, #1312]	; 0x520
 8000eba:	2401      	movs	r4, #1
 8000ebc:	782b      	ldrb	r3, [r5, #0]
 8000ebe:	f8cd 8000 	str.w	r8, [sp]
 8000ec2:	f003 03fd 	and.w	r3, r3, #253	; 0xfd
 8000ec6:	702b      	strb	r3, [r5, #0]
 8000ec8:	23aa      	movs	r3, #170	; 0xaa
 8000eca:	f887 4524 	strb.w	r4, [r7, #1316]	; 0x524
 8000ece:	f88d 3008 	strb.w	r3, [sp, #8]
 8000ed2:	4623      	mov	r3, r4
 8000ed4:	f002 fd3c 	bl	8003950 <HAL_SPI_TransmitReceive>
 8000ed8:	f242 7010 	movw	r0, #10000	; 0x2710
 8000edc:	f887 8524 	strb.w	r8, [r7, #1316]	; 0x524
 8000ee0:	f7ff fe84 	bl	8000bec <delay>
 8000ee4:	2304      	movs	r3, #4
 8000ee6:	61b3      	str	r3, [r6, #24]
 8000ee8:	61b4      	str	r4, [r6, #24]
 8000eea:	f7ff ff21 	bl	8000d30 <imu_hal_disable_interrupt>
 8000eee:	4819      	ldr	r0, [pc, #100]	; (8000f54 <imu_hal_open+0xe4>)
 8000ef0:	f7ff fe7c 	bl	8000bec <delay>
 8000ef4:	f7ff ff25 	bl	8000d42 <imu_hal_enable_interrupt>
 8000ef8:	4b17      	ldr	r3, [pc, #92]	; (8000f58 <imu_hal_open+0xe8>)
 8000efa:	4918      	ldr	r1, [pc, #96]	; (8000f5c <imu_hal_open+0xec>)
 8000efc:	681a      	ldr	r2, [r3, #0]
 8000efe:	6a53      	ldr	r3, [r2, #36]	; 0x24
 8000f00:	9303      	str	r3, [sp, #12]
 8000f02:	9e03      	ldr	r6, [sp, #12]
 8000f04:	9b03      	ldr	r3, [sp, #12]
 8000f06:	1b9b      	subs	r3, r3, r6
 8000f08:	428b      	cmp	r3, r1
 8000f0a:	d90d      	bls.n	8000f28 <imu_hal_open+0xb8>
 8000f0c:	4a14      	ldr	r2, [pc, #80]	; (8000f60 <imu_hal_open+0xf0>)
 8000f0e:	4815      	ldr	r0, [pc, #84]	; (8000f64 <imu_hal_open+0xf4>)
 8000f10:	8813      	ldrh	r3, [r2, #0]
 8000f12:	b29b      	uxth	r3, r3
 8000f14:	f443 6380 	orr.w	r3, r3, #1024	; 0x400
 8000f18:	8013      	strh	r3, [r2, #0]
 8000f1a:	f007 f8fb 	bl	8008114 <iprintf>
 8000f1e:	f06f 0003 	mvn.w	r0, #3
 8000f22:	b004      	add	sp, #16
 8000f24:	e8bd 81f0 	ldmia.w	sp!, {r4, r5, r6, r7, r8, pc}
 8000f28:	6a53      	ldr	r3, [r2, #36]	; 0x24
 8000f2a:	9303      	str	r3, [sp, #12]
 8000f2c:	7828      	ldrb	r0, [r5, #0]
 8000f2e:	f010 0404 	ands.w	r4, r0, #4
 8000f32:	d1e7      	bne.n	8000f04 <imu_hal_open+0x94>
 8000f34:	480c      	ldr	r0, [pc, #48]	; (8000f68 <imu_hal_open+0xf8>)
 8000f36:	f007 f8ed 	bl	8008114 <iprintf>
 8000f3a:	4620      	mov	r0, r4
 8000f3c:	e7f1      	b.n	8000f22 <imu_hal_open+0xb2>
 8000f3e:	f04f 30ff 	mov.w	r0, #4294967295
 8000f42:	e7ee      	b.n	8000f22 <imu_hal_open+0xb2>
 8000f44:	2000036c 	.word	0x2000036c
 8000f48:	40021400 	.word	0x40021400
 8000f4c:	20000380 	.word	0x20000380
 8000f50:	20000b2c 	.word	0x20000b2c
 8000f54:	00030d40 	.word	0x00030d40
 8000f58:	20000be4 	.word	0x20000be4
 8000f5c:	001e847f 	.word	0x001e847f
 8000f60:	200002b0 	.word	0x200002b0
 8000f64:	0800924e 	.word	0x0800924e
 8000f68:	08009267 	.word	0x08009267

08000f6c <imu_spi_activate>:
 8000f6c:	b570      	push	{r4, r5, r6, lr}
 8000f6e:	4c35      	ldr	r4, [pc, #212]	; (8001044 <imu_spi_activate+0xd8>)
 8000f70:	f894 3524 	ldrb.w	r3, [r4, #1316]	; 0x524
 8000f74:	2b02      	cmp	r3, #2
 8000f76:	b2de      	uxtb	r6, r3
 8000f78:	d147      	bne.n	800100a <imu_spi_activate+0x9e>
 8000f7a:	f8d4 3400 	ldr.w	r3, [r4, #1024]	; 0x400
 8000f7e:	2b00      	cmp	r3, #0
 8000f80:	d143      	bne.n	800100a <imu_spi_activate+0x9e>
 8000f82:	4b31      	ldr	r3, [pc, #196]	; (8001048 <imu_spi_activate+0xdc>)
 8000f84:	781a      	ldrb	r2, [r3, #0]
 8000f86:	0792      	lsls	r2, r2, #30
 8000f88:	d53f      	bpl.n	800100a <imu_spi_activate+0x9e>
 8000f8a:	781a      	ldrb	r2, [r3, #0]
 8000f8c:	4d2f      	ldr	r5, [pc, #188]	; (800104c <imu_spi_activate+0xe0>)
 8000f8e:	f002 02fd 	and.w	r2, r2, #253	; 0xfd
 8000f92:	701a      	strb	r2, [r3, #0]
 8000f94:	f44f 3300 	mov.w	r3, #131072	; 0x20000
 8000f98:	61ab      	str	r3, [r5, #24]
 8000f9a:	f8d4 3520 	ldr.w	r3, [r4, #1312]	; 0x520
 8000f9e:	2b00      	cmp	r3, #0
 8000fa0:	d03a      	beq.n	8001018 <imu_spi_activate+0xac>
 8000fa2:	2305      	movs	r3, #5
 8000fa4:	f504 6294 	add.w	r2, r4, #1184	; 0x4a0
 8000fa8:	f884 3524 	strb.w	r3, [r4, #1316]	; 0x524
 8000fac:	f8d4 3520 	ldr.w	r3, [r4, #1312]	; 0x520
 8000fb0:	f3bf 8f4f 	dsb	sy
 8000fb4:	4926      	ldr	r1, [pc, #152]	; (8001050 <imu_spi_activate+0xe4>)
 8000fb6:	2b00      	cmp	r3, #0
 8000fb8:	dc21      	bgt.n	8000ffe <imu_spi_activate+0x92>
 8000fba:	f3bf 8f4f 	dsb	sy
 8000fbe:	f3bf 8f6f 	isb	sy
 8000fc2:	4a20      	ldr	r2, [pc, #128]	; (8001044 <imu_spi_activate+0xd8>)
 8000fc4:	f8d4 3520 	ldr.w	r3, [r4, #1312]	; 0x520
 8000fc8:	f502 6194 	add.w	r1, r2, #1184	; 0x4a0
 8000fcc:	4821      	ldr	r0, [pc, #132]	; (8001054 <imu_spi_activate+0xe8>)
 8000fce:	b29b      	uxth	r3, r3
 8000fd0:	f002 fdf2 	bl	8003bb8 <HAL_SPI_TransmitReceive_IT>
 8000fd4:	4b1d      	ldr	r3, [pc, #116]	; (800104c <imu_spi_activate+0xe0>)
 8000fd6:	2204      	movs	r2, #4
 8000fd8:	b1b0      	cbz	r0, 8001008 <imu_spi_activate+0x9c>
 8000fda:	2802      	cmp	r0, #2
 8000fdc:	d016      	beq.n	800100c <imu_spi_activate+0xa0>
 8000fde:	491e      	ldr	r1, [pc, #120]	; (8001058 <imu_spi_activate+0xec>)
 8000fe0:	619a      	str	r2, [r3, #24]
 8000fe2:	880a      	ldrh	r2, [r1, #0]
 8000fe4:	b292      	uxth	r2, r2
 8000fe6:	f042 0208 	orr.w	r2, r2, #8
 8000fea:	800a      	strh	r2, [r1, #0]
 8000fec:	2202      	movs	r2, #2
 8000fee:	f884 2524 	strb.w	r2, [r4, #1316]	; 0x524
 8000ff2:	619a      	str	r2, [r3, #24]
 8000ff4:	4a19      	ldr	r2, [pc, #100]	; (800105c <imu_spi_activate+0xf0>)
 8000ff6:	6813      	ldr	r3, [r2, #0]
 8000ff8:	3301      	adds	r3, #1
 8000ffa:	6013      	str	r3, [r2, #0]
 8000ffc:	e005      	b.n	800100a <imu_spi_activate+0x9e>
 8000ffe:	f8c1 2268 	str.w	r2, [r1, #616]	; 0x268
 8001002:	3b20      	subs	r3, #32
 8001004:	3220      	adds	r2, #32
 8001006:	e7d6      	b.n	8000fb6 <imu_spi_activate+0x4a>
 8001008:	619a      	str	r2, [r3, #24]
 800100a:	bd70      	pop	{r4, r5, r6, pc}
 800100c:	619a      	str	r2, [r3, #24]
 800100e:	f884 0524 	strb.w	r0, [r4, #1316]	; 0x524
 8001012:	4a13      	ldr	r2, [pc, #76]	; (8001060 <imu_spi_activate+0xf4>)
 8001014:	6198      	str	r0, [r3, #24]
 8001016:	e7ee      	b.n	8000ff6 <imu_spi_activate+0x8a>
 8001018:	2303      	movs	r3, #3
 800101a:	2104      	movs	r1, #4
 800101c:	4620      	mov	r0, r4
 800101e:	f884 3524 	strb.w	r3, [r4, #1316]	; 0x524
 8001022:	f7ff fdfb 	bl	8000c1c <imu_start_Receive>
 8001026:	2801      	cmp	r0, #1
 8001028:	d107      	bne.n	800103a <imu_spi_activate+0xce>
 800102a:	4a0b      	ldr	r2, [pc, #44]	; (8001058 <imu_spi_activate+0xec>)
 800102c:	8813      	ldrh	r3, [r2, #0]
 800102e:	b29b      	uxth	r3, r3
 8001030:	f043 0320 	orr.w	r3, r3, #32
 8001034:	8013      	strh	r3, [r2, #0]
 8001036:	61ae      	str	r6, [r5, #24]
 8001038:	e7e7      	b.n	800100a <imu_spi_activate+0x9e>
 800103a:	2802      	cmp	r0, #2
 800103c:	d1e5      	bne.n	800100a <imu_spi_activate+0x9e>
 800103e:	61a8      	str	r0, [r5, #24]
 8001040:	e7e3      	b.n	800100a <imu_spi_activate+0x9e>
 8001042:	bf00      	nop
 8001044:	20000380 	.word	0x20000380
 8001048:	2000036c 	.word	0x2000036c
 800104c:	40021400 	.word	0x40021400
 8001050:	e000ed00 	.word	0xe000ed00
 8001054:	20000b2c 	.word	0x20000b2c
 8001058:	200002b0 	.word	0x200002b0
 800105c:	20000258 	.word	0x20000258
 8001060:	2000025c 	.word	0x2000025c

08001064 <imu_hal_read>:
 8001064:	b5f8      	push	{r3, r4, r5, r6, r7, lr}
 8001066:	4c12      	ldr	r4, [pc, #72]	; (80010b0 <imu_hal_read+0x4c>)
 8001068:	4608      	mov	r0, r1
 800106a:	461e      	mov	r6, r3
 800106c:	2700      	movs	r7, #0
 800106e:	f8d4 5400 	ldr.w	r5, [r4, #1024]	; 0x400
 8001072:	b1ad      	cbz	r5, 80010a0 <imu_hal_read+0x3c>
 8001074:	f8d4 3400 	ldr.w	r3, [r4, #1024]	; 0x400
 8001078:	429a      	cmp	r2, r3
 800107a:	d313      	bcc.n	80010a4 <imu_hal_read+0x40>
 800107c:	f8d4 2400 	ldr.w	r2, [r4, #1024]	; 0x400
 8001080:	4621      	mov	r1, r4
 8001082:	f007 fa5e 	bl	8008542 <memcpy>
 8001086:	f8d4 5400 	ldr.w	r5, [r4, #1024]	; 0x400
 800108a:	f8d4 3528 	ldr.w	r3, [r4, #1320]	; 0x528
 800108e:	6033      	str	r3, [r6, #0]
 8001090:	f8c4 7400 	str.w	r7, [r4, #1024]	; 0x400
 8001094:	f7ff fe4c 	bl	8000d30 <imu_hal_disable_interrupt>
 8001098:	f7ff ff68 	bl	8000f6c <imu_spi_activate>
 800109c:	f7ff fe51 	bl	8000d42 <imu_hal_enable_interrupt>
 80010a0:	4628      	mov	r0, r5
 80010a2:	bdf8      	pop	{r3, r4, r5, r6, r7, pc}
 80010a4:	f06f 0501 	mvn.w	r5, #1
 80010a8:	f8c4 7400 	str.w	r7, [r4, #1024]	; 0x400
 80010ac:	e7f2      	b.n	8001094 <imu_hal_read+0x30>
 80010ae:	bf00      	nop
 80010b0:	20000380 	.word	0x20000380

080010b4 <imu_spi_completed>:
 80010b4:	b508      	push	{r3, lr}
 80010b6:	4b38      	ldr	r3, [pc, #224]	; (8001198 <imu_spi_completed+0xe4>)
 80010b8:	781a      	ldrb	r2, [r3, #0]
 80010ba:	7859      	ldrb	r1, [r3, #1]
 80010bc:	ea42 2201 	orr.w	r2, r2, r1, lsl #8
 80010c0:	f64f 71ff 	movw	r1, #65535	; 0xffff
 80010c4:	428a      	cmp	r2, r1
 80010c6:	d10d      	bne.n	80010e4 <imu_spi_completed+0x30>
 80010c8:	4934      	ldr	r1, [pc, #208]	; (800119c <imu_spi_completed+0xe8>)
 80010ca:	880a      	ldrh	r2, [r1, #0]
 80010cc:	b292      	uxth	r2, r2
 80010ce:	f042 0201 	orr.w	r2, r2, #1
 80010d2:	800a      	strh	r2, [r1, #0]
 80010d4:	4931      	ldr	r1, [pc, #196]	; (800119c <imu_spi_completed+0xe8>)
 80010d6:	880a      	ldrh	r2, [r1, #0]
 80010d8:	b292      	uxth	r2, r2
 80010da:	f042 0204 	orr.w	r2, r2, #4
 80010de:	800a      	strh	r2, [r1, #0]
 80010e0:	2104      	movs	r1, #4
 80010e2:	e008      	b.n	80010f6 <imu_spi_completed+0x42>
 80010e4:	f3c2 010e 	ubfx	r1, r2, #0, #15
 80010e8:	f5b1 6f80 	cmp.w	r1, #1024	; 0x400
 80010ec:	d80d      	bhi.n	800110a <imu_spi_completed+0x56>
 80010ee:	f647 70fc 	movw	r0, #32764	; 0x7ffc
 80010f2:	4202      	tst	r2, r0
 80010f4:	d0ee      	beq.n	80010d4 <imu_spi_completed+0x20>
 80010f6:	f893 2524 	ldrb.w	r2, [r3, #1316]	; 0x524
 80010fa:	3a01      	subs	r2, #1
 80010fc:	2a04      	cmp	r2, #4
 80010fe:	d83f      	bhi.n	8001180 <imu_spi_completed+0xcc>
 8001100:	e8df f002 	tbb	[pc, r2]
 8001104:	25063e37 	.word	0x25063e37
 8001108:	29          	.byte	0x29
 8001109:	00          	.byte	0x00
 800110a:	f44f 6180 	mov.w	r1, #1024	; 0x400
 800110e:	e7f2      	b.n	80010f6 <imu_spi_completed+0x42>
 8001110:	2904      	cmp	r1, #4
 8001112:	d010      	beq.n	8001136 <imu_spi_completed+0x82>
 8001114:	3904      	subs	r1, #4
 8001116:	2204      	movs	r2, #4
 8001118:	4821      	ldr	r0, [pc, #132]	; (80011a0 <imu_spi_completed+0xec>)
 800111a:	b289      	uxth	r1, r1
 800111c:	f883 2524 	strb.w	r2, [r3, #1316]	; 0x524
 8001120:	f7ff fd7c 	bl	8000c1c <imu_start_Receive>
 8001124:	2801      	cmp	r0, #1
 8001126:	d127      	bne.n	8001178 <imu_spi_completed+0xc4>
 8001128:	4a1c      	ldr	r2, [pc, #112]	; (800119c <imu_spi_completed+0xe8>)
 800112a:	8813      	ldrh	r3, [r2, #0]
 800112c:	b29b      	uxth	r3, r3
 800112e:	f043 0340 	orr.w	r3, r3, #64	; 0x40
 8001132:	8013      	strh	r3, [r2, #0]
 8001134:	e020      	b.n	8001178 <imu_spi_completed+0xc4>
 8001136:	491b      	ldr	r1, [pc, #108]	; (80011a4 <imu_spi_completed+0xf0>)
 8001138:	2202      	movs	r2, #2
 800113a:	618a      	str	r2, [r1, #24]
 800113c:	2100      	movs	r1, #0
 800113e:	f8c3 1400 	str.w	r1, [r3, #1024]	; 0x400
 8001142:	f883 2524 	strb.w	r2, [r3, #1316]	; 0x524
 8001146:	e8bd 4008 	ldmia.w	sp!, {r3, lr}
 800114a:	f7ff bf0f 	b.w	8000f6c <imu_spi_activate>
 800114e:	2202      	movs	r2, #2
 8001150:	4814      	ldr	r0, [pc, #80]	; (80011a4 <imu_spi_completed+0xf0>)
 8001152:	6182      	str	r2, [r0, #24]
 8001154:	e7f3      	b.n	800113e <imu_spi_completed+0x8a>
 8001156:	4a13      	ldr	r2, [pc, #76]	; (80011a4 <imu_spi_completed+0xf0>)
 8001158:	2002      	movs	r0, #2
 800115a:	6190      	str	r0, [r2, #24]
 800115c:	f8d3 2520 	ldr.w	r2, [r3, #1312]	; 0x520
 8001160:	4291      	cmp	r1, r2
 8001162:	d90a      	bls.n	800117a <imu_spi_completed+0xc6>
 8001164:	f8d3 2520 	ldr.w	r2, [r3, #1312]	; 0x520
 8001168:	f8c3 2400 	str.w	r2, [r3, #1024]	; 0x400
 800116c:	2200      	movs	r2, #0
 800116e:	f8c3 2520 	str.w	r2, [r3, #1312]	; 0x520
 8001172:	2202      	movs	r2, #2
 8001174:	f883 2524 	strb.w	r2, [r3, #1316]	; 0x524
 8001178:	bd08      	pop	{r3, pc}
 800117a:	f8c3 1400 	str.w	r1, [r3, #1024]	; 0x400
 800117e:	e7f5      	b.n	800116c <imu_spi_completed+0xb8>
 8001180:	2202      	movs	r2, #2
 8001182:	f883 2524 	strb.w	r2, [r3, #1316]	; 0x524
 8001186:	4b07      	ldr	r3, [pc, #28]	; (80011a4 <imu_spi_completed+0xf0>)
 8001188:	619a      	str	r2, [r3, #24]
 800118a:	4a04      	ldr	r2, [pc, #16]	; (800119c <imu_spi_completed+0xe8>)
 800118c:	8813      	ldrh	r3, [r2, #0]
 800118e:	b29b      	uxth	r3, r3
 8001190:	f443 7300 	orr.w	r3, r3, #512	; 0x200
 8001194:	e7cd      	b.n	8001132 <imu_spi_completed+0x7e>
 8001196:	bf00      	nop
 8001198:	20000380 	.word	0x20000380
 800119c:	200002b0 	.word	0x200002b0
 80011a0:	20000384 	.word	0x20000384
 80011a4:	40021400 	.word	0x40021400

080011a8 <imu_sys_init>:
 80011a8:	e92d 41ff 	stmdb	sp!, {r0, r1, r2, r3, r4, r5, r6, r7, r8, lr}
 80011ac:	4829      	ldr	r0, [pc, #164]	; (8001254 <imu_sys_init+0xac>)
 80011ae:	2200      	movs	r2, #0
 80011b0:	4b29      	ldr	r3, [pc, #164]	; (8001258 <imu_sys_init+0xb0>)
 80011b2:	492a      	ldr	r1, [pc, #168]	; (800125c <imu_sys_init+0xb4>)
 80011b4:	6003      	str	r3, [r0, #0]
 80011b6:	4b2a      	ldr	r3, [pc, #168]	; (8001260 <imu_sys_init+0xb8>)
 80011b8:	6043      	str	r3, [r0, #4]
 80011ba:	4b2a      	ldr	r3, [pc, #168]	; (8001264 <imu_sys_init+0xbc>)
 80011bc:	6083      	str	r3, [r0, #8]
 80011be:	4b2a      	ldr	r3, [pc, #168]	; (8001268 <imu_sys_init+0xc0>)
 80011c0:	60c3      	str	r3, [r0, #12]
 80011c2:	4b2a      	ldr	r3, [pc, #168]	; (800126c <imu_sys_init+0xc4>)
 80011c4:	6103      	str	r3, [r0, #16]
 80011c6:	f006 f913 	bl	80073f0 <sh2_open>
 80011ca:	4604      	mov	r4, r0
 80011cc:	b150      	cbz	r0, 80011e4 <imu_sys_init+0x3c>
 80011ce:	4a28      	ldr	r2, [pc, #160]	; (8001270 <imu_sys_init+0xc8>)
 80011d0:	2601      	movs	r6, #1
 80011d2:	8813      	ldrh	r3, [r2, #0]
 80011d4:	b29b      	uxth	r3, r3
 80011d6:	f043 0310 	orr.w	r3, r3, #16
 80011da:	8013      	strh	r3, [r2, #0]
 80011dc:	4630      	mov	r0, r6
 80011de:	b004      	add	sp, #16
 80011e0:	e8bd 81f0 	ldmia.w	sp!, {r4, r5, r6, r7, r8, pc}
 80011e4:	4601      	mov	r1, r0
 80011e6:	4823      	ldr	r0, [pc, #140]	; (8001274 <imu_sys_init+0xcc>)
 80011e8:	f006 f96a 	bl	80074c0 <sh2_setSensorCallback>
 80011ec:	4f22      	ldr	r7, [pc, #136]	; (8001278 <imu_sys_init+0xd0>)
 80011ee:	f7ff fde3 	bl	8000db8 <imu_start_reports>
 80011f2:	2254      	movs	r2, #84	; 0x54
 80011f4:	4621      	mov	r1, r4
 80011f6:	4606      	mov	r6, r0
 80011f8:	481f      	ldr	r0, [pc, #124]	; (8001278 <imu_sys_init+0xd0>)
 80011fa:	f007 f8d1 	bl	80083a0 <memset>
 80011fe:	481e      	ldr	r0, [pc, #120]	; (8001278 <imu_sys_init+0xd0>)
 8001200:	f006 f966 	bl	80074d0 <sh2_getProdIds>
 8001204:	2800      	cmp	r0, #0
 8001206:	db1b      	blt.n	8001240 <imu_sys_init+0x98>
 8001208:	463d      	mov	r5, r7
 800120a:	f8df 8078 	ldr.w	r8, [pc, #120]	; 8001284 <imu_sys_init+0xdc>
 800120e:	f897 3050 	ldrb.w	r3, [r7, #80]	; 0x50
 8001212:	3510      	adds	r5, #16
 8001214:	429c      	cmp	r4, r3
 8001216:	da16      	bge.n	8001246 <imu_sys_init+0x9e>
 8001218:	f815 3c10 	ldrb.w	r3, [r5, #-16]
 800121c:	4640      	mov	r0, r8
 800121e:	3401      	adds	r4, #1
 8001220:	9302      	str	r3, [sp, #8]
 8001222:	f855 3c08 	ldr.w	r3, [r5, #-8]
 8001226:	9301      	str	r3, [sp, #4]
 8001228:	f835 3c04 	ldrh.w	r3, [r5, #-4]
 800122c:	9300      	str	r3, [sp, #0]
 800122e:	f815 3c0e 	ldrb.w	r3, [r5, #-14]
 8001232:	f815 2c0f 	ldrb.w	r2, [r5, #-15]
 8001236:	f855 1c0c 	ldr.w	r1, [r5, #-12]
 800123a:	f006 ff6b 	bl	8008114 <iprintf>
 800123e:	e7e6      	b.n	800120e <imu_sys_init+0x66>
 8001240:	480e      	ldr	r0, [pc, #56]	; (800127c <imu_sys_init+0xd4>)
 8001242:	f006 ff67 	bl	8008114 <iprintf>
 8001246:	4a0e      	ldr	r2, [pc, #56]	; (8001280 <imu_sys_init+0xd8>)
 8001248:	7813      	ldrb	r3, [r2, #0]
 800124a:	f003 03f7 	and.w	r3, r3, #247	; 0xf7
 800124e:	7013      	strb	r3, [r2, #0]
 8001250:	e7c4      	b.n	80011dc <imu_sys_init+0x34>
 8001252:	bf00      	nop
 8001254:	20000358 	.word	0x20000358
 8001258:	08000e71 	.word	0x08000e71
 800125c:	08000c99 	.word	0x08000c99
 8001260:	08000d55 	.word	0x08000d55
 8001264:	08001065 	.word	0x08001065
 8001268:	08000e21 	.word	0x08000e21
 800126c:	08000c11 	.word	0x08000c11
 8001270:	200002b0 	.word	0x200002b0
 8001274:	08000c3d 	.word	0x08000c3d
 8001278:	200008c0 	.word	0x200008c0
 800127c:	0800927b 	.word	0x0800927b
 8001280:	2000036c 	.word	0x2000036c
 8001284:	08009298 	.word	0x08009298

08001288 <imu_service>:
 8001288:	b510      	push	{r4, lr}
 800128a:	4c08      	ldr	r4, [pc, #32]	; (80012ac <imu_service+0x24>)
 800128c:	7823      	ldrb	r3, [r4, #0]
 800128e:	071b      	lsls	r3, r3, #28
 8001290:	d506      	bpl.n	80012a0 <imu_service+0x18>
 8001292:	f7ff fd91 	bl	8000db8 <imu_start_reports>
 8001296:	b938      	cbnz	r0, 80012a8 <imu_service+0x20>
 8001298:	7823      	ldrb	r3, [r4, #0]
 800129a:	f003 03f7 	and.w	r3, r3, #247	; 0xf7
 800129e:	7023      	strb	r3, [r4, #0]
 80012a0:	f006 f906 	bl	80074b0 <sh2_service>
 80012a4:	2000      	movs	r0, #0
 80012a6:	bd10      	pop	{r4, pc}
 80012a8:	2001      	movs	r0, #1
 80012aa:	e7fc      	b.n	80012a6 <imu_service+0x1e>
 80012ac:	2000036c 	.word	0x2000036c

080012b0 <MX_IWDG_Init>:
 80012b0:	b508      	push	{r3, lr}
 80012b2:	4809      	ldr	r0, [pc, #36]	; (80012d8 <MX_IWDG_Init+0x28>)
 80012b4:	2303      	movs	r3, #3
 80012b6:	4a09      	ldr	r2, [pc, #36]	; (80012dc <MX_IWDG_Init+0x2c>)
 80012b8:	f640 71ff 	movw	r1, #4095	; 0xfff
 80012bc:	e9c0 2300 	strd	r2, r3, [r0]
 80012c0:	f240 33e7 	movw	r3, #999	; 0x3e7
 80012c4:	e9c0 3102 	strd	r3, r1, [r0, #8]
 80012c8:	f001 fbd6 	bl	8002a78 <HAL_IWDG_Init>
 80012cc:	b118      	cbz	r0, 80012d6 <MX_IWDG_Init+0x26>
 80012ce:	e8bd 4008 	ldmia.w	sp!, {r3, lr}
 80012d2:	f000 b849 	b.w	8001368 <Error_Handler>
 80012d6:	bd08      	pop	{r3, pc}
 80012d8:	20000914 	.word	0x20000914
 80012dc:	40003000 	.word	0x40003000

080012e0 <reset_cause_get>:
 80012e0:	4b15      	ldr	r3, [pc, #84]	; (8001338 <reset_cause_get+0x58>)
 80012e2:	6f5a      	ldr	r2, [r3, #116]	; 0x74
 80012e4:	2a00      	cmp	r2, #0
 80012e6:	db1a      	blt.n	800131e <reset_cause_get+0x3e>
 80012e8:	6f5a      	ldr	r2, [r3, #116]	; 0x74
 80012ea:	0052      	lsls	r2, r2, #1
 80012ec:	d419      	bmi.n	8001322 <reset_cause_get+0x42>
 80012ee:	6f5a      	ldr	r2, [r3, #116]	; 0x74
 80012f0:	0091      	lsls	r1, r2, #2
 80012f2:	d418      	bmi.n	8001326 <reset_cause_get+0x46>
 80012f4:	6f5a      	ldr	r2, [r3, #116]	; 0x74
 80012f6:	00d2      	lsls	r2, r2, #3
 80012f8:	d417      	bmi.n	800132a <reset_cause_get+0x4a>
 80012fa:	6f5a      	ldr	r2, [r3, #116]	; 0x74
 80012fc:	0111      	lsls	r1, r2, #4
 80012fe:	d416      	bmi.n	800132e <reset_cause_get+0x4e>
 8001300:	6f5a      	ldr	r2, [r3, #116]	; 0x74
 8001302:	0152      	lsls	r2, r2, #5
 8001304:	d415      	bmi.n	8001332 <reset_cause_get+0x52>
 8001306:	6f5b      	ldr	r3, [r3, #116]	; 0x74
 8001308:	f013 7f00 	tst.w	r3, #33554432	; 0x2000000
 800130c:	bf14      	ite	ne
 800130e:	2007      	movne	r0, #7
 8001310:	2000      	moveq	r0, #0
 8001312:	4a09      	ldr	r2, [pc, #36]	; (8001338 <reset_cause_get+0x58>)
 8001314:	6f53      	ldr	r3, [r2, #116]	; 0x74
 8001316:	f043 7380 	orr.w	r3, r3, #16777216	; 0x1000000
 800131a:	6753      	str	r3, [r2, #116]	; 0x74
 800131c:	4770      	bx	lr
 800131e:	2001      	movs	r0, #1
 8001320:	e7f7      	b.n	8001312 <reset_cause_get+0x32>
 8001322:	2002      	movs	r0, #2
 8001324:	e7f5      	b.n	8001312 <reset_cause_get+0x32>
 8001326:	2003      	movs	r0, #3
 8001328:	e7f3      	b.n	8001312 <reset_cause_get+0x32>
 800132a:	2004      	movs	r0, #4
 800132c:	e7f1      	b.n	8001312 <reset_cause_get+0x32>
 800132e:	2005      	movs	r0, #5
 8001330:	e7ef      	b.n	8001312 <reset_cause_get+0x32>
 8001332:	2006      	movs	r0, #6
 8001334:	e7ed      	b.n	8001312 <reset_cause_get+0x32>
 8001336:	bf00      	nop
 8001338:	40023800 	.word	0x40023800

0800133c <reset_cause_get_name>:
 800133c:	2807      	cmp	r0, #7
 800133e:	bf9a      	itte	ls
 8001340:	4b02      	ldrls	r3, [pc, #8]	; (800134c <reset_cause_get_name+0x10>)
 8001342:	f853 0020 	ldrls.w	r0, [r3, r0, lsl #2]
 8001346:	4802      	ldrhi	r0, [pc, #8]	; (8001350 <reset_cause_get_name+0x14>)
 8001348:	4770      	bx	lr
 800134a:	bf00      	nop
 800134c:	080094a8 	.word	0x080094a8
 8001350:	08009364 	.word	0x08009364

08001354 <HAL_TIM_PeriodElapsedCallback>:
 8001354:	6802      	ldr	r2, [r0, #0]
 8001356:	4b03      	ldr	r3, [pc, #12]	; (8001364 <HAL_TIM_PeriodElapsedCallback+0x10>)
 8001358:	429a      	cmp	r2, r3
 800135a:	d101      	bne.n	8001360 <HAL_TIM_PeriodElapsedCallback+0xc>
 800135c:	f000 bd1c 	b.w	8001d98 <HAL_IncTick>
 8001360:	4770      	bx	lr
 8001362:	bf00      	nop
 8001364:	40001000 	.word	0x40001000

08001368 <Error_Handler>:
 8001368:	b508      	push	{r3, lr}
 800136a:	b672      	cpsid	i
 800136c:	f7ff fa3c 	bl	80007e8 <RoboSoccer_errorHandler>
 8001370:	e7fe      	b.n	8001370 <Error_Handler+0x8>
	...

08001374 <SystemClock_Config>:
 8001374:	b510      	push	{r4, lr}
 8001376:	b094      	sub	sp, #80	; 0x50
 8001378:	2234      	movs	r2, #52	; 0x34
 800137a:	2100      	movs	r1, #0
 800137c:	2402      	movs	r4, #2
 800137e:	a807      	add	r0, sp, #28
 8001380:	f007 f80e 	bl	80083a0 <memset>
 8001384:	2214      	movs	r2, #20
 8001386:	2100      	movs	r1, #0
 8001388:	a802      	add	r0, sp, #8
 800138a:	f007 f809 	bl	80083a0 <memset>
 800138e:	f001 fba9 	bl	8002ae4 <HAL_PWR_EnableBkUpAccess>
 8001392:	4b21      	ldr	r3, [pc, #132]	; (8001418 <SystemClock_Config+0xa4>)
 8001394:	f44f 0180 	mov.w	r1, #4194304	; 0x400000
 8001398:	a807      	add	r0, sp, #28
 800139a:	6c1a      	ldr	r2, [r3, #64]	; 0x40
 800139c:	f042 5280 	orr.w	r2, r2, #268435456	; 0x10000000
 80013a0:	641a      	str	r2, [r3, #64]	; 0x40
 80013a2:	6c1b      	ldr	r3, [r3, #64]	; 0x40
 80013a4:	f003 5380 	and.w	r3, r3, #268435456	; 0x10000000
 80013a8:	9300      	str	r3, [sp, #0]
 80013aa:	9b00      	ldr	r3, [sp, #0]
 80013ac:	4b1b      	ldr	r3, [pc, #108]	; (800141c <SystemClock_Config+0xa8>)
 80013ae:	681a      	ldr	r2, [r3, #0]
 80013b0:	f442 4240 	orr.w	r2, r2, #49152	; 0xc000
 80013b4:	601a      	str	r2, [r3, #0]
 80013b6:	f44f 22a0 	mov.w	r2, #327680	; 0x50000
 80013ba:	681b      	ldr	r3, [r3, #0]
 80013bc:	f403 4340 	and.w	r3, r3, #49152	; 0xc000
 80013c0:	9301      	str	r3, [sp, #4]
 80013c2:	9b01      	ldr	r3, [sp, #4]
 80013c4:	2309      	movs	r3, #9
 80013c6:	e9cd 3207 	strd	r3, r2, [sp, #28]
 80013ca:	2201      	movs	r2, #1
 80013cc:	e9cd 240c 	strd	r2, r4, [sp, #48]	; 0x30
 80013d0:	2208      	movs	r2, #8
 80013d2:	e9cd 120e 	strd	r1, r2, [sp, #56]	; 0x38
 80013d6:	f44f 72d8 	mov.w	r2, #432	; 0x1b0
 80013da:	e9cd 3412 	strd	r3, r4, [sp, #72]	; 0x48
 80013de:	e9cd 2410 	strd	r2, r4, [sp, #64]	; 0x40
 80013e2:	f001 fbbf 	bl	8002b64 <HAL_RCC_OscConfig>
 80013e6:	b108      	cbz	r0, 80013ec <SystemClock_Config+0x78>
 80013e8:	f7ff ffbe 	bl	8001368 <Error_Handler>
 80013ec:	f001 fb82 	bl	8002af4 <HAL_PWREx_EnableOverDrive>
 80013f0:	2800      	cmp	r0, #0
 80013f2:	d1f9      	bne.n	80013e8 <SystemClock_Config+0x74>
 80013f4:	230f      	movs	r3, #15
 80013f6:	f44f 52a0 	mov.w	r2, #5120	; 0x1400
 80013fa:	9004      	str	r0, [sp, #16]
 80013fc:	2107      	movs	r1, #7
 80013fe:	a802      	add	r0, sp, #8
 8001400:	e9cd 3402 	strd	r3, r4, [sp, #8]
 8001404:	f44f 5380 	mov.w	r3, #4096	; 0x1000
 8001408:	e9cd 2305 	strd	r2, r3, [sp, #20]
 800140c:	f001 fd9a 	bl	8002f44 <HAL_RCC_ClockConfig>
 8001410:	2800      	cmp	r0, #0
 8001412:	d1e9      	bne.n	80013e8 <SystemClock_Config+0x74>
 8001414:	b014      	add	sp, #80	; 0x50
 8001416:	bd10      	pop	{r4, pc}
 8001418:	40023800 	.word	0x40023800
 800141c:	40007000 	.word	0x40007000

08001420 <main>:
 8001420:	b570      	push	{r4, r5, r6, lr}
 8001422:	f3bf 8f4f 	dsb	sy
 8001426:	f3bf 8f6f 	isb	sy
 800142a:	4b41      	ldr	r3, [pc, #260]	; (8001530 <main+0x110>)
 800142c:	2200      	movs	r2, #0
 800142e:	f8c3 2250 	str.w	r2, [r3, #592]	; 0x250
 8001432:	f3bf 8f4f 	dsb	sy
 8001436:	f3bf 8f6f 	isb	sy
 800143a:	f8c3 2084 	str.w	r2, [r3, #132]	; 0x84
 800143e:	f3bf 8f4f 	dsb	sy
 8001442:	f8d3 2080 	ldr.w	r2, [r3, #128]	; 0x80
 8001446:	f643 74e0 	movw	r4, #16352	; 0x3fe0
 800144a:	f3c2 00c9 	ubfx	r0, r2, #3, #10
 800144e:	f3c2 324e 	ubfx	r2, r2, #13, #15
 8001452:	0152      	lsls	r2, r2, #5
 8001454:	ea02 0604 	and.w	r6, r2, r4
 8001458:	4601      	mov	r1, r0
 800145a:	ea46 7581 	orr.w	r5, r6, r1, lsl #30
 800145e:	3901      	subs	r1, #1
 8001460:	f8c3 5260 	str.w	r5, [r3, #608]	; 0x260
 8001464:	d2f9      	bcs.n	800145a <main+0x3a>
 8001466:	3a20      	subs	r2, #32
 8001468:	f112 0f20 	cmn.w	r2, #32
 800146c:	d1f2      	bne.n	8001454 <main+0x34>
 800146e:	f3bf 8f4f 	dsb	sy
 8001472:	f3bf 8f6f 	isb	sy
 8001476:	f3bf 8f4f 	dsb	sy
 800147a:	f3bf 8f6f 	isb	sy
 800147e:	2100      	movs	r1, #0
 8001480:	f8c3 1250 	str.w	r1, [r3, #592]	; 0x250
 8001484:	f3bf 8f4f 	dsb	sy
 8001488:	f3bf 8f6f 	isb	sy
 800148c:	695a      	ldr	r2, [r3, #20]
 800148e:	f442 3200 	orr.w	r2, r2, #131072	; 0x20000
 8001492:	615a      	str	r2, [r3, #20]
 8001494:	f3bf 8f4f 	dsb	sy
 8001498:	f3bf 8f6f 	isb	sy
 800149c:	f8c3 1084 	str.w	r1, [r3, #132]	; 0x84
 80014a0:	f3bf 8f4f 	dsb	sy
 80014a4:	f8d3 3080 	ldr.w	r3, [r3, #128]	; 0x80
 80014a8:	f643 74e0 	movw	r4, #16352	; 0x3fe0
 80014ac:	4920      	ldr	r1, [pc, #128]	; (8001530 <main+0x110>)
 80014ae:	f3c3 00c9 	ubfx	r0, r3, #3, #10
 80014b2:	f3c3 334e 	ubfx	r3, r3, #13, #15
 80014b6:	015b      	lsls	r3, r3, #5
 80014b8:	ea03 0604 	and.w	r6, r3, r4
 80014bc:	4602      	mov	r2, r0
 80014be:	ea46 7582 	orr.w	r5, r6, r2, lsl #30
 80014c2:	3a01      	subs	r2, #1
 80014c4:	f8c1 5260 	str.w	r5, [r1, #608]	; 0x260
 80014c8:	d2f9      	bcs.n	80014be <main+0x9e>
 80014ca:	3b20      	subs	r3, #32
 80014cc:	f113 0f20 	cmn.w	r3, #32
 80014d0:	d1f2      	bne.n	80014b8 <main+0x98>
 80014d2:	f3bf 8f4f 	dsb	sy
 80014d6:	694b      	ldr	r3, [r1, #20]
 80014d8:	f443 3380 	orr.w	r3, r3, #65536	; 0x10000
 80014dc:	614b      	str	r3, [r1, #20]
 80014de:	f3bf 8f4f 	dsb	sy
 80014e2:	f3bf 8f6f 	isb	sy
 80014e6:	f000 fc45 	bl	8001d74 <HAL_Init>
 80014ea:	f7ff ff43 	bl	8001374 <SystemClock_Config>
 80014ee:	f7ff fa53 	bl	8000998 <MX_GPIO_Init>
 80014f2:	f7ff f961 	bl	80007b8 <MX_DMA_Init>
 80014f6:	f000 fb3d 	bl	8001b74 <MX_USART3_UART_Init>
 80014fa:	f7ff f86f 	bl	80005dc <MX_ADC1_Init>
 80014fe:	f000 fb1b 	bl	8001b38 <MX_USART1_UART_Init>
 8001502:	f7ff fed5 	bl	80012b0 <MX_IWDG_Init>
 8001506:	480b      	ldr	r0, [pc, #44]	; (8001534 <main+0x114>)
 8001508:	f006 fe04 	bl	8008114 <iprintf>
 800150c:	f7ff fee8 	bl	80012e0 <reset_cause_get>
 8001510:	f7ff ff14 	bl	800133c <reset_cause_get_name>
 8001514:	4601      	mov	r1, r0
 8001516:	4808      	ldr	r0, [pc, #32]	; (8001538 <main+0x118>)
 8001518:	f006 fdfc 	bl	8008114 <iprintf>
 800151c:	4807      	ldr	r0, [pc, #28]	; (800153c <main+0x11c>)
 800151e:	f006 fdf9 	bl	8008114 <iprintf>
 8001522:	f003 fbff 	bl	8004d24 <osKernelInitialize>
 8001526:	f7ff fa03 	bl	8000930 <MX_FREERTOS_Init>
 800152a:	f003 fc15 	bl	8004d58 <osKernelStart>
 800152e:	e7fe      	b.n	800152e <main+0x10e>
 8001530:	e000ed00 	.word	0xe000ed00
 8001534:	08009368 	.word	0x08009368
 8001538:	080093b9 	.word	0x080093b9
 800153c:	080093da 	.word	0x080093da

08001540 <_write>:
 8001540:	b5f7      	push	{r0, r1, r2, r4, r5, r6, r7, lr}
 8001542:	4614      	mov	r4, r2
 8001544:	4817      	ldr	r0, [pc, #92]	; (80015a4 <_write+0x64>)
 8001546:	2200      	movs	r2, #0
 8001548:	4e17      	ldr	r6, [pc, #92]	; (80015a8 <_write+0x68>)
 800154a:	4f18      	ldr	r7, [pc, #96]	; (80015ac <_write+0x6c>)
 800154c:	42a2      	cmp	r2, r4
 800154e:	db18      	blt.n	8001582 <_write+0x42>
 8001550:	4b17      	ldr	r3, [pc, #92]	; (80015b0 <_write+0x70>)
 8001552:	781a      	ldrb	r2, [r3, #0]
 8001554:	b992      	cbnz	r2, 800157c <_write+0x3c>
 8001556:	4914      	ldr	r1, [pc, #80]	; (80015a8 <_write+0x68>)
 8001558:	2201      	movs	r2, #1
 800155a:	4814      	ldr	r0, [pc, #80]	; (80015ac <_write+0x6c>)
 800155c:	701a      	strb	r2, [r3, #0]
 800155e:	880b      	ldrh	r3, [r1, #0]
 8001560:	b29b      	uxth	r3, r3
 8001562:	5cc3      	ldrb	r3, [r0, r3]
 8001564:	4813      	ldr	r0, [pc, #76]	; (80015b4 <_write+0x74>)
 8001566:	f88d 3007 	strb.w	r3, [sp, #7]
 800156a:	880b      	ldrh	r3, [r1, #0]
 800156c:	4413      	add	r3, r2
 800156e:	f3c3 0308 	ubfx	r3, r3, #0, #9
 8001572:	800b      	strh	r3, [r1, #0]
 8001574:	f10d 0107 	add.w	r1, sp, #7
 8001578:	f002 ffdc 	bl	8004534 <HAL_UART_Transmit_IT>
 800157c:	4620      	mov	r0, r4
 800157e:	b003      	add	sp, #12
 8001580:	bdf0      	pop	{r4, r5, r6, r7, pc}
 8001582:	8803      	ldrh	r3, [r0, #0]
 8001584:	3301      	adds	r3, #1
 8001586:	f3c3 0308 	ubfx	r3, r3, #0, #9
 800158a:	8835      	ldrh	r5, [r6, #0]
 800158c:	b2ad      	uxth	r5, r5
 800158e:	429d      	cmp	r5, r3
 8001590:	d0fb      	beq.n	800158a <_write+0x4a>
 8001592:	8805      	ldrh	r5, [r0, #0]
 8001594:	f811 c002 	ldrb.w	ip, [r1, r2]
 8001598:	3201      	adds	r2, #1
 800159a:	b2ad      	uxth	r5, r5
 800159c:	8003      	strh	r3, [r0, #0]
 800159e:	f807 c005 	strb.w	ip, [r7, r5]
 80015a2:	e7d3      	b.n	800154c <_write+0xc>
 80015a4:	20000926 	.word	0x20000926
 80015a8:	20000b28 	.word	0x20000b28
 80015ac:	20000928 	.word	0x20000928
 80015b0:	20000924 	.word	0x20000924
 80015b4:	20000cb8 	.word	0x20000cb8

080015b8 <HAL_SPI_MspInit>:
 80015b8:	b530      	push	{r4, r5, lr}
 80015ba:	b089      	sub	sp, #36	; 0x24
 80015bc:	4604      	mov	r4, r0
 80015be:	2214      	movs	r2, #20
 80015c0:	2100      	movs	r1, #0
 80015c2:	a803      	add	r0, sp, #12
 80015c4:	f006 feec 	bl	80083a0 <memset>
 80015c8:	6822      	ldr	r2, [r4, #0]
 80015ca:	4b21      	ldr	r3, [pc, #132]	; (8001650 <HAL_SPI_MspInit+0x98>)
 80015cc:	429a      	cmp	r2, r3
 80015ce:	d13d      	bne.n	800164c <HAL_SPI_MspInit+0x94>
 80015d0:	f503 33fe 	add.w	r3, r3, #130048	; 0x1fc00
 80015d4:	2402      	movs	r4, #2
 80015d6:	2503      	movs	r5, #3
 80015d8:	a903      	add	r1, sp, #12
 80015da:	6c1a      	ldr	r2, [r3, #64]	; 0x40
 80015dc:	481d      	ldr	r0, [pc, #116]	; (8001654 <HAL_SPI_MspInit+0x9c>)
 80015de:	f442 4200 	orr.w	r2, r2, #32768	; 0x8000
 80015e2:	641a      	str	r2, [r3, #64]	; 0x40
 80015e4:	6c1a      	ldr	r2, [r3, #64]	; 0x40
 80015e6:	f402 4200 	and.w	r2, r2, #32768	; 0x8000
 80015ea:	9200      	str	r2, [sp, #0]
 80015ec:	9a00      	ldr	r2, [sp, #0]
 80015ee:	6b1a      	ldr	r2, [r3, #48]	; 0x30
 80015f0:	f042 0202 	orr.w	r2, r2, #2
 80015f4:	631a      	str	r2, [r3, #48]	; 0x30
 80015f6:	6b1a      	ldr	r2, [r3, #48]	; 0x30
 80015f8:	f002 0202 	and.w	r2, r2, #2
 80015fc:	9201      	str	r2, [sp, #4]
 80015fe:	9a01      	ldr	r2, [sp, #4]
 8001600:	6b1a      	ldr	r2, [r3, #48]	; 0x30
 8001602:	f042 0204 	orr.w	r2, r2, #4
 8001606:	631a      	str	r2, [r3, #48]	; 0x30
 8001608:	6b1b      	ldr	r3, [r3, #48]	; 0x30
 800160a:	f003 0304 	and.w	r3, r3, #4
 800160e:	9302      	str	r3, [sp, #8]
 8001610:	9b02      	ldr	r3, [sp, #8]
 8001612:	2304      	movs	r3, #4
 8001614:	e9cd 3403 	strd	r3, r4, [sp, #12]
 8001618:	2307      	movs	r3, #7
 800161a:	e9cd 5306 	strd	r5, r3, [sp, #24]
 800161e:	f001 f88f 	bl	8002740 <HAL_GPIO_Init>
 8001622:	f44f 6340 	mov.w	r3, #3072	; 0xc00
 8001626:	a903      	add	r1, sp, #12
 8001628:	480b      	ldr	r0, [pc, #44]	; (8001658 <HAL_SPI_MspInit+0xa0>)
 800162a:	e9cd 3403 	strd	r3, r4, [sp, #12]
 800162e:	2306      	movs	r3, #6
 8001630:	2400      	movs	r4, #0
 8001632:	9307      	str	r3, [sp, #28]
 8001634:	e9cd 4505 	strd	r4, r5, [sp, #20]
 8001638:	f001 f882 	bl	8002740 <HAL_GPIO_Init>
 800163c:	2033      	movs	r0, #51	; 0x33
 800163e:	4622      	mov	r2, r4
 8001640:	2105      	movs	r1, #5
 8001642:	f000 fe4b 	bl	80022dc <HAL_NVIC_SetPriority>
 8001646:	2033      	movs	r0, #51	; 0x33
 8001648:	f000 fe7a 	bl	8002340 <HAL_NVIC_EnableIRQ>
 800164c:	b009      	add	sp, #36	; 0x24
 800164e:	bd30      	pop	{r4, r5, pc}
 8001650:	40003c00 	.word	0x40003c00
 8001654:	40020400 	.word	0x40020400
 8001658:	40020800 	.word	0x40020800

0800165c <HAL_SPI_MspDeInit>:
 800165c:	6802      	ldr	r2, [r0, #0]
 800165e:	b508      	push	{r3, lr}
 8001660:	4b0b      	ldr	r3, [pc, #44]	; (8001690 <HAL_SPI_MspDeInit+0x34>)
 8001662:	429a      	cmp	r2, r3
 8001664:	d112      	bne.n	800168c <HAL_SPI_MspDeInit+0x30>
 8001666:	4a0b      	ldr	r2, [pc, #44]	; (8001694 <HAL_SPI_MspDeInit+0x38>)
 8001668:	2104      	movs	r1, #4
 800166a:	480b      	ldr	r0, [pc, #44]	; (8001698 <HAL_SPI_MspDeInit+0x3c>)
 800166c:	6c13      	ldr	r3, [r2, #64]	; 0x40
 800166e:	f423 4300 	bic.w	r3, r3, #32768	; 0x8000
 8001672:	6413      	str	r3, [r2, #64]	; 0x40
 8001674:	f001 f946 	bl	8002904 <HAL_GPIO_DeInit>
 8001678:	4808      	ldr	r0, [pc, #32]	; (800169c <HAL_SPI_MspDeInit+0x40>)
 800167a:	f44f 6140 	mov.w	r1, #3072	; 0xc00
 800167e:	f001 f941 	bl	8002904 <HAL_GPIO_DeInit>
 8001682:	2033      	movs	r0, #51	; 0x33
 8001684:	e8bd 4008 	ldmia.w	sp!, {r3, lr}
 8001688:	f000 be68 	b.w	800235c <HAL_NVIC_DisableIRQ>
 800168c:	bd08      	pop	{r3, pc}
 800168e:	bf00      	nop
 8001690:	40003c00 	.word	0x40003c00
 8001694:	40023800 	.word	0x40023800
 8001698:	40020400 	.word	0x40020400
 800169c:	40020800 	.word	0x40020800

080016a0 <imu_hal_init_spi>:
 80016a0:	4b2e      	ldr	r3, [pc, #184]	; (800175c <imu_hal_init_spi+0xbc>)
 80016a2:	482f      	ldr	r0, [pc, #188]	; (8001760 <imu_hal_init_spi+0xc0>)
 80016a4:	6c1a      	ldr	r2, [r3, #64]	; 0x40
 80016a6:	f442 4280 	orr.w	r2, r2, #16384	; 0x4000
 80016aa:	b5f0      	push	{r4, r5, r6, r7, lr}
 80016ac:	641a      	str	r2, [r3, #64]	; 0x40
 80016ae:	b089      	sub	sp, #36	; 0x24
 80016b0:	6c1a      	ldr	r2, [r3, #64]	; 0x40
 80016b2:	2400      	movs	r4, #0
 80016b4:	2502      	movs	r5, #2
 80016b6:	2703      	movs	r7, #3
 80016b8:	f402 4280 	and.w	r2, r2, #16384	; 0x4000
 80016bc:	2605      	movs	r6, #5
 80016be:	a903      	add	r1, sp, #12
 80016c0:	9200      	str	r2, [sp, #0]
 80016c2:	9a00      	ldr	r2, [sp, #0]
 80016c4:	6b1a      	ldr	r2, [r3, #48]	; 0x30
 80016c6:	f042 0204 	orr.w	r2, r2, #4
 80016ca:	631a      	str	r2, [r3, #48]	; 0x30
 80016cc:	6b1a      	ldr	r2, [r3, #48]	; 0x30
 80016ce:	f002 0204 	and.w	r2, r2, #4
 80016d2:	9201      	str	r2, [sp, #4]
 80016d4:	9a01      	ldr	r2, [sp, #4]
 80016d6:	6b1a      	ldr	r2, [r3, #48]	; 0x30
 80016d8:	f042 0202 	orr.w	r2, r2, #2
 80016dc:	631a      	str	r2, [r3, #48]	; 0x30
 80016de:	6b1b      	ldr	r3, [r3, #48]	; 0x30
 80016e0:	9607      	str	r6, [sp, #28]
 80016e2:	f003 0302 	and.w	r3, r3, #2
 80016e6:	9302      	str	r3, [sp, #8]
 80016e8:	9b02      	ldr	r3, [sp, #8]
 80016ea:	f640 0304 	movw	r3, #2052	; 0x804
 80016ee:	e9cd 4705 	strd	r4, r7, [sp, #20]
 80016f2:	e9cd 3503 	strd	r3, r5, [sp, #12]
 80016f6:	f001 f823 	bl	8002740 <HAL_GPIO_Init>
 80016fa:	f44f 6380 	mov.w	r3, #1024	; 0x400
 80016fe:	a903      	add	r1, sp, #12
 8001700:	4817      	ldr	r0, [pc, #92]	; (8001760 <imu_hal_init_spi+0xc0>)
 8001702:	9607      	str	r6, [sp, #28]
 8001704:	e9cd 3503 	strd	r3, r5, [sp, #12]
 8001708:	e9cd 4705 	strd	r4, r7, [sp, #20]
 800170c:	f001 f818 	bl	8002740 <HAL_GPIO_Init>
 8001710:	4814      	ldr	r0, [pc, #80]	; (8001764 <imu_hal_init_spi+0xc4>)
 8001712:	f44f 7382 	mov.w	r3, #260	; 0x104
 8001716:	4a14      	ldr	r2, [pc, #80]	; (8001768 <imu_hal_init_spi+0xc8>)
 8001718:	2101      	movs	r1, #1
 800171a:	6084      	str	r4, [r0, #8]
 800171c:	6344      	str	r4, [r0, #52]	; 0x34
 800171e:	e9c0 2300 	strd	r2, r3, [r0]
 8001722:	f44f 63e0 	mov.w	r3, #1792	; 0x700
 8001726:	e9c0 3503 	strd	r3, r5, [r0, #12]
 800172a:	f44f 7300 	mov.w	r3, #512	; 0x200
 800172e:	e9c0 1305 	strd	r1, r3, [r0, #20]
 8001732:	2320      	movs	r3, #32
 8001734:	e9c0 3407 	strd	r3, r4, [r0, #28]
 8001738:	2307      	movs	r3, #7
 800173a:	e9c0 4409 	strd	r4, r4, [r0, #36]	; 0x24
 800173e:	e9c0 340b 	strd	r3, r4, [r0, #44]	; 0x2c
 8001742:	f002 f881 	bl	8003848 <HAL_SPI_Init>
 8001746:	b108      	cbz	r0, 800174c <imu_hal_init_spi+0xac>
 8001748:	f7ff fe0e 	bl	8001368 <Error_Handler>
 800174c:	2200      	movs	r2, #0
 800174e:	2105      	movs	r1, #5
 8001750:	2033      	movs	r0, #51	; 0x33
 8001752:	f000 fdc3 	bl	80022dc <HAL_NVIC_SetPriority>
 8001756:	b009      	add	sp, #36	; 0x24
 8001758:	bdf0      	pop	{r4, r5, r6, r7, pc}
 800175a:	bf00      	nop
 800175c:	40023800 	.word	0x40023800
 8001760:	40020800 	.word	0x40020800
 8001764:	20000b2c 	.word	0x20000b2c
 8001768:	40003c00 	.word	0x40003c00

0800176c <HAL_SPI_TxRxCpltCallback>:
 800176c:	6802      	ldr	r2, [r0, #0]
 800176e:	4b05      	ldr	r3, [pc, #20]	; (8001784 <HAL_SPI_TxRxCpltCallback+0x18>)
 8001770:	429a      	cmp	r2, r3
 8001772:	d105      	bne.n	8001780 <HAL_SPI_TxRxCpltCallback+0x14>
 8001774:	4b04      	ldr	r3, [pc, #16]	; (8001788 <HAL_SPI_TxRxCpltCallback+0x1c>)
 8001776:	781b      	ldrb	r3, [r3, #0]
 8001778:	07db      	lsls	r3, r3, #31
 800177a:	d501      	bpl.n	8001780 <HAL_SPI_TxRxCpltCallback+0x14>
 800177c:	f7ff bc9a 	b.w	80010b4 <imu_spi_completed>
 8001780:	4770      	bx	lr
 8001782:	bf00      	nop
 8001784:	40003c00 	.word	0x40003c00
 8001788:	2000036c 	.word	0x2000036c

0800178c <HAL_MspInit>:
 800178c:	4b0d      	ldr	r3, [pc, #52]	; (80017c4 <HAL_MspInit+0x38>)
 800178e:	b082      	sub	sp, #8
 8001790:	210f      	movs	r1, #15
 8001792:	f06f 0001 	mvn.w	r0, #1
 8001796:	6c1a      	ldr	r2, [r3, #64]	; 0x40
 8001798:	f042 5280 	orr.w	r2, r2, #268435456	; 0x10000000
 800179c:	641a      	str	r2, [r3, #64]	; 0x40
 800179e:	6c1a      	ldr	r2, [r3, #64]	; 0x40
 80017a0:	f002 5280 	and.w	r2, r2, #268435456	; 0x10000000
 80017a4:	9200      	str	r2, [sp, #0]
 80017a6:	9a00      	ldr	r2, [sp, #0]
 80017a8:	6c5a      	ldr	r2, [r3, #68]	; 0x44
 80017aa:	f442 4280 	orr.w	r2, r2, #16384	; 0x4000
 80017ae:	645a      	str	r2, [r3, #68]	; 0x44
 80017b0:	2200      	movs	r2, #0
 80017b2:	6c5b      	ldr	r3, [r3, #68]	; 0x44
 80017b4:	f403 4380 	and.w	r3, r3, #16384	; 0x4000
 80017b8:	9301      	str	r3, [sp, #4]
 80017ba:	9b01      	ldr	r3, [sp, #4]
 80017bc:	b002      	add	sp, #8
 80017be:	f000 bd8d 	b.w	80022dc <HAL_NVIC_SetPriority>
 80017c2:	bf00      	nop
 80017c4:	40023800 	.word	0x40023800

080017c8 <HAL_InitTick>:
 80017c8:	4b21      	ldr	r3, [pc, #132]	; (8001850 <HAL_InitTick+0x88>)
 80017ca:	6c1a      	ldr	r2, [r3, #64]	; 0x40
 80017cc:	f042 0210 	orr.w	r2, r2, #16
 80017d0:	b570      	push	{r4, r5, r6, lr}
 80017d2:	641a      	str	r2, [r3, #64]	; 0x40
 80017d4:	b088      	sub	sp, #32
 80017d6:	6c1b      	ldr	r3, [r3, #64]	; 0x40
 80017d8:	4605      	mov	r5, r0
 80017da:	a901      	add	r1, sp, #4
 80017dc:	a803      	add	r0, sp, #12
 80017de:	f003 0310 	and.w	r3, r3, #16
 80017e2:	9302      	str	r3, [sp, #8]
 80017e4:	9b02      	ldr	r3, [sp, #8]
 80017e6:	f001 fc6b 	bl	80030c0 <HAL_RCC_GetClockConfig>
 80017ea:	9b06      	ldr	r3, [sp, #24]
 80017ec:	bb4b      	cbnz	r3, 8001842 <HAL_InitTick+0x7a>
 80017ee:	f001 fc47 	bl	8003080 <HAL_RCC_GetPCLK1Freq>
 80017f2:	4e18      	ldr	r6, [pc, #96]	; (8001854 <HAL_InitTick+0x8c>)
 80017f4:	4b18      	ldr	r3, [pc, #96]	; (8001858 <HAL_InitTick+0x90>)
 80017f6:	6033      	str	r3, [r6, #0]
 80017f8:	f240 33e7 	movw	r3, #999	; 0x3e7
 80017fc:	60f3      	str	r3, [r6, #12]
 80017fe:	4b17      	ldr	r3, [pc, #92]	; (800185c <HAL_InitTick+0x94>)
 8001800:	fbb0 f3f3 	udiv	r3, r0, r3
 8001804:	3b01      	subs	r3, #1
 8001806:	4630      	mov	r0, r6
 8001808:	6073      	str	r3, [r6, #4]
 800180a:	2300      	movs	r3, #0
 800180c:	6133      	str	r3, [r6, #16]
 800180e:	60b3      	str	r3, [r6, #8]
 8001810:	61b3      	str	r3, [r6, #24]
 8001812:	f002 fd01 	bl	8004218 <HAL_TIM_Base_Init>
 8001816:	4604      	mov	r4, r0
 8001818:	b980      	cbnz	r0, 800183c <HAL_InitTick+0x74>
 800181a:	4630      	mov	r0, r6
 800181c:	f002 fbb0 	bl	8003f80 <HAL_TIM_Base_Start_IT>
 8001820:	4604      	mov	r4, r0
 8001822:	b958      	cbnz	r0, 800183c <HAL_InitTick+0x74>
 8001824:	2036      	movs	r0, #54	; 0x36
 8001826:	f000 fd8b 	bl	8002340 <HAL_NVIC_EnableIRQ>
 800182a:	2d0f      	cmp	r5, #15
 800182c:	d80d      	bhi.n	800184a <HAL_InitTick+0x82>
 800182e:	4622      	mov	r2, r4
 8001830:	4629      	mov	r1, r5
 8001832:	2036      	movs	r0, #54	; 0x36
 8001834:	f000 fd52 	bl	80022dc <HAL_NVIC_SetPriority>
 8001838:	4b09      	ldr	r3, [pc, #36]	; (8001860 <HAL_InitTick+0x98>)
 800183a:	601d      	str	r5, [r3, #0]
 800183c:	4620      	mov	r0, r4
 800183e:	b008      	add	sp, #32
 8001840:	bd70      	pop	{r4, r5, r6, pc}
 8001842:	f001 fc1d 	bl	8003080 <HAL_RCC_GetPCLK1Freq>
 8001846:	0040      	lsls	r0, r0, #1
 8001848:	e7d3      	b.n	80017f2 <HAL_InitTick+0x2a>
 800184a:	2401      	movs	r4, #1
 800184c:	e7f6      	b.n	800183c <HAL_InitTick+0x74>
 800184e:	bf00      	nop
 8001850:	40023800 	.word	0x40023800
 8001854:	20000b90 	.word	0x20000b90
 8001858:	40001000 	.word	0x40001000
 800185c:	000f4240 	.word	0x000f4240
 8001860:	200000e8 	.word	0x200000e8

08001864 <NMI_Handler>:
 8001864:	e7fe      	b.n	8001864 <NMI_Handler>
	...

08001868 <HardFault_Handler>:
 8001868:	b508      	push	{r3, lr}
 800186a:	4b0a      	ldr	r3, [pc, #40]	; (8001894 <HardFault_Handler+0x2c>)
 800186c:	6ada      	ldr	r2, [r3, #44]	; 0x2c
 800186e:	0791      	lsls	r1, r2, #30
 8001870:	d505      	bpl.n	800187e <HardFault_Handler+0x16>
 8001872:	4909      	ldr	r1, [pc, #36]	; (8001898 <HardFault_Handler+0x30>)
 8001874:	880b      	ldrh	r3, [r1, #0]
 8001876:	b29b      	uxth	r3, r3
 8001878:	f043 0301 	orr.w	r3, r3, #1
 800187c:	800b      	strh	r3, [r1, #0]
 800187e:	0053      	lsls	r3, r2, #1
 8001880:	d505      	bpl.n	800188e <HardFault_Handler+0x26>
 8001882:	4a05      	ldr	r2, [pc, #20]	; (8001898 <HardFault_Handler+0x30>)
 8001884:	8813      	ldrh	r3, [r2, #0]
 8001886:	b29b      	uxth	r3, r3
 8001888:	f043 0302 	orr.w	r3, r3, #2
 800188c:	8013      	strh	r3, [r2, #0]
 800188e:	f7fe ffab 	bl	80007e8 <RoboSoccer_errorHandler>
 8001892:	e7fe      	b.n	8001892 <HardFault_Handler+0x2a>
 8001894:	e000ed00 	.word	0xe000ed00
 8001898:	20000bdc 	.word	0x20000bdc

0800189c <MemManage_Handler>:
 800189c:	b508      	push	{r3, lr}
 800189e:	4b0e      	ldr	r3, [pc, #56]	; (80018d8 <MemManage_Handler+0x3c>)
 80018a0:	6a9a      	ldr	r2, [r3, #40]	; 0x28
 80018a2:	6a98      	ldr	r0, [r3, #40]	; 0x28
 80018a4:	07d1      	lsls	r1, r2, #31
 80018a6:	d505      	bpl.n	80018b4 <MemManage_Handler+0x18>
 80018a8:	490c      	ldr	r1, [pc, #48]	; (80018dc <MemManage_Handler+0x40>)
 80018aa:	880b      	ldrh	r3, [r1, #0]
 80018ac:	b29b      	uxth	r3, r3
 80018ae:	f043 0304 	orr.w	r3, r3, #4
 80018b2:	800b      	strh	r3, [r1, #0]
 80018b4:	0792      	lsls	r2, r2, #30
 80018b6:	d505      	bpl.n	80018c4 <MemManage_Handler+0x28>
 80018b8:	4a08      	ldr	r2, [pc, #32]	; (80018dc <MemManage_Handler+0x40>)
 80018ba:	8813      	ldrh	r3, [r2, #0]
 80018bc:	b29b      	uxth	r3, r3
 80018be:	f043 0308 	orr.w	r3, r3, #8
 80018c2:	8013      	strh	r3, [r2, #0]
 80018c4:	0603      	lsls	r3, r0, #24
 80018c6:	d503      	bpl.n	80018d0 <MemManage_Handler+0x34>
 80018c8:	4b03      	ldr	r3, [pc, #12]	; (80018d8 <MemManage_Handler+0x3c>)
 80018ca:	6b5a      	ldr	r2, [r3, #52]	; 0x34
 80018cc:	4b04      	ldr	r3, [pc, #16]	; (80018e0 <MemManage_Handler+0x44>)
 80018ce:	601a      	str	r2, [r3, #0]
 80018d0:	f7fe ff8a 	bl	80007e8 <RoboSoccer_errorHandler>
 80018d4:	e7fe      	b.n	80018d4 <MemManage_Handler+0x38>
 80018d6:	bf00      	nop
 80018d8:	e000ed00 	.word	0xe000ed00
 80018dc:	20000bdc 	.word	0x20000bdc
 80018e0:	200000dc 	.word	0x200000dc

080018e4 <BusFault_Handler>:
 80018e4:	b508      	push	{r3, lr}
 80018e6:	4b11      	ldr	r3, [pc, #68]	; (800192c <BusFault_Handler+0x48>)
 80018e8:	6a9a      	ldr	r2, [r3, #40]	; 0x28
 80018ea:	05d3      	lsls	r3, r2, #23
 80018ec:	d505      	bpl.n	80018fa <BusFault_Handler+0x16>
 80018ee:	4910      	ldr	r1, [pc, #64]	; (8001930 <BusFault_Handler+0x4c>)
 80018f0:	880b      	ldrh	r3, [r1, #0]
 80018f2:	b29b      	uxth	r3, r3
 80018f4:	f043 0310 	orr.w	r3, r3, #16
 80018f8:	800b      	strh	r3, [r1, #0]
 80018fa:	0590      	lsls	r0, r2, #22
 80018fc:	d505      	bpl.n	800190a <BusFault_Handler+0x26>
 80018fe:	490c      	ldr	r1, [pc, #48]	; (8001930 <BusFault_Handler+0x4c>)
 8001900:	880b      	ldrh	r3, [r1, #0]
 8001902:	b29b      	uxth	r3, r3
 8001904:	f043 0320 	orr.w	r3, r3, #32
 8001908:	800b      	strh	r3, [r1, #0]
 800190a:	0551      	lsls	r1, r2, #21
 800190c:	d505      	bpl.n	800191a <BusFault_Handler+0x36>
 800190e:	4908      	ldr	r1, [pc, #32]	; (8001930 <BusFault_Handler+0x4c>)
 8001910:	880b      	ldrh	r3, [r1, #0]
 8001912:	b29b      	uxth	r3, r3
 8001914:	f043 0340 	orr.w	r3, r3, #64	; 0x40
 8001918:	800b      	strh	r3, [r1, #0]
 800191a:	0413      	lsls	r3, r2, #16
 800191c:	d503      	bpl.n	8001926 <BusFault_Handler+0x42>
 800191e:	4b03      	ldr	r3, [pc, #12]	; (800192c <BusFault_Handler+0x48>)
 8001920:	6b9a      	ldr	r2, [r3, #56]	; 0x38
 8001922:	4b04      	ldr	r3, [pc, #16]	; (8001934 <BusFault_Handler+0x50>)
 8001924:	601a      	str	r2, [r3, #0]
 8001926:	f7fe ff5f 	bl	80007e8 <RoboSoccer_errorHandler>
 800192a:	e7fe      	b.n	800192a <BusFault_Handler+0x46>
 800192c:	e000ed00 	.word	0xe000ed00
 8001930:	20000bdc 	.word	0x20000bdc
 8001934:	200000d8 	.word	0x200000d8

08001938 <UsageFault_Handler>:
 8001938:	b508      	push	{r3, lr}
 800193a:	4b1a      	ldr	r3, [pc, #104]	; (80019a4 <UsageFault_Handler+0x6c>)
 800193c:	6a9b      	ldr	r3, [r3, #40]	; 0x28
 800193e:	03d9      	lsls	r1, r3, #15
 8001940:	d505      	bpl.n	800194e <UsageFault_Handler+0x16>
 8001942:	4919      	ldr	r1, [pc, #100]	; (80019a8 <UsageFault_Handler+0x70>)
 8001944:	880a      	ldrh	r2, [r1, #0]
 8001946:	b292      	uxth	r2, r2
 8001948:	f042 0280 	orr.w	r2, r2, #128	; 0x80
 800194c:	800a      	strh	r2, [r1, #0]
 800194e:	039a      	lsls	r2, r3, #14
 8001950:	d505      	bpl.n	800195e <UsageFault_Handler+0x26>
 8001952:	4915      	ldr	r1, [pc, #84]	; (80019a8 <UsageFault_Handler+0x70>)
 8001954:	880a      	ldrh	r2, [r1, #0]
 8001956:	b292      	uxth	r2, r2
 8001958:	f442 7280 	orr.w	r2, r2, #256	; 0x100
 800195c:	800a      	strh	r2, [r1, #0]
 800195e:	0358      	lsls	r0, r3, #13
 8001960:	d505      	bpl.n	800196e <UsageFault_Handler+0x36>
 8001962:	4911      	ldr	r1, [pc, #68]	; (80019a8 <UsageFault_Handler+0x70>)
 8001964:	880a      	ldrh	r2, [r1, #0]
 8001966:	b292      	uxth	r2, r2
 8001968:	f442 7200 	orr.w	r2, r2, #512	; 0x200
 800196c:	800a      	strh	r2, [r1, #0]
 800196e:	0319      	lsls	r1, r3, #12
 8001970:	d505      	bpl.n	800197e <UsageFault_Handler+0x46>
 8001972:	490d      	ldr	r1, [pc, #52]	; (80019a8 <UsageFault_Handler+0x70>)
 8001974:	880a      	ldrh	r2, [r1, #0]
 8001976:	b292      	uxth	r2, r2
 8001978:	f442 6280 	orr.w	r2, r2, #1024	; 0x400
 800197c:	800a      	strh	r2, [r1, #0]
 800197e:	01da      	lsls	r2, r3, #7
 8001980:	d505      	bpl.n	800198e <UsageFault_Handler+0x56>
 8001982:	4909      	ldr	r1, [pc, #36]	; (80019a8 <UsageFault_Handler+0x70>)
 8001984:	880a      	ldrh	r2, [r1, #0]
 8001986:	b292      	uxth	r2, r2
 8001988:	f442 6200 	orr.w	r2, r2, #2048	; 0x800
 800198c:	800a      	strh	r2, [r1, #0]
 800198e:	019b      	lsls	r3, r3, #6
 8001990:	d505      	bpl.n	800199e <UsageFault_Handler+0x66>
 8001992:	4a05      	ldr	r2, [pc, #20]	; (80019a8 <UsageFault_Handler+0x70>)
 8001994:	8813      	ldrh	r3, [r2, #0]
 8001996:	b29b      	uxth	r3, r3
 8001998:	f443 5380 	orr.w	r3, r3, #4096	; 0x1000
 800199c:	8013      	strh	r3, [r2, #0]
 800199e:	f7fe ff23 	bl	80007e8 <RoboSoccer_errorHandler>
 80019a2:	e7fe      	b.n	80019a2 <UsageFault_Handler+0x6a>
 80019a4:	e000ed00 	.word	0xe000ed00
 80019a8:	20000bdc 	.word	0x20000bdc

080019ac <DebugMon_Handler>:
 80019ac:	4770      	bx	lr

080019ae <EXTI0_IRQHandler>:
 80019ae:	2001      	movs	r0, #1
 80019b0:	f001 b856 	b.w	8002a60 <HAL_GPIO_EXTI_IRQHandler>

080019b4 <USART1_IRQHandler>:
 80019b4:	4801      	ldr	r0, [pc, #4]	; (80019bc <USART1_IRQHandler+0x8>)
 80019b6:	f002 bdf9 	b.w	80045ac <HAL_UART_IRQHandler>
 80019ba:	bf00      	nop
 80019bc:	20000c30 	.word	0x20000c30

080019c0 <USART3_IRQHandler>:
 80019c0:	4801      	ldr	r0, [pc, #4]	; (80019c8 <USART3_IRQHandler+0x8>)
 80019c2:	f002 bdf3 	b.w	80045ac <HAL_UART_IRQHandler>
 80019c6:	bf00      	nop
 80019c8:	20000cb8 	.word	0x20000cb8

080019cc <SPI3_IRQHandler>:
 80019cc:	4801      	ldr	r0, [pc, #4]	; (80019d4 <SPI3_IRQHandler+0x8>)
 80019ce:	f002 ba17 	b.w	8003e00 <HAL_SPI_IRQHandler>
 80019d2:	bf00      	nop
 80019d4:	20000b2c 	.word	0x20000b2c

080019d8 <TIM6_DAC_IRQHandler>:
 80019d8:	4801      	ldr	r0, [pc, #4]	; (80019e0 <TIM6_DAC_IRQHandler+0x8>)
 80019da:	f002 bb13 	b.w	8004004 <HAL_TIM_IRQHandler>
 80019de:	bf00      	nop
 80019e0:	20000b90 	.word	0x20000b90

080019e4 <DMA2_Stream0_IRQHandler>:
 80019e4:	4801      	ldr	r0, [pc, #4]	; (80019ec <DMA2_Stream0_IRQHandler+0x8>)
 80019e6:	f000 bded 	b.w	80025c4 <HAL_DMA_IRQHandler>
 80019ea:	bf00      	nop
 80019ec:	200001c4 	.word	0x200001c4

080019f0 <_read>:
 80019f0:	b570      	push	{r4, r5, r6, lr}
 80019f2:	460d      	mov	r5, r1
 80019f4:	4614      	mov	r4, r2
 80019f6:	460e      	mov	r6, r1
 80019f8:	1b73      	subs	r3, r6, r5
 80019fa:	429c      	cmp	r4, r3
 80019fc:	dc01      	bgt.n	8001a02 <_read+0x12>
 80019fe:	4620      	mov	r0, r4
 8001a00:	bd70      	pop	{r4, r5, r6, pc}
 8001a02:	f3af 8000 	nop.w
 8001a06:	f806 0b01 	strb.w	r0, [r6], #1
 8001a0a:	e7f5      	b.n	80019f8 <_read+0x8>

08001a0c <_close>:
 8001a0c:	f04f 30ff 	mov.w	r0, #4294967295
 8001a10:	4770      	bx	lr

08001a12 <_fstat>:
 8001a12:	f44f 5300 	mov.w	r3, #8192	; 0x2000
 8001a16:	2000      	movs	r0, #0
 8001a18:	604b      	str	r3, [r1, #4]
 8001a1a:	4770      	bx	lr

08001a1c <_isatty>:
 8001a1c:	2001      	movs	r0, #1
 8001a1e:	4770      	bx	lr

08001a20 <_lseek>:
 8001a20:	2000      	movs	r0, #0
 8001a22:	4770      	bx	lr

08001a24 <_sbrk>:
 8001a24:	4a0b      	ldr	r2, [pc, #44]	; (8001a54 <_sbrk+0x30>)
 8001a26:	4603      	mov	r3, r0
 8001a28:	6811      	ldr	r1, [r2, #0]
 8001a2a:	b510      	push	{r4, lr}
 8001a2c:	b909      	cbnz	r1, 8001a32 <_sbrk+0xe>
 8001a2e:	490a      	ldr	r1, [pc, #40]	; (8001a58 <_sbrk+0x34>)
 8001a30:	6011      	str	r1, [r2, #0]
 8001a32:	6810      	ldr	r0, [r2, #0]
 8001a34:	4909      	ldr	r1, [pc, #36]	; (8001a5c <_sbrk+0x38>)
 8001a36:	4c0a      	ldr	r4, [pc, #40]	; (8001a60 <_sbrk+0x3c>)
 8001a38:	4403      	add	r3, r0
 8001a3a:	1b09      	subs	r1, r1, r4
 8001a3c:	428b      	cmp	r3, r1
 8001a3e:	d906      	bls.n	8001a4e <_sbrk+0x2a>
 8001a40:	f006 fd52 	bl	80084e8 <__errno>
 8001a44:	230c      	movs	r3, #12
 8001a46:	6003      	str	r3, [r0, #0]
 8001a48:	f04f 30ff 	mov.w	r0, #4294967295
 8001a4c:	bd10      	pop	{r4, pc}
 8001a4e:	6013      	str	r3, [r2, #0]
 8001a50:	e7fc      	b.n	8001a4c <_sbrk+0x28>
 8001a52:	bf00      	nop
 8001a54:	20000be0 	.word	0x20000be0
 8001a58:	20006338 	.word	0x20006338
 8001a5c:	20080000 	.word	0x20080000
 8001a60:	00000400 	.word	0x00000400

08001a64 <SystemInit>:
 8001a64:	4a03      	ldr	r2, [pc, #12]	; (8001a74 <SystemInit+0x10>)
 8001a66:	f8d2 3088 	ldr.w	r3, [r2, #136]	; 0x88
 8001a6a:	f443 0370 	orr.w	r3, r3, #15728640	; 0xf00000
 8001a6e:	f8c2 3088 	str.w	r3, [r2, #136]	; 0x88
 8001a72:	4770      	bx	lr
 8001a74:	e000ed00 	.word	0xe000ed00

08001a78 <HAL_TIM_Base_MspInit>:
 8001a78:	6803      	ldr	r3, [r0, #0]
 8001a7a:	b082      	sub	sp, #8
 8001a7c:	f1b3 4f80 	cmp.w	r3, #1073741824	; 0x40000000
 8001a80:	d10a      	bne.n	8001a98 <HAL_TIM_Base_MspInit+0x20>
 8001a82:	f503 330e 	add.w	r3, r3, #145408	; 0x23800
 8001a86:	6c1a      	ldr	r2, [r3, #64]	; 0x40
 8001a88:	f042 0201 	orr.w	r2, r2, #1
 8001a8c:	641a      	str	r2, [r3, #64]	; 0x40
 8001a8e:	6c1b      	ldr	r3, [r3, #64]	; 0x40
 8001a90:	f003 0301 	and.w	r3, r3, #1
 8001a94:	9301      	str	r3, [sp, #4]
 8001a96:	9b01      	ldr	r3, [sp, #4]
 8001a98:	b002      	add	sp, #8
 8001a9a:	4770      	bx	lr

08001a9c <imu_hal_init_timer>:
 8001a9c:	4b23      	ldr	r3, [pc, #140]	; (8001b2c <imu_hal_init_timer+0x90>)
 8001a9e:	2100      	movs	r1, #0
 8001aa0:	6c1a      	ldr	r2, [r3, #64]	; 0x40
 8001aa2:	f042 0201 	orr.w	r2, r2, #1
 8001aa6:	b530      	push	{r4, r5, lr}
 8001aa8:	641a      	str	r2, [r3, #64]	; 0x40
 8001aaa:	b089      	sub	sp, #36	; 0x24
 8001aac:	6c1b      	ldr	r3, [r3, #64]	; 0x40
 8001aae:	2210      	movs	r2, #16
 8001ab0:	2500      	movs	r5, #0
 8001ab2:	4c1f      	ldr	r4, [pc, #124]	; (8001b30 <imu_hal_init_timer+0x94>)
 8001ab4:	f003 0301 	and.w	r3, r3, #1
 8001ab8:	eb0d 0002 	add.w	r0, sp, r2
 8001abc:	9300      	str	r3, [sp, #0]
 8001abe:	9b00      	ldr	r3, [sp, #0]
 8001ac0:	f006 fc6e 	bl	80083a0 <memset>
 8001ac4:	f04f 4380 	mov.w	r3, #1073741824	; 0x40000000
 8001ac8:	9503      	str	r5, [sp, #12]
 8001aca:	6023      	str	r3, [r4, #0]
 8001acc:	e9cd 5501 	strd	r5, r5, [sp, #4]
 8001ad0:	f001 fad6 	bl	8003080 <HAL_RCC_GetPCLK1Freq>
 8001ad4:	4b17      	ldr	r3, [pc, #92]	; (8001b34 <imu_hal_init_timer+0x98>)
 8001ad6:	0040      	lsls	r0, r0, #1
 8001ad8:	61a5      	str	r5, [r4, #24]
 8001ada:	fbb0 f0f3 	udiv	r0, r0, r3
 8001ade:	3801      	subs	r0, #1
 8001ae0:	f04f 33ff 	mov.w	r3, #4294967295
 8001ae4:	e9c4 0501 	strd	r0, r5, [r4, #4]
 8001ae8:	4620      	mov	r0, r4
 8001aea:	e9c4 3503 	strd	r3, r5, [r4, #12]
 8001aee:	f002 fb93 	bl	8004218 <HAL_TIM_Base_Init>
 8001af2:	b108      	cbz	r0, 8001af8 <imu_hal_init_timer+0x5c>
 8001af4:	f7ff fc38 	bl	8001368 <Error_Handler>
 8001af8:	f44f 5380 	mov.w	r3, #4096	; 0x1000
 8001afc:	a904      	add	r1, sp, #16
 8001afe:	480c      	ldr	r0, [pc, #48]	; (8001b30 <imu_hal_init_timer+0x94>)
 8001b00:	9304      	str	r3, [sp, #16]
 8001b02:	f002 fbc3 	bl	800428c <HAL_TIM_ConfigClockSource>
 8001b06:	b108      	cbz	r0, 8001b0c <imu_hal_init_timer+0x70>
 8001b08:	f7ff fc2e 	bl	8001368 <Error_Handler>
 8001b0c:	2300      	movs	r3, #0
 8001b0e:	a901      	add	r1, sp, #4
 8001b10:	4807      	ldr	r0, [pc, #28]	; (8001b30 <imu_hal_init_timer+0x94>)
 8001b12:	9301      	str	r3, [sp, #4]
 8001b14:	9303      	str	r3, [sp, #12]
 8001b16:	f002 fc53 	bl	80043c0 <HAL_TIMEx_MasterConfigSynchronization>
 8001b1a:	b108      	cbz	r0, 8001b20 <imu_hal_init_timer+0x84>
 8001b1c:	f7ff fc24 	bl	8001368 <Error_Handler>
 8001b20:	4803      	ldr	r0, [pc, #12]	; (8001b30 <imu_hal_init_timer+0x94>)
 8001b22:	f002 f9f3 	bl	8003f0c <HAL_TIM_Base_Start>
 8001b26:	b009      	add	sp, #36	; 0x24
 8001b28:	bd30      	pop	{r4, r5, pc}
 8001b2a:	bf00      	nop
 8001b2c:	40023800 	.word	0x40023800
 8001b30:	20000be4 	.word	0x20000be4
 8001b34:	000f4240 	.word	0x000f4240

08001b38 <MX_USART1_UART_Init>:
 8001b38:	b508      	push	{r3, lr}
 8001b3a:	480b      	ldr	r0, [pc, #44]	; (8001b68 <MX_USART1_UART_Init+0x30>)
 8001b3c:	4a0b      	ldr	r2, [pc, #44]	; (8001b6c <MX_USART1_UART_Init+0x34>)
 8001b3e:	4b0c      	ldr	r3, [pc, #48]	; (8001b70 <MX_USART1_UART_Init+0x38>)
 8001b40:	e9c0 2300 	strd	r2, r3, [r0]
 8001b44:	2300      	movs	r3, #0
 8001b46:	220c      	movs	r2, #12
 8001b48:	e9c0 3302 	strd	r3, r3, [r0, #8]
 8001b4c:	6103      	str	r3, [r0, #16]
 8001b4e:	6243      	str	r3, [r0, #36]	; 0x24
 8001b50:	e9c0 2305 	strd	r2, r3, [r0, #20]
 8001b54:	e9c0 3307 	strd	r3, r3, [r0, #28]
 8001b58:	f003 f8b5 	bl	8004cc6 <HAL_UART_Init>
 8001b5c:	b118      	cbz	r0, 8001b66 <MX_USART1_UART_Init+0x2e>
 8001b5e:	e8bd 4008 	ldmia.w	sp!, {r3, lr}
 8001b62:	f7ff bc01 	b.w	8001368 <Error_Handler>
 8001b66:	bd08      	pop	{r3, pc}
 8001b68:	20000c30 	.word	0x20000c30
 8001b6c:	40011000 	.word	0x40011000
 8001b70:	000f4240 	.word	0x000f4240

08001b74 <MX_USART3_UART_Init>:
 8001b74:	b508      	push	{r3, lr}
 8001b76:	480c      	ldr	r0, [pc, #48]	; (8001ba8 <MX_USART3_UART_Init+0x34>)
 8001b78:	f44f 33e1 	mov.w	r3, #115200	; 0x1c200
 8001b7c:	4a0b      	ldr	r2, [pc, #44]	; (8001bac <MX_USART3_UART_Init+0x38>)
 8001b7e:	e9c0 2300 	strd	r2, r3, [r0]
 8001b82:	2300      	movs	r3, #0
 8001b84:	220c      	movs	r2, #12
 8001b86:	e9c0 3302 	strd	r3, r3, [r0, #8]
 8001b8a:	6103      	str	r3, [r0, #16]
 8001b8c:	6243      	str	r3, [r0, #36]	; 0x24
 8001b8e:	e9c0 2305 	strd	r2, r3, [r0, #20]
 8001b92:	e9c0 3307 	strd	r3, r3, [r0, #28]
 8001b96:	f003 f896 	bl	8004cc6 <HAL_UART_Init>
 8001b9a:	b118      	cbz	r0, 8001ba4 <MX_USART3_UART_Init+0x30>
 8001b9c:	e8bd 4008 	ldmia.w	sp!, {r3, lr}
 8001ba0:	f7ff bbe2 	b.w	8001368 <Error_Handler>
 8001ba4:	bd08      	pop	{r3, pc}
 8001ba6:	bf00      	nop
 8001ba8:	20000cb8 	.word	0x20000cb8
 8001bac:	40004800 	.word	0x40004800

08001bb0 <HAL_UART_MspInit>:
 8001bb0:	b510      	push	{r4, lr}
 8001bb2:	2214      	movs	r2, #20
 8001bb4:	b0ae      	sub	sp, #184	; 0xb8
 8001bb6:	4604      	mov	r4, r0
 8001bb8:	2100      	movs	r1, #0
 8001bba:	eb0d 0002 	add.w	r0, sp, r2
 8001bbe:	f006 fbef 	bl	80083a0 <memset>
 8001bc2:	2290      	movs	r2, #144	; 0x90
 8001bc4:	2100      	movs	r1, #0
 8001bc6:	a80a      	add	r0, sp, #40	; 0x28
 8001bc8:	f006 fbea 	bl	80083a0 <memset>
 8001bcc:	6823      	ldr	r3, [r4, #0]
 8001bce:	4a36      	ldr	r2, [pc, #216]	; (8001ca8 <HAL_UART_MspInit+0xf8>)
 8001bd0:	4293      	cmp	r3, r2
 8001bd2:	d133      	bne.n	8001c3c <HAL_UART_MspInit+0x8c>
 8001bd4:	2340      	movs	r3, #64	; 0x40
 8001bd6:	a80a      	add	r0, sp, #40	; 0x28
 8001bd8:	930a      	str	r3, [sp, #40]	; 0x28
 8001bda:	f001 fa8f 	bl	80030fc <HAL_RCCEx_PeriphCLKConfig>
 8001bde:	b108      	cbz	r0, 8001be4 <HAL_UART_MspInit+0x34>
 8001be0:	f7ff fbc2 	bl	8001368 <Error_Handler>
 8001be4:	4b31      	ldr	r3, [pc, #196]	; (8001cac <HAL_UART_MspInit+0xfc>)
 8001be6:	f44f 61c0 	mov.w	r1, #1536	; 0x600
 8001bea:	2400      	movs	r4, #0
 8001bec:	4830      	ldr	r0, [pc, #192]	; (8001cb0 <HAL_UART_MspInit+0x100>)
 8001bee:	6c5a      	ldr	r2, [r3, #68]	; 0x44
 8001bf0:	f042 0210 	orr.w	r2, r2, #16
 8001bf4:	645a      	str	r2, [r3, #68]	; 0x44
 8001bf6:	6c5a      	ldr	r2, [r3, #68]	; 0x44
 8001bf8:	f002 0210 	and.w	r2, r2, #16
 8001bfc:	9201      	str	r2, [sp, #4]
 8001bfe:	9a01      	ldr	r2, [sp, #4]
 8001c00:	6b1a      	ldr	r2, [r3, #48]	; 0x30
 8001c02:	f042 0201 	orr.w	r2, r2, #1
 8001c06:	631a      	str	r2, [r3, #48]	; 0x30
 8001c08:	6b1b      	ldr	r3, [r3, #48]	; 0x30
 8001c0a:	f003 0301 	and.w	r3, r3, #1
 8001c0e:	9302      	str	r3, [sp, #8]
 8001c10:	9b02      	ldr	r3, [sp, #8]
 8001c12:	2302      	movs	r3, #2
 8001c14:	e9cd 1305 	strd	r1, r3, [sp, #20]
 8001c18:	2303      	movs	r3, #3
 8001c1a:	a905      	add	r1, sp, #20
 8001c1c:	e9cd 4307 	strd	r4, r3, [sp, #28]
 8001c20:	2307      	movs	r3, #7
 8001c22:	9309      	str	r3, [sp, #36]	; 0x24
 8001c24:	f000 fd8c 	bl	8002740 <HAL_GPIO_Init>
 8001c28:	2025      	movs	r0, #37	; 0x25
 8001c2a:	4622      	mov	r2, r4
 8001c2c:	2105      	movs	r1, #5
 8001c2e:	f000 fb55 	bl	80022dc <HAL_NVIC_SetPriority>
 8001c32:	2025      	movs	r0, #37	; 0x25
 8001c34:	f000 fb84 	bl	8002340 <HAL_NVIC_EnableIRQ>
 8001c38:	b02e      	add	sp, #184	; 0xb8
 8001c3a:	bd10      	pop	{r4, pc}
 8001c3c:	4a1d      	ldr	r2, [pc, #116]	; (8001cb4 <HAL_UART_MspInit+0x104>)
 8001c3e:	4293      	cmp	r3, r2
 8001c40:	d1fa      	bne.n	8001c38 <HAL_UART_MspInit+0x88>
 8001c42:	f44f 7380 	mov.w	r3, #256	; 0x100
 8001c46:	a80a      	add	r0, sp, #40	; 0x28
 8001c48:	930a      	str	r3, [sp, #40]	; 0x28
 8001c4a:	f001 fa57 	bl	80030fc <HAL_RCCEx_PeriphCLKConfig>
 8001c4e:	b108      	cbz	r0, 8001c54 <HAL_UART_MspInit+0xa4>
 8001c50:	f7ff fb8a 	bl	8001368 <Error_Handler>
 8001c54:	4b15      	ldr	r3, [pc, #84]	; (8001cac <HAL_UART_MspInit+0xfc>)
 8001c56:	2400      	movs	r4, #0
 8001c58:	a905      	add	r1, sp, #20
 8001c5a:	4817      	ldr	r0, [pc, #92]	; (8001cb8 <HAL_UART_MspInit+0x108>)
 8001c5c:	6c1a      	ldr	r2, [r3, #64]	; 0x40
 8001c5e:	f442 2280 	orr.w	r2, r2, #262144	; 0x40000
 8001c62:	641a      	str	r2, [r3, #64]	; 0x40
 8001c64:	6c1a      	ldr	r2, [r3, #64]	; 0x40
 8001c66:	f402 2280 	and.w	r2, r2, #262144	; 0x40000
 8001c6a:	9203      	str	r2, [sp, #12]
 8001c6c:	9a03      	ldr	r2, [sp, #12]
 8001c6e:	6b1a      	ldr	r2, [r3, #48]	; 0x30
 8001c70:	f042 0208 	orr.w	r2, r2, #8
 8001c74:	631a      	str	r2, [r3, #48]	; 0x30
 8001c76:	f44f 7240 	mov.w	r2, #768	; 0x300
 8001c7a:	6b1b      	ldr	r3, [r3, #48]	; 0x30
 8001c7c:	f003 0308 	and.w	r3, r3, #8
 8001c80:	9304      	str	r3, [sp, #16]
 8001c82:	9b04      	ldr	r3, [sp, #16]
 8001c84:	2302      	movs	r3, #2
 8001c86:	e9cd 2305 	strd	r2, r3, [sp, #20]
 8001c8a:	2303      	movs	r3, #3
 8001c8c:	e9cd 4307 	strd	r4, r3, [sp, #28]
 8001c90:	2307      	movs	r3, #7
 8001c92:	9309      	str	r3, [sp, #36]	; 0x24
 8001c94:	f000 fd54 	bl	8002740 <HAL_GPIO_Init>
 8001c98:	2027      	movs	r0, #39	; 0x27
 8001c9a:	4622      	mov	r2, r4
 8001c9c:	2105      	movs	r1, #5
 8001c9e:	f000 fb1d 	bl	80022dc <HAL_NVIC_SetPriority>
 8001ca2:	2027      	movs	r0, #39	; 0x27
 8001ca4:	e7c6      	b.n	8001c34 <HAL_UART_MspInit+0x84>
 8001ca6:	bf00      	nop
 8001ca8:	40011000 	.word	0x40011000
 8001cac:	40023800 	.word	0x40023800
 8001cb0:	40020000 	.word	0x40020000
 8001cb4:	40004800 	.word	0x40004800
 8001cb8:	40020c00 	.word	0x40020c00

08001cbc <HAL_UART_TxCpltCallback>:
 8001cbc:	4b12      	ldr	r3, [pc, #72]	; (8001d08 <HAL_UART_TxCpltCallback+0x4c>)
 8001cbe:	b507      	push	{r0, r1, r2, lr}
 8001cc0:	6802      	ldr	r2, [r0, #0]
 8001cc2:	429a      	cmp	r2, r3
 8001cc4:	d118      	bne.n	8001cf8 <HAL_UART_TxCpltCallback+0x3c>
 8001cc6:	4a11      	ldr	r2, [pc, #68]	; (8001d0c <HAL_UART_TxCpltCallback+0x50>)
 8001cc8:	4b11      	ldr	r3, [pc, #68]	; (8001d10 <HAL_UART_TxCpltCallback+0x54>)
 8001cca:	8811      	ldrh	r1, [r2, #0]
 8001ccc:	881b      	ldrh	r3, [r3, #0]
 8001cce:	b289      	uxth	r1, r1
 8001cd0:	b29b      	uxth	r3, r3
 8001cd2:	4299      	cmp	r1, r3
 8001cd4:	d013      	beq.n	8001cfe <HAL_UART_TxCpltCallback+0x42>
 8001cd6:	8813      	ldrh	r3, [r2, #0]
 8001cd8:	490e      	ldr	r1, [pc, #56]	; (8001d14 <HAL_UART_TxCpltCallback+0x58>)
 8001cda:	b29b      	uxth	r3, r3
 8001cdc:	480e      	ldr	r0, [pc, #56]	; (8001d18 <HAL_UART_TxCpltCallback+0x5c>)
 8001cde:	5ccb      	ldrb	r3, [r1, r3]
 8001ce0:	f10d 0107 	add.w	r1, sp, #7
 8001ce4:	f88d 3007 	strb.w	r3, [sp, #7]
 8001ce8:	8813      	ldrh	r3, [r2, #0]
 8001cea:	3301      	adds	r3, #1
 8001cec:	f3c3 0308 	ubfx	r3, r3, #0, #9
 8001cf0:	8013      	strh	r3, [r2, #0]
 8001cf2:	2201      	movs	r2, #1
 8001cf4:	f002 fc1e 	bl	8004534 <HAL_UART_Transmit_IT>
 8001cf8:	b003      	add	sp, #12
 8001cfa:	f85d fb04 	ldr.w	pc, [sp], #4
 8001cfe:	4b07      	ldr	r3, [pc, #28]	; (8001d1c <HAL_UART_TxCpltCallback+0x60>)
 8001d00:	2200      	movs	r2, #0
 8001d02:	701a      	strb	r2, [r3, #0]
 8001d04:	e7f8      	b.n	8001cf8 <HAL_UART_TxCpltCallback+0x3c>
 8001d06:	bf00      	nop
 8001d08:	40004800 	.word	0x40004800
 8001d0c:	20000b28 	.word	0x20000b28
 8001d10:	20000926 	.word	0x20000926
 8001d14:	20000928 	.word	0x20000928
 8001d18:	20000cb8 	.word	0x20000cb8
 8001d1c:	20000924 	.word	0x20000924

08001d20 <Reset_Handler>:
 8001d20:	f8df d034 	ldr.w	sp, [pc, #52]	; 8001d58 <LoopFillZerobss+0xe>
 8001d24:	f7ff fe9e 	bl	8001a64 <SystemInit>
 8001d28:	480c      	ldr	r0, [pc, #48]	; (8001d5c <LoopFillZerobss+0x12>)
 8001d2a:	490d      	ldr	r1, [pc, #52]	; (8001d60 <LoopFillZerobss+0x16>)
 8001d2c:	4a0d      	ldr	r2, [pc, #52]	; (8001d64 <LoopFillZerobss+0x1a>)
 8001d2e:	2300      	movs	r3, #0
 8001d30:	e002      	b.n	8001d38 <LoopCopyDataInit>

08001d32 <CopyDataInit>:
 8001d32:	58d4      	ldr	r4, [r2, r3]
 8001d34:	50c4      	str	r4, [r0, r3]
 8001d36:	3304      	adds	r3, #4

08001d38 <LoopCopyDataInit>:
 8001d38:	18c4      	adds	r4, r0, r3
 8001d3a:	428c      	cmp	r4, r1
 8001d3c:	d3f9      	bcc.n	8001d32 <CopyDataInit>
 8001d3e:	4a0a      	ldr	r2, [pc, #40]	; (8001d68 <LoopFillZerobss+0x1e>)
 8001d40:	4c0a      	ldr	r4, [pc, #40]	; (8001d6c <LoopFillZerobss+0x22>)
 8001d42:	2300      	movs	r3, #0
 8001d44:	e001      	b.n	8001d4a <LoopFillZerobss>

08001d46 <FillZerobss>:
 8001d46:	6013      	str	r3, [r2, #0]
 8001d48:	3204      	adds	r2, #4

08001d4a <LoopFillZerobss>:
 8001d4a:	42a2      	cmp	r2, r4
 8001d4c:	d3fb      	bcc.n	8001d46 <FillZerobss>
 8001d4e:	f006 fbd1 	bl	80084f4 <__libc_init_array>
 8001d52:	f7ff fb65 	bl	8001420 <main>
 8001d56:	4770      	bx	lr
 8001d58:	20080000 	.word	0x20080000
 8001d5c:	20000000 	.word	0x20000000
 8001d60:	2000014c 	.word	0x2000014c
 8001d64:	080095d0 	.word	0x080095d0
 8001d68:	20000160 	.word	0x20000160
 8001d6c:	20006334 	.word	0x20006334

08001d70 <ADC_IRQHandler>:
 8001d70:	e7fe      	b.n	8001d70 <ADC_IRQHandler>
	...

08001d74 <HAL_Init>:
 8001d74:	4a07      	ldr	r2, [pc, #28]	; (8001d94 <HAL_Init+0x20>)
 8001d76:	2003      	movs	r0, #3
 8001d78:	b508      	push	{r3, lr}
 8001d7a:	6813      	ldr	r3, [r2, #0]
 8001d7c:	f443 7380 	orr.w	r3, r3, #256	; 0x100
 8001d80:	6013      	str	r3, [r2, #0]
 8001d82:	f000 fa99 	bl	80022b8 <HAL_NVIC_SetPriorityGrouping>
 8001d86:	200f      	movs	r0, #15
 8001d88:	f7ff fd1e 	bl	80017c8 <HAL_InitTick>
 8001d8c:	f7ff fcfe 	bl	800178c <HAL_MspInit>
 8001d90:	2000      	movs	r0, #0
 8001d92:	bd08      	pop	{r3, pc}
 8001d94:	40023c00 	.word	0x40023c00

08001d98 <HAL_IncTick>:
 8001d98:	4a03      	ldr	r2, [pc, #12]	; (8001da8 <HAL_IncTick+0x10>)
 8001d9a:	4b04      	ldr	r3, [pc, #16]	; (8001dac <HAL_IncTick+0x14>)
 8001d9c:	6811      	ldr	r1, [r2, #0]
 8001d9e:	781b      	ldrb	r3, [r3, #0]
 8001da0:	440b      	add	r3, r1
 8001da2:	6013      	str	r3, [r2, #0]
 8001da4:	4770      	bx	lr
 8001da6:	bf00      	nop
 8001da8:	20000d40 	.word	0x20000d40
 8001dac:	200000e4 	.word	0x200000e4

08001db0 <HAL_GetTick>:
 8001db0:	4b01      	ldr	r3, [pc, #4]	; (8001db8 <HAL_GetTick+0x8>)
 8001db2:	6818      	ldr	r0, [r3, #0]
 8001db4:	4770      	bx	lr
 8001db6:	bf00      	nop
 8001db8:	20000d40 	.word	0x20000d40

08001dbc <HAL_Delay>:
 8001dbc:	b538      	push	{r3, r4, r5, lr}
 8001dbe:	4604      	mov	r4, r0
 8001dc0:	f7ff fff6 	bl	8001db0 <HAL_GetTick>
 8001dc4:	4605      	mov	r5, r0
 8001dc6:	1c63      	adds	r3, r4, #1
 8001dc8:	bf1e      	ittt	ne
 8001dca:	4b04      	ldrne	r3, [pc, #16]	; (8001ddc <HAL_Delay+0x20>)
 8001dcc:	781b      	ldrbne	r3, [r3, #0]
 8001dce:	18e4      	addne	r4, r4, r3
 8001dd0:	f7ff ffee 	bl	8001db0 <HAL_GetTick>
 8001dd4:	1b43      	subs	r3, r0, r5
 8001dd6:	42a3      	cmp	r3, r4
 8001dd8:	d3fa      	bcc.n	8001dd0 <HAL_Delay+0x14>
 8001dda:	bd38      	pop	{r3, r4, r5, pc}
 8001ddc:	200000e4 	.word	0x200000e4

08001de0 <HAL_ADC_Init>:
 8001de0:	b538      	push	{r3, r4, r5, lr}
 8001de2:	4604      	mov	r4, r0
 8001de4:	2800      	cmp	r0, #0
 8001de6:	f000 809b 	beq.w	8001f20 <HAL_ADC_Init+0x140>
 8001dea:	6c05      	ldr	r5, [r0, #64]	; 0x40
 8001dec:	b925      	cbnz	r5, 8001df8 <HAL_ADC_Init+0x18>
 8001dee:	f7fe fc29 	bl	8000644 <HAL_ADC_MspInit>
 8001df2:	6465      	str	r5, [r4, #68]	; 0x44
 8001df4:	f884 503c 	strb.w	r5, [r4, #60]	; 0x3c
 8001df8:	6c23      	ldr	r3, [r4, #64]	; 0x40
 8001dfa:	06db      	lsls	r3, r3, #27
 8001dfc:	f100 808e 	bmi.w	8001f1c <HAL_ADC_Init+0x13c>
 8001e00:	6c23      	ldr	r3, [r4, #64]	; 0x40
 8001e02:	f423 5388 	bic.w	r3, r3, #4352	; 0x1100
 8001e06:	f023 0302 	bic.w	r3, r3, #2
 8001e0a:	f043 0302 	orr.w	r3, r3, #2
 8001e0e:	6423      	str	r3, [r4, #64]	; 0x40
 8001e10:	4b44      	ldr	r3, [pc, #272]	; (8001f24 <HAL_ADC_Init+0x144>)
 8001e12:	685a      	ldr	r2, [r3, #4]
 8001e14:	f422 3240 	bic.w	r2, r2, #196608	; 0x30000
 8001e18:	605a      	str	r2, [r3, #4]
 8001e1a:	685a      	ldr	r2, [r3, #4]
 8001e1c:	6861      	ldr	r1, [r4, #4]
 8001e1e:	430a      	orrs	r2, r1
 8001e20:	605a      	str	r2, [r3, #4]
 8001e22:	6823      	ldr	r3, [r4, #0]
 8001e24:	6921      	ldr	r1, [r4, #16]
 8001e26:	685a      	ldr	r2, [r3, #4]
 8001e28:	f422 7280 	bic.w	r2, r2, #256	; 0x100
 8001e2c:	605a      	str	r2, [r3, #4]
 8001e2e:	685a      	ldr	r2, [r3, #4]
 8001e30:	ea42 2201 	orr.w	r2, r2, r1, lsl #8
 8001e34:	68a1      	ldr	r1, [r4, #8]
 8001e36:	605a      	str	r2, [r3, #4]
 8001e38:	685a      	ldr	r2, [r3, #4]
 8001e3a:	f022 7240 	bic.w	r2, r2, #50331648	; 0x3000000
 8001e3e:	605a      	str	r2, [r3, #4]
 8001e40:	685a      	ldr	r2, [r3, #4]
 8001e42:	430a      	orrs	r2, r1
 8001e44:	68e1      	ldr	r1, [r4, #12]
 8001e46:	605a      	str	r2, [r3, #4]
 8001e48:	689a      	ldr	r2, [r3, #8]
 8001e4a:	f422 6200 	bic.w	r2, r2, #2048	; 0x800
 8001e4e:	609a      	str	r2, [r3, #8]
 8001e50:	689a      	ldr	r2, [r3, #8]
 8001e52:	430a      	orrs	r2, r1
 8001e54:	4934      	ldr	r1, [pc, #208]	; (8001f28 <HAL_ADC_Init+0x148>)
 8001e56:	609a      	str	r2, [r3, #8]
 8001e58:	6aa2      	ldr	r2, [r4, #40]	; 0x28
 8001e5a:	428a      	cmp	r2, r1
 8001e5c:	d052      	beq.n	8001f04 <HAL_ADC_Init+0x124>
 8001e5e:	6899      	ldr	r1, [r3, #8]
 8001e60:	f021 6170 	bic.w	r1, r1, #251658240	; 0xf000000
 8001e64:	6099      	str	r1, [r3, #8]
 8001e66:	6899      	ldr	r1, [r3, #8]
 8001e68:	430a      	orrs	r2, r1
 8001e6a:	6ae1      	ldr	r1, [r4, #44]	; 0x2c
 8001e6c:	609a      	str	r2, [r3, #8]
 8001e6e:	689a      	ldr	r2, [r3, #8]
 8001e70:	f022 5240 	bic.w	r2, r2, #805306368	; 0x30000000
 8001e74:	609a      	str	r2, [r3, #8]
 8001e76:	689a      	ldr	r2, [r3, #8]
 8001e78:	430a      	orrs	r2, r1
 8001e7a:	609a      	str	r2, [r3, #8]
 8001e7c:	689a      	ldr	r2, [r3, #8]
 8001e7e:	69a1      	ldr	r1, [r4, #24]
 8001e80:	f022 0202 	bic.w	r2, r2, #2
 8001e84:	609a      	str	r2, [r3, #8]
 8001e86:	689a      	ldr	r2, [r3, #8]
 8001e88:	ea42 0241 	orr.w	r2, r2, r1, lsl #1
 8001e8c:	609a      	str	r2, [r3, #8]
 8001e8e:	f894 2020 	ldrb.w	r2, [r4, #32]
 8001e92:	2a00      	cmp	r2, #0
 8001e94:	d03e      	beq.n	8001f14 <HAL_ADC_Init+0x134>
 8001e96:	685a      	ldr	r2, [r3, #4]
 8001e98:	6a61      	ldr	r1, [r4, #36]	; 0x24
 8001e9a:	f442 6200 	orr.w	r2, r2, #2048	; 0x800
 8001e9e:	3901      	subs	r1, #1
 8001ea0:	605a      	str	r2, [r3, #4]
 8001ea2:	685a      	ldr	r2, [r3, #4]
 8001ea4:	f422 4260 	bic.w	r2, r2, #57344	; 0xe000
 8001ea8:	605a      	str	r2, [r3, #4]
 8001eaa:	685a      	ldr	r2, [r3, #4]
 8001eac:	ea42 3241 	orr.w	r2, r2, r1, lsl #13
 8001eb0:	605a      	str	r2, [r3, #4]
 8001eb2:	2000      	movs	r0, #0
 8001eb4:	6ada      	ldr	r2, [r3, #44]	; 0x2c
 8001eb6:	69e1      	ldr	r1, [r4, #28]
 8001eb8:	f422 0270 	bic.w	r2, r2, #15728640	; 0xf00000
 8001ebc:	3901      	subs	r1, #1
 8001ebe:	62da      	str	r2, [r3, #44]	; 0x2c
 8001ec0:	6ada      	ldr	r2, [r3, #44]	; 0x2c
 8001ec2:	ea42 5201 	orr.w	r2, r2, r1, lsl #20
 8001ec6:	62da      	str	r2, [r3, #44]	; 0x2c
 8001ec8:	689a      	ldr	r2, [r3, #8]
 8001eca:	f422 7200 	bic.w	r2, r2, #512	; 0x200
 8001ece:	609a      	str	r2, [r3, #8]
 8001ed0:	689a      	ldr	r2, [r3, #8]
 8001ed2:	f894 1030 	ldrb.w	r1, [r4, #48]	; 0x30
 8001ed6:	ea42 2241 	orr.w	r2, r2, r1, lsl #9
 8001eda:	6961      	ldr	r1, [r4, #20]
 8001edc:	609a      	str	r2, [r3, #8]
 8001ede:	689a      	ldr	r2, [r3, #8]
 8001ee0:	f422 6280 	bic.w	r2, r2, #1024	; 0x400
 8001ee4:	609a      	str	r2, [r3, #8]
 8001ee6:	689a      	ldr	r2, [r3, #8]
 8001ee8:	ea42 2281 	orr.w	r2, r2, r1, lsl #10
 8001eec:	609a      	str	r2, [r3, #8]
 8001eee:	6460      	str	r0, [r4, #68]	; 0x44
 8001ef0:	6c23      	ldr	r3, [r4, #64]	; 0x40
 8001ef2:	f023 0303 	bic.w	r3, r3, #3
 8001ef6:	f043 0301 	orr.w	r3, r3, #1
 8001efa:	6423      	str	r3, [r4, #64]	; 0x40
 8001efc:	2300      	movs	r3, #0
 8001efe:	f884 303c 	strb.w	r3, [r4, #60]	; 0x3c
 8001f02:	bd38      	pop	{r3, r4, r5, pc}
 8001f04:	689a      	ldr	r2, [r3, #8]
 8001f06:	f022 6270 	bic.w	r2, r2, #251658240	; 0xf000000
 8001f0a:	609a      	str	r2, [r3, #8]
 8001f0c:	689a      	ldr	r2, [r3, #8]
 8001f0e:	f022 5240 	bic.w	r2, r2, #805306368	; 0x30000000
 8001f12:	e7b2      	b.n	8001e7a <HAL_ADC_Init+0x9a>
 8001f14:	685a      	ldr	r2, [r3, #4]
 8001f16:	f422 6200 	bic.w	r2, r2, #2048	; 0x800
 8001f1a:	e7c9      	b.n	8001eb0 <HAL_ADC_Init+0xd0>
 8001f1c:	2001      	movs	r0, #1
 8001f1e:	e7ed      	b.n	8001efc <HAL_ADC_Init+0x11c>
 8001f20:	2001      	movs	r0, #1
 8001f22:	e7ee      	b.n	8001f02 <HAL_ADC_Init+0x122>
 8001f24:	40012300 	.word	0x40012300
 8001f28:	0f000001 	.word	0x0f000001

08001f2c <HAL_ADC_Start_DMA>:
 8001f2c:	b537      	push	{r0, r1, r2, r4, r5, lr}
 8001f2e:	4613      	mov	r3, r2
 8001f30:	2200      	movs	r2, #0
 8001f32:	4604      	mov	r4, r0
 8001f34:	9201      	str	r2, [sp, #4]
 8001f36:	f890 203c 	ldrb.w	r2, [r0, #60]	; 0x3c
 8001f3a:	2a01      	cmp	r2, #1
 8001f3c:	d07b      	beq.n	8002036 <HAL_ADC_Start_DMA+0x10a>
 8001f3e:	2201      	movs	r2, #1
 8001f40:	6805      	ldr	r5, [r0, #0]
 8001f42:	f880 203c 	strb.w	r2, [r0, #60]	; 0x3c
 8001f46:	68aa      	ldr	r2, [r5, #8]
 8001f48:	07d2      	lsls	r2, r2, #31
 8001f4a:	d50c      	bpl.n	8001f66 <HAL_ADC_Start_DMA+0x3a>
 8001f4c:	68a8      	ldr	r0, [r5, #8]
 8001f4e:	f010 0001 	ands.w	r0, r0, #1
 8001f52:	d11b      	bne.n	8001f8c <HAL_ADC_Start_DMA+0x60>
 8001f54:	6c23      	ldr	r3, [r4, #64]	; 0x40
 8001f56:	f043 0310 	orr.w	r3, r3, #16
 8001f5a:	6423      	str	r3, [r4, #64]	; 0x40
 8001f5c:	6c63      	ldr	r3, [r4, #68]	; 0x44
 8001f5e:	f043 0301 	orr.w	r3, r3, #1
 8001f62:	6463      	str	r3, [r4, #68]	; 0x44
 8001f64:	e065      	b.n	8002032 <HAL_ADC_Start_DMA+0x106>
 8001f66:	68aa      	ldr	r2, [r5, #8]
 8001f68:	f042 0201 	orr.w	r2, r2, #1
 8001f6c:	60aa      	str	r2, [r5, #8]
 8001f6e:	4a33      	ldr	r2, [pc, #204]	; (800203c <HAL_ADC_Start_DMA+0x110>)
 8001f70:	6810      	ldr	r0, [r2, #0]
 8001f72:	4a33      	ldr	r2, [pc, #204]	; (8002040 <HAL_ADC_Start_DMA+0x114>)
 8001f74:	fbb0 f0f2 	udiv	r0, r0, r2
 8001f78:	eb00 0040 	add.w	r0, r0, r0, lsl #1
 8001f7c:	9001      	str	r0, [sp, #4]
 8001f7e:	9a01      	ldr	r2, [sp, #4]
 8001f80:	2a00      	cmp	r2, #0
 8001f82:	d0e3      	beq.n	8001f4c <HAL_ADC_Start_DMA+0x20>
 8001f84:	9a01      	ldr	r2, [sp, #4]
 8001f86:	3a01      	subs	r2, #1
 8001f88:	9201      	str	r2, [sp, #4]
 8001f8a:	e7f8      	b.n	8001f7e <HAL_ADC_Start_DMA+0x52>
 8001f8c:	6c20      	ldr	r0, [r4, #64]	; 0x40
 8001f8e:	f420 60e0 	bic.w	r0, r0, #1792	; 0x700
 8001f92:	f020 0001 	bic.w	r0, r0, #1
 8001f96:	f440 7080 	orr.w	r0, r0, #256	; 0x100
 8001f9a:	6420      	str	r0, [r4, #64]	; 0x40
 8001f9c:	686a      	ldr	r2, [r5, #4]
 8001f9e:	0550      	lsls	r0, r2, #21
 8001fa0:	d505      	bpl.n	8001fae <HAL_ADC_Start_DMA+0x82>
 8001fa2:	6c20      	ldr	r0, [r4, #64]	; 0x40
 8001fa4:	f420 5040 	bic.w	r0, r0, #12288	; 0x3000
 8001fa8:	f440 5080 	orr.w	r0, r0, #4096	; 0x1000
 8001fac:	6420      	str	r0, [r4, #64]	; 0x40
 8001fae:	6c22      	ldr	r2, [r4, #64]	; 0x40
 8001fb0:	f412 5280 	ands.w	r2, r2, #4096	; 0x1000
 8001fb4:	d002      	beq.n	8001fbc <HAL_ADC_Start_DMA+0x90>
 8001fb6:	6c62      	ldr	r2, [r4, #68]	; 0x44
 8001fb8:	f022 0206 	bic.w	r2, r2, #6
 8001fbc:	6462      	str	r2, [r4, #68]	; 0x44
 8001fbe:	2200      	movs	r2, #0
 8001fc0:	6ba0      	ldr	r0, [r4, #56]	; 0x38
 8001fc2:	f884 203c 	strb.w	r2, [r4, #60]	; 0x3c
 8001fc6:	4a1f      	ldr	r2, [pc, #124]	; (8002044 <HAL_ADC_Start_DMA+0x118>)
 8001fc8:	63c2      	str	r2, [r0, #60]	; 0x3c
 8001fca:	4a1f      	ldr	r2, [pc, #124]	; (8002048 <HAL_ADC_Start_DMA+0x11c>)
 8001fcc:	6402      	str	r2, [r0, #64]	; 0x40
 8001fce:	4a1f      	ldr	r2, [pc, #124]	; (800204c <HAL_ADC_Start_DMA+0x120>)
 8001fd0:	64c2      	str	r2, [r0, #76]	; 0x4c
 8001fd2:	f06f 0222 	mvn.w	r2, #34	; 0x22
 8001fd6:	602a      	str	r2, [r5, #0]
 8001fd8:	686a      	ldr	r2, [r5, #4]
 8001fda:	f042 6280 	orr.w	r2, r2, #67108864	; 0x4000000
 8001fde:	606a      	str	r2, [r5, #4]
 8001fe0:	68aa      	ldr	r2, [r5, #8]
 8001fe2:	f442 7280 	orr.w	r2, r2, #256	; 0x100
 8001fe6:	60aa      	str	r2, [r5, #8]
 8001fe8:	460a      	mov	r2, r1
 8001fea:	f105 014c 	add.w	r1, r5, #76	; 0x4c
 8001fee:	f000 fa5b 	bl	80024a8 <HAL_DMA_Start_IT>
 8001ff2:	4917      	ldr	r1, [pc, #92]	; (8002050 <HAL_ADC_Start_DMA+0x124>)
 8001ff4:	684b      	ldr	r3, [r1, #4]
 8001ff6:	f013 0f1f 	tst.w	r3, #31
 8001ffa:	6823      	ldr	r3, [r4, #0]
 8001ffc:	d108      	bne.n	8002010 <HAL_ADC_Start_DMA+0xe4>
 8001ffe:	689a      	ldr	r2, [r3, #8]
 8002000:	f012 5f40 	tst.w	r2, #805306368	; 0x30000000
 8002004:	d115      	bne.n	8002032 <HAL_ADC_Start_DMA+0x106>
 8002006:	689a      	ldr	r2, [r3, #8]
 8002008:	f042 4280 	orr.w	r2, r2, #1073741824	; 0x40000000
 800200c:	609a      	str	r2, [r3, #8]
 800200e:	e010      	b.n	8002032 <HAL_ADC_Start_DMA+0x106>
 8002010:	4a10      	ldr	r2, [pc, #64]	; (8002054 <HAL_ADC_Start_DMA+0x128>)
 8002012:	4293      	cmp	r3, r2
 8002014:	d107      	bne.n	8002026 <HAL_ADC_Start_DMA+0xfa>
 8002016:	689a      	ldr	r2, [r3, #8]
 8002018:	f012 5f40 	tst.w	r2, #805306368	; 0x30000000
 800201c:	d103      	bne.n	8002026 <HAL_ADC_Start_DMA+0xfa>
 800201e:	689a      	ldr	r2, [r3, #8]
 8002020:	f042 4280 	orr.w	r2, r2, #1073741824	; 0x40000000
 8002024:	609a      	str	r2, [r3, #8]
 8002026:	684a      	ldr	r2, [r1, #4]
 8002028:	06d2      	lsls	r2, r2, #27
 800202a:	d402      	bmi.n	8002032 <HAL_ADC_Start_DMA+0x106>
 800202c:	4a0a      	ldr	r2, [pc, #40]	; (8002058 <HAL_ADC_Start_DMA+0x12c>)
 800202e:	4293      	cmp	r3, r2
 8002030:	d0e5      	beq.n	8001ffe <HAL_ADC_Start_DMA+0xd2>
 8002032:	b003      	add	sp, #12
 8002034:	bd30      	pop	{r4, r5, pc}
 8002036:	2002      	movs	r0, #2
 8002038:	e7fb      	b.n	8002032 <HAL_ADC_Start_DMA+0x106>
 800203a:	bf00      	nop
 800203c:	200000e0 	.word	0x200000e0
 8002040:	000f4240 	.word	0x000f4240
 8002044:	080020f3 	.word	0x080020f3
 8002048:	080020d1 	.word	0x080020d1
 800204c:	080020dd 	.word	0x080020dd
 8002050:	40012300 	.word	0x40012300
 8002054:	40012000 	.word	0x40012000
 8002058:	40012200 	.word	0x40012200

0800205c <HAL_ADC_Stop_DMA>:
 800205c:	b510      	push	{r4, lr}
 800205e:	f890 303c 	ldrb.w	r3, [r0, #60]	; 0x3c
 8002062:	4604      	mov	r4, r0
 8002064:	2b01      	cmp	r3, #1
 8002066:	d030      	beq.n	80020ca <HAL_ADC_Stop_DMA+0x6e>
 8002068:	6802      	ldr	r2, [r0, #0]
 800206a:	2301      	movs	r3, #1
 800206c:	f880 303c 	strb.w	r3, [r0, #60]	; 0x3c
 8002070:	6893      	ldr	r3, [r2, #8]
 8002072:	f023 0301 	bic.w	r3, r3, #1
 8002076:	6093      	str	r3, [r2, #8]
 8002078:	6893      	ldr	r3, [r2, #8]
 800207a:	f013 0301 	ands.w	r3, r3, #1
 800207e:	d122      	bne.n	80020c6 <HAL_ADC_Stop_DMA+0x6a>
 8002080:	6891      	ldr	r1, [r2, #8]
 8002082:	6b80      	ldr	r0, [r0, #56]	; 0x38
 8002084:	f421 7180 	bic.w	r1, r1, #256	; 0x100
 8002088:	6091      	str	r1, [r2, #8]
 800208a:	f890 2035 	ldrb.w	r2, [r0, #53]	; 0x35
 800208e:	2a02      	cmp	r2, #2
 8002090:	d117      	bne.n	80020c2 <HAL_ADC_Stop_DMA+0x66>
 8002092:	f000 fa46 	bl	8002522 <HAL_DMA_Abort>
 8002096:	b118      	cbz	r0, 80020a0 <HAL_ADC_Stop_DMA+0x44>
 8002098:	6c23      	ldr	r3, [r4, #64]	; 0x40
 800209a:	f043 0340 	orr.w	r3, r3, #64	; 0x40
 800209e:	6423      	str	r3, [r4, #64]	; 0x40
 80020a0:	6822      	ldr	r2, [r4, #0]
 80020a2:	6853      	ldr	r3, [r2, #4]
 80020a4:	f023 6380 	bic.w	r3, r3, #67108864	; 0x4000000
 80020a8:	6053      	str	r3, [r2, #4]
 80020aa:	6c23      	ldr	r3, [r4, #64]	; 0x40
 80020ac:	f423 5388 	bic.w	r3, r3, #4352	; 0x1100
 80020b0:	f023 0301 	bic.w	r3, r3, #1
 80020b4:	f043 0301 	orr.w	r3, r3, #1
 80020b8:	6423      	str	r3, [r4, #64]	; 0x40
 80020ba:	2300      	movs	r3, #0
 80020bc:	f884 303c 	strb.w	r3, [r4, #60]	; 0x3c
 80020c0:	bd10      	pop	{r4, pc}
 80020c2:	4618      	mov	r0, r3
 80020c4:	e7ec      	b.n	80020a0 <HAL_ADC_Stop_DMA+0x44>
 80020c6:	2000      	movs	r0, #0
 80020c8:	e7f7      	b.n	80020ba <HAL_ADC_Stop_DMA+0x5e>
 80020ca:	2002      	movs	r0, #2
 80020cc:	e7f8      	b.n	80020c0 <HAL_ADC_Stop_DMA+0x64>

080020ce <HAL_ADC_ConvHalfCpltCallback>:
 80020ce:	4770      	bx	lr

080020d0 <ADC_DMAHalfConvCplt>:
 80020d0:	6b80      	ldr	r0, [r0, #56]	; 0x38
 80020d2:	b508      	push	{r3, lr}
 80020d4:	f7ff fffb 	bl	80020ce <HAL_ADC_ConvHalfCpltCallback>
 80020d8:	bd08      	pop	{r3, pc}

080020da <HAL_ADC_ErrorCallback>:
 80020da:	4770      	bx	lr

080020dc <ADC_DMAError>:
 80020dc:	6b80      	ldr	r0, [r0, #56]	; 0x38
 80020de:	b508      	push	{r3, lr}
 80020e0:	2340      	movs	r3, #64	; 0x40
 80020e2:	6403      	str	r3, [r0, #64]	; 0x40
 80020e4:	6c43      	ldr	r3, [r0, #68]	; 0x44
 80020e6:	f043 0304 	orr.w	r3, r3, #4
 80020ea:	6443      	str	r3, [r0, #68]	; 0x44
 80020ec:	f7ff fff5 	bl	80020da <HAL_ADC_ErrorCallback>
 80020f0:	bd08      	pop	{r3, pc}

080020f2 <ADC_DMAConvCplt>:
 80020f2:	6b83      	ldr	r3, [r0, #56]	; 0x38
 80020f4:	6c1a      	ldr	r2, [r3, #64]	; 0x40
 80020f6:	f012 0f50 	tst.w	r2, #80	; 0x50
 80020fa:	6c1a      	ldr	r2, [r3, #64]	; 0x40
 80020fc:	b510      	push	{r4, lr}
 80020fe:	d123      	bne.n	8002148 <ADC_DMAConvCplt+0x56>
 8002100:	f442 7200 	orr.w	r2, r2, #512	; 0x200
 8002104:	641a      	str	r2, [r3, #64]	; 0x40
 8002106:	681a      	ldr	r2, [r3, #0]
 8002108:	6891      	ldr	r1, [r2, #8]
 800210a:	f011 5f40 	tst.w	r1, #805306368	; 0x30000000
 800210e:	d117      	bne.n	8002140 <ADC_DMAConvCplt+0x4e>
 8002110:	6999      	ldr	r1, [r3, #24]
 8002112:	b9a9      	cbnz	r1, 8002140 <ADC_DMAConvCplt+0x4e>
 8002114:	6ad1      	ldr	r1, [r2, #44]	; 0x2c
 8002116:	f411 0f70 	tst.w	r1, #15728640	; 0xf00000
 800211a:	d002      	beq.n	8002122 <ADC_DMAConvCplt+0x30>
 800211c:	6891      	ldr	r1, [r2, #8]
 800211e:	0548      	lsls	r0, r1, #21
 8002120:	d40e      	bmi.n	8002140 <ADC_DMAConvCplt+0x4e>
 8002122:	6851      	ldr	r1, [r2, #4]
 8002124:	f021 0120 	bic.w	r1, r1, #32
 8002128:	6051      	str	r1, [r2, #4]
 800212a:	6c1a      	ldr	r2, [r3, #64]	; 0x40
 800212c:	f422 7280 	bic.w	r2, r2, #256	; 0x100
 8002130:	641a      	str	r2, [r3, #64]	; 0x40
 8002132:	6c1a      	ldr	r2, [r3, #64]	; 0x40
 8002134:	04d1      	lsls	r1, r2, #19
 8002136:	d403      	bmi.n	8002140 <ADC_DMAConvCplt+0x4e>
 8002138:	6c1a      	ldr	r2, [r3, #64]	; 0x40
 800213a:	f042 0201 	orr.w	r2, r2, #1
 800213e:	641a      	str	r2, [r3, #64]	; 0x40
 8002140:	4618      	mov	r0, r3
 8002142:	f7fe fad1 	bl	80006e8 <HAL_ADC_ConvCpltCallback>
 8002146:	bd10      	pop	{r4, pc}
 8002148:	06d2      	lsls	r2, r2, #27
 800214a:	d503      	bpl.n	8002154 <ADC_DMAConvCplt+0x62>
 800214c:	4618      	mov	r0, r3
 800214e:	f7ff ffc4 	bl	80020da <HAL_ADC_ErrorCallback>
 8002152:	e7f8      	b.n	8002146 <ADC_DMAConvCplt+0x54>
 8002154:	6b9b      	ldr	r3, [r3, #56]	; 0x38
 8002156:	e8bd 4010 	ldmia.w	sp!, {r4, lr}
 800215a:	6cdb      	ldr	r3, [r3, #76]	; 0x4c
 800215c:	4718      	bx	r3
	...

08002160 <HAL_ADC_ConfigChannel>:
 8002160:	2300      	movs	r3, #0
 8002162:	b5f7      	push	{r0, r1, r2, r4, r5, r6, r7, lr}
 8002164:	9301      	str	r3, [sp, #4]
 8002166:	f890 303c 	ldrb.w	r3, [r0, #60]	; 0x3c
 800216a:	2b01      	cmp	r3, #1
 800216c:	d077      	beq.n	800225e <HAL_ADC_ConfigChannel+0xfe>
 800216e:	2301      	movs	r3, #1
 8002170:	f880 303c 	strb.w	r3, [r0, #60]	; 0x3c
 8002174:	680c      	ldr	r4, [r1, #0]
 8002176:	6803      	ldr	r3, [r0, #0]
 8002178:	b2a5      	uxth	r5, r4
 800217a:	2c09      	cmp	r4, #9
 800217c:	688e      	ldr	r6, [r1, #8]
 800217e:	eb05 0245 	add.w	r2, r5, r5, lsl #1
 8002182:	d93a      	bls.n	80021fa <HAL_ADC_ConfigChannel+0x9a>
 8002184:	f1b4 4f00 	cmp.w	r4, #2147483648	; 0x80000000
 8002188:	d037      	beq.n	80021fa <HAL_ADC_ConfigChannel+0x9a>
 800218a:	3a1e      	subs	r2, #30
 800218c:	f04f 0c07 	mov.w	ip, #7
 8002190:	68df      	ldr	r7, [r3, #12]
 8002192:	fa0c fc02 	lsl.w	ip, ip, r2
 8002196:	ea27 070c 	bic.w	r7, r7, ip
 800219a:	60df      	str	r7, [r3, #12]
 800219c:	4f41      	ldr	r7, [pc, #260]	; (80022a4 <HAL_ADC_ConfigChannel+0x144>)
 800219e:	42bc      	cmp	r4, r7
 80021a0:	d126      	bne.n	80021f0 <HAL_ADC_ConfigChannel+0x90>
 80021a2:	68da      	ldr	r2, [r3, #12]
 80021a4:	ea42 6206 	orr.w	r2, r2, r6, lsl #24
 80021a8:	60da      	str	r2, [r3, #12]
 80021aa:	6849      	ldr	r1, [r1, #4]
 80021ac:	2906      	cmp	r1, #6
 80021ae:	eb01 0281 	add.w	r2, r1, r1, lsl #2
 80021b2:	d82f      	bhi.n	8002214 <HAL_ADC_ConfigChannel+0xb4>
 80021b4:	3a05      	subs	r2, #5
 80021b6:	261f      	movs	r6, #31
 80021b8:	6b59      	ldr	r1, [r3, #52]	; 0x34
 80021ba:	4096      	lsls	r6, r2
 80021bc:	fa05 f202 	lsl.w	r2, r5, r2
 80021c0:	ea21 0106 	bic.w	r1, r1, r6
 80021c4:	6359      	str	r1, [r3, #52]	; 0x34
 80021c6:	6b59      	ldr	r1, [r3, #52]	; 0x34
 80021c8:	430a      	orrs	r2, r1
 80021ca:	635a      	str	r2, [r3, #52]	; 0x34
 80021cc:	4a36      	ldr	r2, [pc, #216]	; (80022a8 <HAL_ADC_ConfigChannel+0x148>)
 80021ce:	4293      	cmp	r3, r2
 80021d0:	d108      	bne.n	80021e4 <HAL_ADC_ConfigChannel+0x84>
 80021d2:	f1b4 4f00 	cmp.w	r4, #2147483648	; 0x80000000
 80021d6:	d144      	bne.n	8002262 <HAL_ADC_ConfigChannel+0x102>
 80021d8:	f8d2 3304 	ldr.w	r3, [r2, #772]	; 0x304
 80021dc:	f423 0340 	bic.w	r3, r3, #12582912	; 0xc00000
 80021e0:	f8c2 3304 	str.w	r3, [r2, #772]	; 0x304
 80021e4:	2300      	movs	r3, #0
 80021e6:	f880 303c 	strb.w	r3, [r0, #60]	; 0x3c
 80021ea:	4618      	mov	r0, r3
 80021ec:	b003      	add	sp, #12
 80021ee:	bdf0      	pop	{r4, r5, r6, r7, pc}
 80021f0:	68df      	ldr	r7, [r3, #12]
 80021f2:	fa06 f202 	lsl.w	r2, r6, r2
 80021f6:	433a      	orrs	r2, r7
 80021f8:	e7d6      	b.n	80021a8 <HAL_ADC_ConfigChannel+0x48>
 80021fa:	f04f 0c07 	mov.w	ip, #7
 80021fe:	691f      	ldr	r7, [r3, #16]
 8002200:	4096      	lsls	r6, r2
 8002202:	fa0c fc02 	lsl.w	ip, ip, r2
 8002206:	ea27 070c 	bic.w	r7, r7, ip
 800220a:	611f      	str	r7, [r3, #16]
 800220c:	691f      	ldr	r7, [r3, #16]
 800220e:	433e      	orrs	r6, r7
 8002210:	611e      	str	r6, [r3, #16]
 8002212:	e7ca      	b.n	80021aa <HAL_ADC_ConfigChannel+0x4a>
 8002214:	290c      	cmp	r1, #12
 8002216:	f04f 011f 	mov.w	r1, #31
 800221a:	d80b      	bhi.n	8002234 <HAL_ADC_ConfigChannel+0xd4>
 800221c:	3a23      	subs	r2, #35	; 0x23
 800221e:	6b1e      	ldr	r6, [r3, #48]	; 0x30
 8002220:	4091      	lsls	r1, r2
 8002222:	fa05 f202 	lsl.w	r2, r5, r2
 8002226:	ea26 0101 	bic.w	r1, r6, r1
 800222a:	6319      	str	r1, [r3, #48]	; 0x30
 800222c:	6b19      	ldr	r1, [r3, #48]	; 0x30
 800222e:	430a      	orrs	r2, r1
 8002230:	631a      	str	r2, [r3, #48]	; 0x30
 8002232:	e7cb      	b.n	80021cc <HAL_ADC_ConfigChannel+0x6c>
 8002234:	3a41      	subs	r2, #65	; 0x41
 8002236:	6ade      	ldr	r6, [r3, #44]	; 0x2c
 8002238:	4091      	lsls	r1, r2
 800223a:	4095      	lsls	r5, r2
 800223c:	ea26 0101 	bic.w	r1, r6, r1
 8002240:	62d9      	str	r1, [r3, #44]	; 0x2c
 8002242:	6ad9      	ldr	r1, [r3, #44]	; 0x2c
 8002244:	430d      	orrs	r5, r1
 8002246:	62dd      	str	r5, [r3, #44]	; 0x2c
 8002248:	e7c0      	b.n	80021cc <HAL_ADC_ConfigChannel+0x6c>
 800224a:	4b18      	ldr	r3, [pc, #96]	; (80022ac <HAL_ADC_ConfigChannel+0x14c>)
 800224c:	685a      	ldr	r2, [r3, #4]
 800224e:	f422 0200 	bic.w	r2, r2, #8388608	; 0x800000
 8002252:	605a      	str	r2, [r3, #4]
 8002254:	685a      	ldr	r2, [r3, #4]
 8002256:	f442 0280 	orr.w	r2, r2, #4194304	; 0x400000
 800225a:	605a      	str	r2, [r3, #4]
 800225c:	e7c2      	b.n	80021e4 <HAL_ADC_ConfigChannel+0x84>
 800225e:	2002      	movs	r0, #2
 8002260:	e7c4      	b.n	80021ec <HAL_ADC_ConfigChannel+0x8c>
 8002262:	2c12      	cmp	r4, #18
 8002264:	d0f1      	beq.n	800224a <HAL_ADC_ConfigChannel+0xea>
 8002266:	4b0f      	ldr	r3, [pc, #60]	; (80022a4 <HAL_ADC_ConfigChannel+0x144>)
 8002268:	429c      	cmp	r4, r3
 800226a:	d001      	beq.n	8002270 <HAL_ADC_ConfigChannel+0x110>
 800226c:	2c11      	cmp	r4, #17
 800226e:	d1b9      	bne.n	80021e4 <HAL_ADC_ConfigChannel+0x84>
 8002270:	4b0e      	ldr	r3, [pc, #56]	; (80022ac <HAL_ADC_ConfigChannel+0x14c>)
 8002272:	685a      	ldr	r2, [r3, #4]
 8002274:	f422 0280 	bic.w	r2, r2, #4194304	; 0x400000
 8002278:	605a      	str	r2, [r3, #4]
 800227a:	685a      	ldr	r2, [r3, #4]
 800227c:	f442 0200 	orr.w	r2, r2, #8388608	; 0x800000
 8002280:	605a      	str	r2, [r3, #4]
 8002282:	4b08      	ldr	r3, [pc, #32]	; (80022a4 <HAL_ADC_ConfigChannel+0x144>)
 8002284:	429c      	cmp	r4, r3
 8002286:	d1ad      	bne.n	80021e4 <HAL_ADC_ConfigChannel+0x84>
 8002288:	4b09      	ldr	r3, [pc, #36]	; (80022b0 <HAL_ADC_ConfigChannel+0x150>)
 800228a:	4a0a      	ldr	r2, [pc, #40]	; (80022b4 <HAL_ADC_ConfigChannel+0x154>)
 800228c:	681b      	ldr	r3, [r3, #0]
 800228e:	fbb3 f3f2 	udiv	r3, r3, r2
 8002292:	220a      	movs	r2, #10
 8002294:	4353      	muls	r3, r2
 8002296:	9301      	str	r3, [sp, #4]
 8002298:	9b01      	ldr	r3, [sp, #4]
 800229a:	2b00      	cmp	r3, #0
 800229c:	d0a2      	beq.n	80021e4 <HAL_ADC_ConfigChannel+0x84>
 800229e:	9b01      	ldr	r3, [sp, #4]
 80022a0:	3b01      	subs	r3, #1
 80022a2:	e7f8      	b.n	8002296 <HAL_ADC_ConfigChannel+0x136>
 80022a4:	10000012 	.word	0x10000012
 80022a8:	40012000 	.word	0x40012000
 80022ac:	40012300 	.word	0x40012300
 80022b0:	200000e0 	.word	0x200000e0
 80022b4:	000f4240 	.word	0x000f4240

080022b8 <HAL_NVIC_SetPriorityGrouping>:
 80022b8:	4907      	ldr	r1, [pc, #28]	; (80022d8 <HAL_NVIC_SetPriorityGrouping+0x20>)
 80022ba:	0203      	lsls	r3, r0, #8
 80022bc:	68ca      	ldr	r2, [r1, #12]
 80022be:	f403 63e0 	and.w	r3, r3, #1792	; 0x700
 80022c2:	f422 62e0 	bic.w	r2, r2, #1792	; 0x700
 80022c6:	0412      	lsls	r2, r2, #16
 80022c8:	0c12      	lsrs	r2, r2, #16
 80022ca:	4313      	orrs	r3, r2
 80022cc:	f043 63bf 	orr.w	r3, r3, #100139008	; 0x5f80000
 80022d0:	f443 3300 	orr.w	r3, r3, #131072	; 0x20000
 80022d4:	60cb      	str	r3, [r1, #12]
 80022d6:	4770      	bx	lr
 80022d8:	e000ed00 	.word	0xe000ed00

080022dc <HAL_NVIC_SetPriority>:
 80022dc:	4b16      	ldr	r3, [pc, #88]	; (8002338 <HAL_NVIC_SetPriority+0x5c>)
 80022de:	b530      	push	{r4, r5, lr}
 80022e0:	68dc      	ldr	r4, [r3, #12]
 80022e2:	f3c4 2402 	ubfx	r4, r4, #8, #3
 80022e6:	f1c4 0307 	rsb	r3, r4, #7
 80022ea:	1d25      	adds	r5, r4, #4
 80022ec:	2b04      	cmp	r3, #4
 80022ee:	bf28      	it	cs
 80022f0:	2304      	movcs	r3, #4
 80022f2:	2d06      	cmp	r5, #6
 80022f4:	f04f 35ff 	mov.w	r5, #4294967295
 80022f8:	bf8c      	ite	hi
 80022fa:	3c03      	subhi	r4, #3
 80022fc:	2400      	movls	r4, #0
 80022fe:	fa05 f303 	lsl.w	r3, r5, r3
 8002302:	2800      	cmp	r0, #0
 8002304:	fa05 f504 	lsl.w	r5, r5, r4
 8002308:	ea21 0303 	bic.w	r3, r1, r3
 800230c:	ea22 0205 	bic.w	r2, r2, r5
 8002310:	fa03 f304 	lsl.w	r3, r3, r4
 8002314:	ea43 0302 	orr.w	r3, r3, r2
 8002318:	ea4f 1303 	mov.w	r3, r3, lsl #4
 800231c:	b2db      	uxtb	r3, r3
 800231e:	db06      	blt.n	800232e <HAL_NVIC_SetPriority+0x52>
 8002320:	f100 4060 	add.w	r0, r0, #3758096384	; 0xe0000000
 8002324:	f500 4061 	add.w	r0, r0, #57600	; 0xe100
 8002328:	f880 3300 	strb.w	r3, [r0, #768]	; 0x300
 800232c:	bd30      	pop	{r4, r5, pc}
 800232e:	f000 000f 	and.w	r0, r0, #15
 8002332:	4a02      	ldr	r2, [pc, #8]	; (800233c <HAL_NVIC_SetPriority+0x60>)
 8002334:	5413      	strb	r3, [r2, r0]
 8002336:	e7f9      	b.n	800232c <HAL_NVIC_SetPriority+0x50>
 8002338:	e000ed00 	.word	0xe000ed00
 800233c:	e000ed14 	.word	0xe000ed14

08002340 <HAL_NVIC_EnableIRQ>:
 8002340:	2800      	cmp	r0, #0
 8002342:	db07      	blt.n	8002354 <HAL_NVIC_EnableIRQ+0x14>
 8002344:	0941      	lsrs	r1, r0, #5
 8002346:	2301      	movs	r3, #1
 8002348:	f000 001f 	and.w	r0, r0, #31
 800234c:	4a02      	ldr	r2, [pc, #8]	; (8002358 <HAL_NVIC_EnableIRQ+0x18>)
 800234e:	4083      	lsls	r3, r0
 8002350:	f842 3021 	str.w	r3, [r2, r1, lsl #2]
 8002354:	4770      	bx	lr
 8002356:	bf00      	nop
 8002358:	e000e100 	.word	0xe000e100

0800235c <HAL_NVIC_DisableIRQ>:
 800235c:	2800      	cmp	r0, #0
 800235e:	db0c      	blt.n	800237a <HAL_NVIC_DisableIRQ+0x1e>
 8002360:	0943      	lsrs	r3, r0, #5
 8002362:	2201      	movs	r2, #1
 8002364:	f000 001f 	and.w	r0, r0, #31
 8002368:	4904      	ldr	r1, [pc, #16]	; (800237c <HAL_NVIC_DisableIRQ+0x20>)
 800236a:	3320      	adds	r3, #32
 800236c:	4082      	lsls	r2, r0
 800236e:	f841 2023 	str.w	r2, [r1, r3, lsl #2]
 8002372:	f3bf 8f4f 	dsb	sy
 8002376:	f3bf 8f6f 	isb	sy
 800237a:	4770      	bx	lr
 800237c:	e000e100 	.word	0xe000e100

08002380 <DMA_CalcBaseAndBitshift>:
 8002380:	6803      	ldr	r3, [r0, #0]
 8002382:	2118      	movs	r1, #24
 8002384:	b2da      	uxtb	r2, r3
 8002386:	f423 737f 	bic.w	r3, r3, #1020	; 0x3fc
 800238a:	3a10      	subs	r2, #16
 800238c:	f023 0303 	bic.w	r3, r3, #3
 8002390:	fbb2 f1f1 	udiv	r1, r2, r1
 8002394:	b510      	push	{r4, lr}
 8002396:	2a5f      	cmp	r2, #95	; 0x5f
 8002398:	4c03      	ldr	r4, [pc, #12]	; (80023a8 <DMA_CalcBaseAndBitshift+0x28>)
 800239a:	bf88      	it	hi
 800239c:	3304      	addhi	r3, #4
 800239e:	5c61      	ldrb	r1, [r4, r1]
 80023a0:	6583      	str	r3, [r0, #88]	; 0x58
 80023a2:	65c1      	str	r1, [r0, #92]	; 0x5c
 80023a4:	4618      	mov	r0, r3
 80023a6:	bd10      	pop	{r4, pc}
 80023a8:	080094e0 	.word	0x080094e0

080023ac <HAL_DMA_Init>:
 80023ac:	b570      	push	{r4, r5, r6, lr}
 80023ae:	4604      	mov	r4, r0
 80023b0:	f7ff fcfe 	bl	8001db0 <HAL_GetTick>
 80023b4:	4605      	mov	r5, r0
 80023b6:	2c00      	cmp	r4, #0
 80023b8:	d060      	beq.n	800247c <HAL_DMA_Init+0xd0>
 80023ba:	2302      	movs	r3, #2
 80023bc:	6822      	ldr	r2, [r4, #0]
 80023be:	f884 3035 	strb.w	r3, [r4, #53]	; 0x35
 80023c2:	2300      	movs	r3, #0
 80023c4:	f884 3034 	strb.w	r3, [r4, #52]	; 0x34
 80023c8:	6813      	ldr	r3, [r2, #0]
 80023ca:	f023 0301 	bic.w	r3, r3, #1
 80023ce:	6013      	str	r3, [r2, #0]
 80023d0:	6822      	ldr	r2, [r4, #0]
 80023d2:	6813      	ldr	r3, [r2, #0]
 80023d4:	07d8      	lsls	r0, r3, #31
 80023d6:	d42e      	bmi.n	8002436 <HAL_DMA_Init+0x8a>
 80023d8:	6813      	ldr	r3, [r2, #0]
 80023da:	4832      	ldr	r0, [pc, #200]	; (80024a4 <HAL_DMA_Init+0xf8>)
 80023dc:	69a1      	ldr	r1, [r4, #24]
 80023de:	4018      	ands	r0, r3
 80023e0:	e9d4 3501 	ldrd	r3, r5, [r4, #4]
 80023e4:	432b      	orrs	r3, r5
 80023e6:	68e5      	ldr	r5, [r4, #12]
 80023e8:	432b      	orrs	r3, r5
 80023ea:	6925      	ldr	r5, [r4, #16]
 80023ec:	432b      	orrs	r3, r5
 80023ee:	6965      	ldr	r5, [r4, #20]
 80023f0:	432b      	orrs	r3, r5
 80023f2:	69e5      	ldr	r5, [r4, #28]
 80023f4:	430b      	orrs	r3, r1
 80023f6:	432b      	orrs	r3, r5
 80023f8:	6a25      	ldr	r5, [r4, #32]
 80023fa:	432b      	orrs	r3, r5
 80023fc:	4303      	orrs	r3, r0
 80023fe:	6a60      	ldr	r0, [r4, #36]	; 0x24
 8002400:	2804      	cmp	r0, #4
 8002402:	bf02      	ittt	eq
 8002404:	e9d4 560b 	ldrdeq	r5, r6, [r4, #44]	; 0x2c
 8002408:	4335      	orreq	r5, r6
 800240a:	432b      	orreq	r3, r5
 800240c:	2804      	cmp	r0, #4
 800240e:	6013      	str	r3, [r2, #0]
 8002410:	6953      	ldr	r3, [r2, #20]
 8002412:	f023 0307 	bic.w	r3, r3, #7
 8002416:	ea43 0300 	orr.w	r3, r3, r0
 800241a:	d135      	bne.n	8002488 <HAL_DMA_Init+0xdc>
 800241c:	6aa0      	ldr	r0, [r4, #40]	; 0x28
 800241e:	6ae5      	ldr	r5, [r4, #44]	; 0x2c
 8002420:	4303      	orrs	r3, r0
 8002422:	b38d      	cbz	r5, 8002488 <HAL_DMA_Init+0xdc>
 8002424:	b991      	cbnz	r1, 800244c <HAL_DMA_Init+0xa0>
 8002426:	2801      	cmp	r0, #1
 8002428:	d020      	beq.n	800246c <HAL_DMA_Init+0xc0>
 800242a:	f030 0102 	bics.w	r1, r0, #2
 800242e:	d12b      	bne.n	8002488 <HAL_DMA_Init+0xdc>
 8002430:	01e9      	lsls	r1, r5, #7
 8002432:	d529      	bpl.n	8002488 <HAL_DMA_Init+0xdc>
 8002434:	e01d      	b.n	8002472 <HAL_DMA_Init+0xc6>
 8002436:	f7ff fcbb 	bl	8001db0 <HAL_GetTick>
 800243a:	1b40      	subs	r0, r0, r5
 800243c:	2805      	cmp	r0, #5
 800243e:	d9c7      	bls.n	80023d0 <HAL_DMA_Init+0x24>
 8002440:	2320      	movs	r3, #32
 8002442:	2003      	movs	r0, #3
 8002444:	6563      	str	r3, [r4, #84]	; 0x54
 8002446:	f884 0035 	strb.w	r0, [r4, #53]	; 0x35
 800244a:	bd70      	pop	{r4, r5, r6, pc}
 800244c:	f5b1 5f00 	cmp.w	r1, #8192	; 0x2000
 8002450:	d116      	bne.n	8002480 <HAL_DMA_Init+0xd4>
 8002452:	2803      	cmp	r0, #3
 8002454:	d818      	bhi.n	8002488 <HAL_DMA_Init+0xdc>
 8002456:	a101      	add	r1, pc, #4	; (adr r1, 800245c <HAL_DMA_Init+0xb0>)
 8002458:	f851 f020 	ldr.w	pc, [r1, r0, lsl #2]
 800245c:	08002473 	.word	0x08002473
 8002460:	08002431 	.word	0x08002431
 8002464:	08002473 	.word	0x08002473
 8002468:	0800246d 	.word	0x0800246d
 800246c:	f1b5 7fc0 	cmp.w	r5, #25165824	; 0x1800000
 8002470:	d10a      	bne.n	8002488 <HAL_DMA_Init+0xdc>
 8002472:	2340      	movs	r3, #64	; 0x40
 8002474:	6563      	str	r3, [r4, #84]	; 0x54
 8002476:	2300      	movs	r3, #0
 8002478:	f884 3035 	strb.w	r3, [r4, #53]	; 0x35
 800247c:	2001      	movs	r0, #1
 800247e:	e7e4      	b.n	800244a <HAL_DMA_Init+0x9e>
 8002480:	2802      	cmp	r0, #2
 8002482:	d9f6      	bls.n	8002472 <HAL_DMA_Init+0xc6>
 8002484:	2803      	cmp	r0, #3
 8002486:	d0d3      	beq.n	8002430 <HAL_DMA_Init+0x84>
 8002488:	6153      	str	r3, [r2, #20]
 800248a:	4620      	mov	r0, r4
 800248c:	f7ff ff78 	bl	8002380 <DMA_CalcBaseAndBitshift>
 8002490:	6de2      	ldr	r2, [r4, #92]	; 0x5c
 8002492:	233f      	movs	r3, #63	; 0x3f
 8002494:	4093      	lsls	r3, r2
 8002496:	6083      	str	r3, [r0, #8]
 8002498:	2000      	movs	r0, #0
 800249a:	2301      	movs	r3, #1
 800249c:	6560      	str	r0, [r4, #84]	; 0x54
 800249e:	f884 3035 	strb.w	r3, [r4, #53]	; 0x35
 80024a2:	e7d2      	b.n	800244a <HAL_DMA_Init+0x9e>
 80024a4:	e010803f 	.word	0xe010803f

080024a8 <HAL_DMA_Start_IT>:
 80024a8:	b570      	push	{r4, r5, r6, lr}
 80024aa:	f890 4034 	ldrb.w	r4, [r0, #52]	; 0x34
 80024ae:	6d86      	ldr	r6, [r0, #88]	; 0x58
 80024b0:	2c01      	cmp	r4, #1
 80024b2:	d034      	beq.n	800251e <HAL_DMA_Start_IT+0x76>
 80024b4:	2401      	movs	r4, #1
 80024b6:	2500      	movs	r5, #0
 80024b8:	f880 4034 	strb.w	r4, [r0, #52]	; 0x34
 80024bc:	f890 4035 	ldrb.w	r4, [r0, #53]	; 0x35
 80024c0:	2c01      	cmp	r4, #1
 80024c2:	f04f 0402 	mov.w	r4, #2
 80024c6:	d128      	bne.n	800251a <HAL_DMA_Start_IT+0x72>
 80024c8:	f880 4035 	strb.w	r4, [r0, #53]	; 0x35
 80024cc:	6804      	ldr	r4, [r0, #0]
 80024ce:	6545      	str	r5, [r0, #84]	; 0x54
 80024d0:	6825      	ldr	r5, [r4, #0]
 80024d2:	f425 2580 	bic.w	r5, r5, #262144	; 0x40000
 80024d6:	6025      	str	r5, [r4, #0]
 80024d8:	6063      	str	r3, [r4, #4]
 80024da:	6883      	ldr	r3, [r0, #8]
 80024dc:	2b40      	cmp	r3, #64	; 0x40
 80024de:	d119      	bne.n	8002514 <HAL_DMA_Start_IT+0x6c>
 80024e0:	60a2      	str	r2, [r4, #8]
 80024e2:	60e1      	str	r1, [r4, #12]
 80024e4:	6dc2      	ldr	r2, [r0, #92]	; 0x5c
 80024e6:	233f      	movs	r3, #63	; 0x3f
 80024e8:	4093      	lsls	r3, r2
 80024ea:	60b3      	str	r3, [r6, #8]
 80024ec:	6823      	ldr	r3, [r4, #0]
 80024ee:	f043 0316 	orr.w	r3, r3, #22
 80024f2:	6023      	str	r3, [r4, #0]
 80024f4:	6963      	ldr	r3, [r4, #20]
 80024f6:	f043 0380 	orr.w	r3, r3, #128	; 0x80
 80024fa:	6163      	str	r3, [r4, #20]
 80024fc:	6c03      	ldr	r3, [r0, #64]	; 0x40
 80024fe:	b11b      	cbz	r3, 8002508 <HAL_DMA_Start_IT+0x60>
 8002500:	6823      	ldr	r3, [r4, #0]
 8002502:	f043 0308 	orr.w	r3, r3, #8
 8002506:	6023      	str	r3, [r4, #0]
 8002508:	6823      	ldr	r3, [r4, #0]
 800250a:	2000      	movs	r0, #0
 800250c:	f043 0301 	orr.w	r3, r3, #1
 8002510:	6023      	str	r3, [r4, #0]
 8002512:	bd70      	pop	{r4, r5, r6, pc}
 8002514:	60a1      	str	r1, [r4, #8]
 8002516:	60e2      	str	r2, [r4, #12]
 8002518:	e7e4      	b.n	80024e4 <HAL_DMA_Start_IT+0x3c>
 800251a:	f880 5034 	strb.w	r5, [r0, #52]	; 0x34
 800251e:	2002      	movs	r0, #2
 8002520:	e7f7      	b.n	8002512 <HAL_DMA_Start_IT+0x6a>

08002522 <HAL_DMA_Abort>:
 8002522:	b570      	push	{r4, r5, r6, lr}
 8002524:	4604      	mov	r4, r0
 8002526:	6d86      	ldr	r6, [r0, #88]	; 0x58
 8002528:	f7ff fc42 	bl	8001db0 <HAL_GetTick>
 800252c:	4605      	mov	r5, r0
 800252e:	f894 3035 	ldrb.w	r3, [r4, #53]	; 0x35
 8002532:	2b02      	cmp	r3, #2
 8002534:	d006      	beq.n	8002544 <HAL_DMA_Abort+0x22>
 8002536:	2380      	movs	r3, #128	; 0x80
 8002538:	2001      	movs	r0, #1
 800253a:	6563      	str	r3, [r4, #84]	; 0x54
 800253c:	2300      	movs	r3, #0
 800253e:	f884 3034 	strb.w	r3, [r4, #52]	; 0x34
 8002542:	bd70      	pop	{r4, r5, r6, pc}
 8002544:	6823      	ldr	r3, [r4, #0]
 8002546:	681a      	ldr	r2, [r3, #0]
 8002548:	f022 0216 	bic.w	r2, r2, #22
 800254c:	601a      	str	r2, [r3, #0]
 800254e:	695a      	ldr	r2, [r3, #20]
 8002550:	f022 0280 	bic.w	r2, r2, #128	; 0x80
 8002554:	615a      	str	r2, [r3, #20]
 8002556:	6c22      	ldr	r2, [r4, #64]	; 0x40
 8002558:	b90a      	cbnz	r2, 800255e <HAL_DMA_Abort+0x3c>
 800255a:	6ca2      	ldr	r2, [r4, #72]	; 0x48
 800255c:	b11a      	cbz	r2, 8002566 <HAL_DMA_Abort+0x44>
 800255e:	681a      	ldr	r2, [r3, #0]
 8002560:	f022 0208 	bic.w	r2, r2, #8
 8002564:	601a      	str	r2, [r3, #0]
 8002566:	681a      	ldr	r2, [r3, #0]
 8002568:	f022 0201 	bic.w	r2, r2, #1
 800256c:	601a      	str	r2, [r3, #0]
 800256e:	6823      	ldr	r3, [r4, #0]
 8002570:	681b      	ldr	r3, [r3, #0]
 8002572:	f013 0301 	ands.w	r3, r3, #1
 8002576:	d108      	bne.n	800258a <HAL_DMA_Abort+0x68>
 8002578:	6de1      	ldr	r1, [r4, #92]	; 0x5c
 800257a:	223f      	movs	r2, #63	; 0x3f
 800257c:	4618      	mov	r0, r3
 800257e:	408a      	lsls	r2, r1
 8002580:	60b2      	str	r2, [r6, #8]
 8002582:	2201      	movs	r2, #1
 8002584:	f884 2035 	strb.w	r2, [r4, #53]	; 0x35
 8002588:	e7d8      	b.n	800253c <HAL_DMA_Abort+0x1a>
 800258a:	f7ff fc11 	bl	8001db0 <HAL_GetTick>
 800258e:	1b40      	subs	r0, r0, r5
 8002590:	2805      	cmp	r0, #5
 8002592:	d9ec      	bls.n	800256e <HAL_DMA_Abort+0x4c>
 8002594:	2320      	movs	r3, #32
 8002596:	2003      	movs	r0, #3
 8002598:	6563      	str	r3, [r4, #84]	; 0x54
 800259a:	f884 0035 	strb.w	r0, [r4, #53]	; 0x35
 800259e:	e7cd      	b.n	800253c <HAL_DMA_Abort+0x1a>

080025a0 <HAL_DMA_Abort_IT>:
 80025a0:	f890 3035 	ldrb.w	r3, [r0, #53]	; 0x35
 80025a4:	2b02      	cmp	r3, #2
 80025a6:	d003      	beq.n	80025b0 <HAL_DMA_Abort_IT+0x10>
 80025a8:	2380      	movs	r3, #128	; 0x80
 80025aa:	6543      	str	r3, [r0, #84]	; 0x54
 80025ac:	2001      	movs	r0, #1
 80025ae:	4770      	bx	lr
 80025b0:	6802      	ldr	r2, [r0, #0]
 80025b2:	2305      	movs	r3, #5
 80025b4:	f880 3035 	strb.w	r3, [r0, #53]	; 0x35
 80025b8:	2000      	movs	r0, #0
 80025ba:	6813      	ldr	r3, [r2, #0]
 80025bc:	f023 0301 	bic.w	r3, r3, #1
 80025c0:	6013      	str	r3, [r2, #0]
 80025c2:	4770      	bx	lr

080025c4 <HAL_DMA_IRQHandler>:
 80025c4:	2300      	movs	r3, #0
 80025c6:	b5f7      	push	{r0, r1, r2, r4, r5, r6, r7, lr}
 80025c8:	9301      	str	r3, [sp, #4]
 80025ca:	2208      	movs	r2, #8
 80025cc:	4b5b      	ldr	r3, [pc, #364]	; (800273c <HAL_DMA_IRQHandler+0x178>)
 80025ce:	4604      	mov	r4, r0
 80025d0:	6d85      	ldr	r5, [r0, #88]	; 0x58
 80025d2:	681f      	ldr	r7, [r3, #0]
 80025d4:	6dc3      	ldr	r3, [r0, #92]	; 0x5c
 80025d6:	682e      	ldr	r6, [r5, #0]
 80025d8:	409a      	lsls	r2, r3
 80025da:	4232      	tst	r2, r6
 80025dc:	d00c      	beq.n	80025f8 <HAL_DMA_IRQHandler+0x34>
 80025de:	6801      	ldr	r1, [r0, #0]
 80025e0:	6808      	ldr	r0, [r1, #0]
 80025e2:	0740      	lsls	r0, r0, #29
 80025e4:	d508      	bpl.n	80025f8 <HAL_DMA_IRQHandler+0x34>
 80025e6:	6808      	ldr	r0, [r1, #0]
 80025e8:	f020 0004 	bic.w	r0, r0, #4
 80025ec:	6008      	str	r0, [r1, #0]
 80025ee:	60aa      	str	r2, [r5, #8]
 80025f0:	6d62      	ldr	r2, [r4, #84]	; 0x54
 80025f2:	f042 0201 	orr.w	r2, r2, #1
 80025f6:	6562      	str	r2, [r4, #84]	; 0x54
 80025f8:	2201      	movs	r2, #1
 80025fa:	409a      	lsls	r2, r3
 80025fc:	4232      	tst	r2, r6
 80025fe:	d008      	beq.n	8002612 <HAL_DMA_IRQHandler+0x4e>
 8002600:	6821      	ldr	r1, [r4, #0]
 8002602:	6949      	ldr	r1, [r1, #20]
 8002604:	0609      	lsls	r1, r1, #24
 8002606:	d504      	bpl.n	8002612 <HAL_DMA_IRQHandler+0x4e>
 8002608:	60aa      	str	r2, [r5, #8]
 800260a:	6d62      	ldr	r2, [r4, #84]	; 0x54
 800260c:	f042 0202 	orr.w	r2, r2, #2
 8002610:	6562      	str	r2, [r4, #84]	; 0x54
 8002612:	2204      	movs	r2, #4
 8002614:	409a      	lsls	r2, r3
 8002616:	4232      	tst	r2, r6
 8002618:	d008      	beq.n	800262c <HAL_DMA_IRQHandler+0x68>
 800261a:	6821      	ldr	r1, [r4, #0]
 800261c:	6809      	ldr	r1, [r1, #0]
 800261e:	0788      	lsls	r0, r1, #30
 8002620:	d504      	bpl.n	800262c <HAL_DMA_IRQHandler+0x68>
 8002622:	60aa      	str	r2, [r5, #8]
 8002624:	6d62      	ldr	r2, [r4, #84]	; 0x54
 8002626:	f042 0204 	orr.w	r2, r2, #4
 800262a:	6562      	str	r2, [r4, #84]	; 0x54
 800262c:	2210      	movs	r2, #16
 800262e:	409a      	lsls	r2, r3
 8002630:	4232      	tst	r2, r6
 8002632:	d010      	beq.n	8002656 <HAL_DMA_IRQHandler+0x92>
 8002634:	6823      	ldr	r3, [r4, #0]
 8002636:	6819      	ldr	r1, [r3, #0]
 8002638:	0709      	lsls	r1, r1, #28
 800263a:	d50c      	bpl.n	8002656 <HAL_DMA_IRQHandler+0x92>
 800263c:	60aa      	str	r2, [r5, #8]
 800263e:	681a      	ldr	r2, [r3, #0]
 8002640:	0350      	lsls	r0, r2, #13
 8002642:	d537      	bpl.n	80026b4 <HAL_DMA_IRQHandler+0xf0>
 8002644:	681b      	ldr	r3, [r3, #0]
 8002646:	0319      	lsls	r1, r3, #12
 8002648:	d401      	bmi.n	800264e <HAL_DMA_IRQHandler+0x8a>
 800264a:	6c23      	ldr	r3, [r4, #64]	; 0x40
 800264c:	e000      	b.n	8002650 <HAL_DMA_IRQHandler+0x8c>
 800264e:	6ca3      	ldr	r3, [r4, #72]	; 0x48
 8002650:	b10b      	cbz	r3, 8002656 <HAL_DMA_IRQHandler+0x92>
 8002652:	4620      	mov	r0, r4
 8002654:	4798      	blx	r3
 8002656:	6de1      	ldr	r1, [r4, #92]	; 0x5c
 8002658:	2220      	movs	r2, #32
 800265a:	408a      	lsls	r2, r1
 800265c:	4232      	tst	r2, r6
 800265e:	d03a      	beq.n	80026d6 <HAL_DMA_IRQHandler+0x112>
 8002660:	6823      	ldr	r3, [r4, #0]
 8002662:	6818      	ldr	r0, [r3, #0]
 8002664:	06c6      	lsls	r6, r0, #27
 8002666:	d536      	bpl.n	80026d6 <HAL_DMA_IRQHandler+0x112>
 8002668:	60aa      	str	r2, [r5, #8]
 800266a:	f894 2035 	ldrb.w	r2, [r4, #53]	; 0x35
 800266e:	2a05      	cmp	r2, #5
 8002670:	681a      	ldr	r2, [r3, #0]
 8002672:	d127      	bne.n	80026c4 <HAL_DMA_IRQHandler+0x100>
 8002674:	f022 0216 	bic.w	r2, r2, #22
 8002678:	601a      	str	r2, [r3, #0]
 800267a:	695a      	ldr	r2, [r3, #20]
 800267c:	f022 0280 	bic.w	r2, r2, #128	; 0x80
 8002680:	615a      	str	r2, [r3, #20]
 8002682:	6c22      	ldr	r2, [r4, #64]	; 0x40
 8002684:	b90a      	cbnz	r2, 800268a <HAL_DMA_IRQHandler+0xc6>
 8002686:	6ca2      	ldr	r2, [r4, #72]	; 0x48
 8002688:	b11a      	cbz	r2, 8002692 <HAL_DMA_IRQHandler+0xce>
 800268a:	681a      	ldr	r2, [r3, #0]
 800268c:	f022 0208 	bic.w	r2, r2, #8
 8002690:	601a      	str	r2, [r3, #0]
 8002692:	233f      	movs	r3, #63	; 0x3f
 8002694:	408b      	lsls	r3, r1
 8002696:	60ab      	str	r3, [r5, #8]
 8002698:	2301      	movs	r3, #1
 800269a:	f884 3035 	strb.w	r3, [r4, #53]	; 0x35
 800269e:	2300      	movs	r3, #0
 80026a0:	f884 3034 	strb.w	r3, [r4, #52]	; 0x34
 80026a4:	6d23      	ldr	r3, [r4, #80]	; 0x50
 80026a6:	2b00      	cmp	r3, #0
 80026a8:	d045      	beq.n	8002736 <HAL_DMA_IRQHandler+0x172>
 80026aa:	4620      	mov	r0, r4
 80026ac:	b003      	add	sp, #12
 80026ae:	e8bd 40f0 	ldmia.w	sp!, {r4, r5, r6, r7, lr}
 80026b2:	4718      	bx	r3
 80026b4:	681a      	ldr	r2, [r3, #0]
 80026b6:	05d2      	lsls	r2, r2, #23
 80026b8:	d4c7      	bmi.n	800264a <HAL_DMA_IRQHandler+0x86>
 80026ba:	681a      	ldr	r2, [r3, #0]
 80026bc:	f022 0208 	bic.w	r2, r2, #8
 80026c0:	601a      	str	r2, [r3, #0]
 80026c2:	e7c2      	b.n	800264a <HAL_DMA_IRQHandler+0x86>
 80026c4:	0350      	lsls	r0, r2, #13
 80026c6:	d527      	bpl.n	8002718 <HAL_DMA_IRQHandler+0x154>
 80026c8:	681b      	ldr	r3, [r3, #0]
 80026ca:	0319      	lsls	r1, r3, #12
 80026cc:	d431      	bmi.n	8002732 <HAL_DMA_IRQHandler+0x16e>
 80026ce:	6c63      	ldr	r3, [r4, #68]	; 0x44
 80026d0:	b10b      	cbz	r3, 80026d6 <HAL_DMA_IRQHandler+0x112>
 80026d2:	4620      	mov	r0, r4
 80026d4:	4798      	blx	r3
 80026d6:	6d63      	ldr	r3, [r4, #84]	; 0x54
 80026d8:	b36b      	cbz	r3, 8002736 <HAL_DMA_IRQHandler+0x172>
 80026da:	6d63      	ldr	r3, [r4, #84]	; 0x54
 80026dc:	07da      	lsls	r2, r3, #31
 80026de:	d519      	bpl.n	8002714 <HAL_DMA_IRQHandler+0x150>
 80026e0:	f44f 5316 	mov.w	r3, #9600	; 0x2580
 80026e4:	6822      	ldr	r2, [r4, #0]
 80026e6:	fbb7 f7f3 	udiv	r7, r7, r3
 80026ea:	2305      	movs	r3, #5
 80026ec:	f884 3035 	strb.w	r3, [r4, #53]	; 0x35
 80026f0:	6813      	ldr	r3, [r2, #0]
 80026f2:	f023 0301 	bic.w	r3, r3, #1
 80026f6:	6013      	str	r3, [r2, #0]
 80026f8:	9b01      	ldr	r3, [sp, #4]
 80026fa:	3301      	adds	r3, #1
 80026fc:	42bb      	cmp	r3, r7
 80026fe:	9301      	str	r3, [sp, #4]
 8002700:	d802      	bhi.n	8002708 <HAL_DMA_IRQHandler+0x144>
 8002702:	6813      	ldr	r3, [r2, #0]
 8002704:	07db      	lsls	r3, r3, #31
 8002706:	d4f7      	bmi.n	80026f8 <HAL_DMA_IRQHandler+0x134>
 8002708:	2301      	movs	r3, #1
 800270a:	f884 3035 	strb.w	r3, [r4, #53]	; 0x35
 800270e:	2300      	movs	r3, #0
 8002710:	f884 3034 	strb.w	r3, [r4, #52]	; 0x34
 8002714:	6ce3      	ldr	r3, [r4, #76]	; 0x4c
 8002716:	e7c6      	b.n	80026a6 <HAL_DMA_IRQHandler+0xe2>
 8002718:	681a      	ldr	r2, [r3, #0]
 800271a:	f412 7280 	ands.w	r2, r2, #256	; 0x100
 800271e:	d108      	bne.n	8002732 <HAL_DMA_IRQHandler+0x16e>
 8002720:	6819      	ldr	r1, [r3, #0]
 8002722:	f021 0110 	bic.w	r1, r1, #16
 8002726:	6019      	str	r1, [r3, #0]
 8002728:	2301      	movs	r3, #1
 800272a:	f884 2034 	strb.w	r2, [r4, #52]	; 0x34
 800272e:	f884 3035 	strb.w	r3, [r4, #53]	; 0x35
 8002732:	6be3      	ldr	r3, [r4, #60]	; 0x3c
 8002734:	e7cc      	b.n	80026d0 <HAL_DMA_IRQHandler+0x10c>
 8002736:	b003      	add	sp, #12
 8002738:	bdf0      	pop	{r4, r5, r6, r7, pc}
 800273a:	bf00      	nop
 800273c:	200000e0 	.word	0x200000e0

08002740 <HAL_GPIO_Init>:
 8002740:	e92d 4ff7 	stmdb	sp!, {r0, r1, r2, r4, r5, r6, r7, r8, r9, sl, fp, lr}
 8002744:	2300      	movs	r3, #0
 8002746:	f8df 91b8 	ldr.w	r9, [pc, #440]	; 8002900 <HAL_GPIO_Init+0x1c0>
 800274a:	4a6b      	ldr	r2, [pc, #428]	; (80028f8 <HAL_GPIO_Init+0x1b8>)
 800274c:	2401      	movs	r4, #1
 800274e:	680d      	ldr	r5, [r1, #0]
 8002750:	409c      	lsls	r4, r3
 8002752:	ea04 0c05 	and.w	ip, r4, r5
 8002756:	43ac      	bics	r4, r5
 8002758:	f040 80b4 	bne.w	80028c4 <HAL_GPIO_Init+0x184>
 800275c:	684d      	ldr	r5, [r1, #4]
 800275e:	ea4f 0843 	mov.w	r8, r3, lsl #1
 8002762:	2603      	movs	r6, #3
 8002764:	f005 0403 	and.w	r4, r5, #3
 8002768:	fa06 f608 	lsl.w	r6, r6, r8
 800276c:	1e67      	subs	r7, r4, #1
 800276e:	43f6      	mvns	r6, r6
 8002770:	2f01      	cmp	r7, #1
 8002772:	d834      	bhi.n	80027de <HAL_GPIO_Init+0x9e>
 8002774:	6887      	ldr	r7, [r0, #8]
 8002776:	ea07 0e06 	and.w	lr, r7, r6
 800277a:	68cf      	ldr	r7, [r1, #12]
 800277c:	fa07 f708 	lsl.w	r7, r7, r8
 8002780:	ea47 070e 	orr.w	r7, r7, lr
 8002784:	6087      	str	r7, [r0, #8]
 8002786:	6847      	ldr	r7, [r0, #4]
 8002788:	ea27 0e0c 	bic.w	lr, r7, ip
 800278c:	f3c5 1700 	ubfx	r7, r5, #4, #1
 8002790:	409f      	lsls	r7, r3
 8002792:	ea47 070e 	orr.w	r7, r7, lr
 8002796:	6047      	str	r7, [r0, #4]
 8002798:	68c7      	ldr	r7, [r0, #12]
 800279a:	2c02      	cmp	r4, #2
 800279c:	ea07 0e06 	and.w	lr, r7, r6
 80027a0:	688f      	ldr	r7, [r1, #8]
 80027a2:	fa07 f708 	lsl.w	r7, r7, r8
 80027a6:	ea47 070e 	orr.w	r7, r7, lr
 80027aa:	60c7      	str	r7, [r0, #12]
 80027ac:	d119      	bne.n	80027e2 <HAL_GPIO_Init+0xa2>
 80027ae:	ea4f 0ad3 	mov.w	sl, r3, lsr #3
 80027b2:	f003 0b07 	and.w	fp, r3, #7
 80027b6:	f04f 0e0f 	mov.w	lr, #15
 80027ba:	eb00 0a8a 	add.w	sl, r0, sl, lsl #2
 80027be:	ea4f 0b8b 	mov.w	fp, fp, lsl #2
 80027c2:	f8da 7020 	ldr.w	r7, [sl, #32]
 80027c6:	fa0e fe0b 	lsl.w	lr, lr, fp
 80027ca:	ea27 0e0e 	bic.w	lr, r7, lr
 80027ce:	690f      	ldr	r7, [r1, #16]
 80027d0:	fa07 f70b 	lsl.w	r7, r7, fp
 80027d4:	ea47 070e 	orr.w	r7, r7, lr
 80027d8:	f8ca 7020 	str.w	r7, [sl, #32]
 80027dc:	e001      	b.n	80027e2 <HAL_GPIO_Init+0xa2>
 80027de:	2c03      	cmp	r4, #3
 80027e0:	d1da      	bne.n	8002798 <HAL_GPIO_Init+0x58>
 80027e2:	6807      	ldr	r7, [r0, #0]
 80027e4:	fa04 f408 	lsl.w	r4, r4, r8
 80027e8:	f415 3f40 	tst.w	r5, #196608	; 0x30000
 80027ec:	ea07 0706 	and.w	r7, r7, r6
 80027f0:	ea44 0407 	orr.w	r4, r4, r7
 80027f4:	6004      	str	r4, [r0, #0]
 80027f6:	d065      	beq.n	80028c4 <HAL_GPIO_Init+0x184>
 80027f8:	f8d9 4044 	ldr.w	r4, [r9, #68]	; 0x44
 80027fc:	f023 0603 	bic.w	r6, r3, #3
 8002800:	f003 0703 	and.w	r7, r3, #3
 8002804:	f444 4480 	orr.w	r4, r4, #16384	; 0x4000
 8002808:	f106 4680 	add.w	r6, r6, #1073741824	; 0x40000000
 800280c:	00bf      	lsls	r7, r7, #2
 800280e:	f8c9 4044 	str.w	r4, [r9, #68]	; 0x44
 8002812:	f506 369c 	add.w	r6, r6, #79872	; 0x13800
 8002816:	f8d9 4044 	ldr.w	r4, [r9, #68]	; 0x44
 800281a:	f404 4480 	and.w	r4, r4, #16384	; 0x4000
 800281e:	9401      	str	r4, [sp, #4]
 8002820:	9c01      	ldr	r4, [sp, #4]
 8002822:	240f      	movs	r4, #15
 8002824:	f8d6 e008 	ldr.w	lr, [r6, #8]
 8002828:	40bc      	lsls	r4, r7
 800282a:	ea2e 0e04 	bic.w	lr, lr, r4
 800282e:	4c33      	ldr	r4, [pc, #204]	; (80028fc <HAL_GPIO_Init+0x1bc>)
 8002830:	42a0      	cmp	r0, r4
 8002832:	d04e      	beq.n	80028d2 <HAL_GPIO_Init+0x192>
 8002834:	f504 6480 	add.w	r4, r4, #1024	; 0x400
 8002838:	42a0      	cmp	r0, r4
 800283a:	d04c      	beq.n	80028d6 <HAL_GPIO_Init+0x196>
 800283c:	f504 6480 	add.w	r4, r4, #1024	; 0x400
 8002840:	42a0      	cmp	r0, r4
 8002842:	d04a      	beq.n	80028da <HAL_GPIO_Init+0x19a>
 8002844:	f504 6480 	add.w	r4, r4, #1024	; 0x400
 8002848:	42a0      	cmp	r0, r4
 800284a:	d048      	beq.n	80028de <HAL_GPIO_Init+0x19e>
 800284c:	f504 6480 	add.w	r4, r4, #1024	; 0x400
 8002850:	42a0      	cmp	r0, r4
 8002852:	d046      	beq.n	80028e2 <HAL_GPIO_Init+0x1a2>
 8002854:	f504 6480 	add.w	r4, r4, #1024	; 0x400
 8002858:	42a0      	cmp	r0, r4
 800285a:	d044      	beq.n	80028e6 <HAL_GPIO_Init+0x1a6>
 800285c:	f504 6480 	add.w	r4, r4, #1024	; 0x400
 8002860:	42a0      	cmp	r0, r4
 8002862:	d042      	beq.n	80028ea <HAL_GPIO_Init+0x1aa>
 8002864:	f504 6480 	add.w	r4, r4, #1024	; 0x400
 8002868:	42a0      	cmp	r0, r4
 800286a:	d040      	beq.n	80028ee <HAL_GPIO_Init+0x1ae>
 800286c:	f504 6480 	add.w	r4, r4, #1024	; 0x400
 8002870:	42a0      	cmp	r0, r4
 8002872:	d03e      	beq.n	80028f2 <HAL_GPIO_Init+0x1b2>
 8002874:	f504 6480 	add.w	r4, r4, #1024	; 0x400
 8002878:	42a0      	cmp	r0, r4
 800287a:	bf0c      	ite	eq
 800287c:	2409      	moveq	r4, #9
 800287e:	240a      	movne	r4, #10
 8002880:	40bc      	lsls	r4, r7
 8002882:	02ef      	lsls	r7, r5, #11
 8002884:	ea44 040e 	orr.w	r4, r4, lr
 8002888:	60b4      	str	r4, [r6, #8]
 800288a:	ea6f 060c 	mvn.w	r6, ip
 800288e:	6894      	ldr	r4, [r2, #8]
 8002890:	bf54      	ite	pl
 8002892:	4034      	andpl	r4, r6
 8002894:	ea4c 0404 	orrmi.w	r4, ip, r4
 8002898:	02af      	lsls	r7, r5, #10
 800289a:	6094      	str	r4, [r2, #8]
 800289c:	68d4      	ldr	r4, [r2, #12]
 800289e:	bf54      	ite	pl
 80028a0:	4034      	andpl	r4, r6
 80028a2:	ea4c 0404 	orrmi.w	r4, ip, r4
 80028a6:	03af      	lsls	r7, r5, #14
 80028a8:	60d4      	str	r4, [r2, #12]
 80028aa:	6854      	ldr	r4, [r2, #4]
 80028ac:	bf54      	ite	pl
 80028ae:	4034      	andpl	r4, r6
 80028b0:	ea4c 0404 	orrmi.w	r4, ip, r4
 80028b4:	03ed      	lsls	r5, r5, #15
 80028b6:	6054      	str	r4, [r2, #4]
 80028b8:	6814      	ldr	r4, [r2, #0]
 80028ba:	bf54      	ite	pl
 80028bc:	4034      	andpl	r4, r6
 80028be:	ea4c 0404 	orrmi.w	r4, ip, r4
 80028c2:	6014      	str	r4, [r2, #0]
 80028c4:	3301      	adds	r3, #1
 80028c6:	2b10      	cmp	r3, #16
 80028c8:	f47f af40 	bne.w	800274c <HAL_GPIO_Init+0xc>
 80028cc:	b003      	add	sp, #12
 80028ce:	e8bd 8ff0 	ldmia.w	sp!, {r4, r5, r6, r7, r8, r9, sl, fp, pc}
 80028d2:	2400      	movs	r4, #0
 80028d4:	e7d4      	b.n	8002880 <HAL_GPIO_Init+0x140>
 80028d6:	2401      	movs	r4, #1
 80028d8:	e7d2      	b.n	8002880 <HAL_GPIO_Init+0x140>
 80028da:	2402      	movs	r4, #2
 80028dc:	e7d0      	b.n	8002880 <HAL_GPIO_Init+0x140>
 80028de:	2403      	movs	r4, #3
 80028e0:	e7ce      	b.n	8002880 <HAL_GPIO_Init+0x140>
 80028e2:	2404      	movs	r4, #4
 80028e4:	e7cc      	b.n	8002880 <HAL_GPIO_Init+0x140>
 80028e6:	2405      	movs	r4, #5
 80028e8:	e7ca      	b.n	8002880 <HAL_GPIO_Init+0x140>
 80028ea:	2406      	movs	r4, #6
 80028ec:	e7c8      	b.n	8002880 <HAL_GPIO_Init+0x140>
 80028ee:	2407      	movs	r4, #7
 80028f0:	e7c6      	b.n	8002880 <HAL_GPIO_Init+0x140>
 80028f2:	2408      	movs	r4, #8
 80028f4:	e7c4      	b.n	8002880 <HAL_GPIO_Init+0x140>
 80028f6:	bf00      	nop
 80028f8:	40013c00 	.word	0x40013c00
 80028fc:	40020000 	.word	0x40020000
 8002900:	40023800 	.word	0x40023800

08002904 <HAL_GPIO_DeInit>:
 8002904:	e92d 4ff0 	stmdb	sp!, {r4, r5, r6, r7, r8, r9, sl, fp, lr}
 8002908:	2200      	movs	r2, #0
 800290a:	4c49      	ldr	r4, [pc, #292]	; (8002a30 <HAL_GPIO_DeInit+0x12c>)
 800290c:	f8df 9128 	ldr.w	r9, [pc, #296]	; 8002a38 <HAL_GPIO_DeInit+0x134>
 8002910:	f8df a128 	ldr.w	sl, [pc, #296]	; 8002a3c <HAL_GPIO_DeInit+0x138>
 8002914:	f8df b128 	ldr.w	fp, [pc, #296]	; 8002a40 <HAL_GPIO_DeInit+0x13c>
 8002918:	2301      	movs	r3, #1
 800291a:	fa03 fe02 	lsl.w	lr, r3, r2
 800291e:	ea3e 0501 	bics.w	r5, lr, r1
 8002922:	ea0e 0701 	and.w	r7, lr, r1
 8002926:	d16c      	bne.n	8002a02 <HAL_GPIO_DeInit+0xfe>
 8002928:	f022 0503 	bic.w	r5, r2, #3
 800292c:	f002 0c03 	and.w	ip, r2, #3
 8002930:	260f      	movs	r6, #15
 8002932:	4b40      	ldr	r3, [pc, #256]	; (8002a34 <HAL_GPIO_DeInit+0x130>)
 8002934:	f105 4580 	add.w	r5, r5, #1073741824	; 0x40000000
 8002938:	ea4f 0c8c 	mov.w	ip, ip, lsl #2
 800293c:	4298      	cmp	r0, r3
 800293e:	f505 359c 	add.w	r5, r5, #79872	; 0x13800
 8002942:	fa06 f60c 	lsl.w	r6, r6, ip
 8002946:	f8d5 8008 	ldr.w	r8, [r5, #8]
 800294a:	ea06 0808 	and.w	r8, r6, r8
 800294e:	d05d      	beq.n	8002a0c <HAL_GPIO_DeInit+0x108>
 8002950:	f503 6380 	add.w	r3, r3, #1024	; 0x400
 8002954:	4298      	cmp	r0, r3
 8002956:	d05b      	beq.n	8002a10 <HAL_GPIO_DeInit+0x10c>
 8002958:	f503 6380 	add.w	r3, r3, #1024	; 0x400
 800295c:	4298      	cmp	r0, r3
 800295e:	d059      	beq.n	8002a14 <HAL_GPIO_DeInit+0x110>
 8002960:	f503 6380 	add.w	r3, r3, #1024	; 0x400
 8002964:	4298      	cmp	r0, r3
 8002966:	d057      	beq.n	8002a18 <HAL_GPIO_DeInit+0x114>
 8002968:	f503 6380 	add.w	r3, r3, #1024	; 0x400
 800296c:	4298      	cmp	r0, r3
 800296e:	d055      	beq.n	8002a1c <HAL_GPIO_DeInit+0x118>
 8002970:	4548      	cmp	r0, r9
 8002972:	d055      	beq.n	8002a20 <HAL_GPIO_DeInit+0x11c>
 8002974:	4550      	cmp	r0, sl
 8002976:	d055      	beq.n	8002a24 <HAL_GPIO_DeInit+0x120>
 8002978:	4558      	cmp	r0, fp
 800297a:	d055      	beq.n	8002a28 <HAL_GPIO_DeInit+0x124>
 800297c:	f503 5380 	add.w	r3, r3, #4096	; 0x1000
 8002980:	4298      	cmp	r0, r3
 8002982:	d053      	beq.n	8002a2c <HAL_GPIO_DeInit+0x128>
 8002984:	f503 6380 	add.w	r3, r3, #1024	; 0x400
 8002988:	4298      	cmp	r0, r3
 800298a:	bf0c      	ite	eq
 800298c:	2309      	moveq	r3, #9
 800298e:	230a      	movne	r3, #10
 8002990:	fa03 f30c 	lsl.w	r3, r3, ip
 8002994:	4543      	cmp	r3, r8
 8002996:	d113      	bne.n	80029c0 <HAL_GPIO_DeInit+0xbc>
 8002998:	6823      	ldr	r3, [r4, #0]
 800299a:	ea23 0307 	bic.w	r3, r3, r7
 800299e:	6023      	str	r3, [r4, #0]
 80029a0:	6863      	ldr	r3, [r4, #4]
 80029a2:	ea23 0307 	bic.w	r3, r3, r7
 80029a6:	6063      	str	r3, [r4, #4]
 80029a8:	68e3      	ldr	r3, [r4, #12]
 80029aa:	ea23 0307 	bic.w	r3, r3, r7
 80029ae:	60e3      	str	r3, [r4, #12]
 80029b0:	68a3      	ldr	r3, [r4, #8]
 80029b2:	ea23 0307 	bic.w	r3, r3, r7
 80029b6:	60a3      	str	r3, [r4, #8]
 80029b8:	68ab      	ldr	r3, [r5, #8]
 80029ba:	ea23 0306 	bic.w	r3, r3, r6
 80029be:	60ab      	str	r3, [r5, #8]
 80029c0:	0056      	lsls	r6, r2, #1
 80029c2:	2303      	movs	r3, #3
 80029c4:	6805      	ldr	r5, [r0, #0]
 80029c6:	f002 0c07 	and.w	ip, r2, #7
 80029ca:	40b3      	lsls	r3, r6
 80029cc:	270f      	movs	r7, #15
 80029ce:	ea4f 0c8c 	mov.w	ip, ip, lsl #2
 80029d2:	ea25 0503 	bic.w	r5, r5, r3
 80029d6:	fa07 f70c 	lsl.w	r7, r7, ip
 80029da:	6005      	str	r5, [r0, #0]
 80029dc:	08d5      	lsrs	r5, r2, #3
 80029de:	eb00 0585 	add.w	r5, r0, r5, lsl #2
 80029e2:	6a2e      	ldr	r6, [r5, #32]
 80029e4:	ea26 0607 	bic.w	r6, r6, r7
 80029e8:	622e      	str	r6, [r5, #32]
 80029ea:	68c5      	ldr	r5, [r0, #12]
 80029ec:	ea25 0503 	bic.w	r5, r5, r3
 80029f0:	60c5      	str	r5, [r0, #12]
 80029f2:	6845      	ldr	r5, [r0, #4]
 80029f4:	ea25 050e 	bic.w	r5, r5, lr
 80029f8:	6045      	str	r5, [r0, #4]
 80029fa:	6885      	ldr	r5, [r0, #8]
 80029fc:	ea25 0303 	bic.w	r3, r5, r3
 8002a00:	6083      	str	r3, [r0, #8]
 8002a02:	3201      	adds	r2, #1
 8002a04:	2a10      	cmp	r2, #16
 8002a06:	d187      	bne.n	8002918 <HAL_GPIO_DeInit+0x14>
 8002a08:	e8bd 8ff0 	ldmia.w	sp!, {r4, r5, r6, r7, r8, r9, sl, fp, pc}
 8002a0c:	2300      	movs	r3, #0
 8002a0e:	e7bf      	b.n	8002990 <HAL_GPIO_DeInit+0x8c>
 8002a10:	2301      	movs	r3, #1
 8002a12:	e7bd      	b.n	8002990 <HAL_GPIO_DeInit+0x8c>
 8002a14:	2302      	movs	r3, #2
 8002a16:	e7bb      	b.n	8002990 <HAL_GPIO_DeInit+0x8c>
 8002a18:	2303      	movs	r3, #3
 8002a1a:	e7b9      	b.n	8002990 <HAL_GPIO_DeInit+0x8c>
 8002a1c:	2304      	movs	r3, #4
 8002a1e:	e7b7      	b.n	8002990 <HAL_GPIO_DeInit+0x8c>
 8002a20:	2305      	movs	r3, #5
 8002a22:	e7b5      	b.n	8002990 <HAL_GPIO_DeInit+0x8c>
 8002a24:	2306      	movs	r3, #6
 8002a26:	e7b3      	b.n	8002990 <HAL_GPIO_DeInit+0x8c>
 8002a28:	2307      	movs	r3, #7
 8002a2a:	e7b1      	b.n	8002990 <HAL_GPIO_DeInit+0x8c>
 8002a2c:	2308      	movs	r3, #8
 8002a2e:	e7af      	b.n	8002990 <HAL_GPIO_DeInit+0x8c>
 8002a30:	40013c00 	.word	0x40013c00
 8002a34:	40020000 	.word	0x40020000
 8002a38:	40021400 	.word	0x40021400
 8002a3c:	40021800 	.word	0x40021800
 8002a40:	40021c00 	.word	0x40021c00

08002a44 <HAL_GPIO_WritePin>:
 8002a44:	b10a      	cbz	r2, 8002a4a <HAL_GPIO_WritePin+0x6>
 8002a46:	6181      	str	r1, [r0, #24]
 8002a48:	4770      	bx	lr
 8002a4a:	0409      	lsls	r1, r1, #16
 8002a4c:	e7fb      	b.n	8002a46 <HAL_GPIO_WritePin+0x2>

08002a4e <HAL_GPIO_TogglePin>:
 8002a4e:	6943      	ldr	r3, [r0, #20]
 8002a50:	ea01 0203 	and.w	r2, r1, r3
 8002a54:	ea21 0103 	bic.w	r1, r1, r3
 8002a58:	ea41 4102 	orr.w	r1, r1, r2, lsl #16
 8002a5c:	6181      	str	r1, [r0, #24]
 8002a5e:	4770      	bx	lr

08002a60 <HAL_GPIO_EXTI_IRQHandler>:
 8002a60:	4a04      	ldr	r2, [pc, #16]	; (8002a74 <HAL_GPIO_EXTI_IRQHandler+0x14>)
 8002a62:	6951      	ldr	r1, [r2, #20]
 8002a64:	4201      	tst	r1, r0
 8002a66:	b508      	push	{r3, lr}
 8002a68:	d002      	beq.n	8002a70 <HAL_GPIO_EXTI_IRQHandler+0x10>
 8002a6a:	6150      	str	r0, [r2, #20]
 8002a6c:	f7fe f8a4 	bl	8000bb8 <HAL_GPIO_EXTI_Callback>
 8002a70:	bd08      	pop	{r3, pc}
 8002a72:	bf00      	nop
 8002a74:	40013c00 	.word	0x40013c00

08002a78 <HAL_IWDG_Init>:
 8002a78:	b570      	push	{r4, r5, r6, lr}
 8002a7a:	4604      	mov	r4, r0
 8002a7c:	b350      	cbz	r0, 8002ad4 <HAL_IWDG_Init+0x5c>
 8002a7e:	6803      	ldr	r3, [r0, #0]
 8002a80:	f64c 42cc 	movw	r2, #52428	; 0xcccc
 8002a84:	f641 0601 	movw	r6, #6145	; 0x1801
 8002a88:	601a      	str	r2, [r3, #0]
 8002a8a:	f245 5255 	movw	r2, #21845	; 0x5555
 8002a8e:	601a      	str	r2, [r3, #0]
 8002a90:	6842      	ldr	r2, [r0, #4]
 8002a92:	605a      	str	r2, [r3, #4]
 8002a94:	6882      	ldr	r2, [r0, #8]
 8002a96:	609a      	str	r2, [r3, #8]
 8002a98:	f7ff f98a 	bl	8001db0 <HAL_GetTick>
 8002a9c:	4605      	mov	r5, r0
 8002a9e:	6822      	ldr	r2, [r4, #0]
 8002aa0:	68d3      	ldr	r3, [r2, #12]
 8002aa2:	f013 0307 	ands.w	r3, r3, #7
 8002aa6:	d106      	bne.n	8002ab6 <HAL_IWDG_Init+0x3e>
 8002aa8:	6910      	ldr	r0, [r2, #16]
 8002aaa:	68e1      	ldr	r1, [r4, #12]
 8002aac:	4288      	cmp	r0, r1
 8002aae:	d00d      	beq.n	8002acc <HAL_IWDG_Init+0x54>
 8002ab0:	6111      	str	r1, [r2, #16]
 8002ab2:	4618      	mov	r0, r3
 8002ab4:	bd70      	pop	{r4, r5, r6, pc}
 8002ab6:	f7ff f97b 	bl	8001db0 <HAL_GetTick>
 8002aba:	1b40      	subs	r0, r0, r5
 8002abc:	42b0      	cmp	r0, r6
 8002abe:	d9ee      	bls.n	8002a9e <HAL_IWDG_Init+0x26>
 8002ac0:	6823      	ldr	r3, [r4, #0]
 8002ac2:	68db      	ldr	r3, [r3, #12]
 8002ac4:	075b      	lsls	r3, r3, #29
 8002ac6:	d0ea      	beq.n	8002a9e <HAL_IWDG_Init+0x26>
 8002ac8:	2003      	movs	r0, #3
 8002aca:	e7f3      	b.n	8002ab4 <HAL_IWDG_Init+0x3c>
 8002acc:	f64a 21aa 	movw	r1, #43690	; 0xaaaa
 8002ad0:	6011      	str	r1, [r2, #0]
 8002ad2:	e7ee      	b.n	8002ab2 <HAL_IWDG_Init+0x3a>
 8002ad4:	2001      	movs	r0, #1
 8002ad6:	e7ed      	b.n	8002ab4 <HAL_IWDG_Init+0x3c>

08002ad8 <HAL_IWDG_Refresh>:
 8002ad8:	6803      	ldr	r3, [r0, #0]
 8002ada:	f64a 22aa 	movw	r2, #43690	; 0xaaaa
 8002ade:	2000      	movs	r0, #0
 8002ae0:	601a      	str	r2, [r3, #0]
 8002ae2:	4770      	bx	lr

08002ae4 <HAL_PWR_EnableBkUpAccess>:
 8002ae4:	4a02      	ldr	r2, [pc, #8]	; (8002af0 <HAL_PWR_EnableBkUpAccess+0xc>)
 8002ae6:	6813      	ldr	r3, [r2, #0]
 8002ae8:	f443 7380 	orr.w	r3, r3, #256	; 0x100
 8002aec:	6013      	str	r3, [r2, #0]
 8002aee:	4770      	bx	lr
 8002af0:	40007000 	.word	0x40007000

08002af4 <HAL_PWREx_EnableOverDrive>:
 8002af4:	4b19      	ldr	r3, [pc, #100]	; (8002b5c <HAL_PWREx_EnableOverDrive+0x68>)
 8002af6:	b537      	push	{r0, r1, r2, r4, r5, lr}
 8002af8:	6c1a      	ldr	r2, [r3, #64]	; 0x40
 8002afa:	4c19      	ldr	r4, [pc, #100]	; (8002b60 <HAL_PWREx_EnableOverDrive+0x6c>)
 8002afc:	f042 5280 	orr.w	r2, r2, #268435456	; 0x10000000
 8002b00:	641a      	str	r2, [r3, #64]	; 0x40
 8002b02:	6c1b      	ldr	r3, [r3, #64]	; 0x40
 8002b04:	f003 5380 	and.w	r3, r3, #268435456	; 0x10000000
 8002b08:	9301      	str	r3, [sp, #4]
 8002b0a:	9b01      	ldr	r3, [sp, #4]
 8002b0c:	6823      	ldr	r3, [r4, #0]
 8002b0e:	f443 3380 	orr.w	r3, r3, #65536	; 0x10000
 8002b12:	6023      	str	r3, [r4, #0]
 8002b14:	f7ff f94c 	bl	8001db0 <HAL_GetTick>
 8002b18:	4605      	mov	r5, r0
 8002b1a:	6863      	ldr	r3, [r4, #4]
 8002b1c:	03da      	lsls	r2, r3, #15
 8002b1e:	d50c      	bpl.n	8002b3a <HAL_PWREx_EnableOverDrive+0x46>
 8002b20:	6823      	ldr	r3, [r4, #0]
 8002b22:	4d0f      	ldr	r5, [pc, #60]	; (8002b60 <HAL_PWREx_EnableOverDrive+0x6c>)
 8002b24:	f443 3300 	orr.w	r3, r3, #131072	; 0x20000
 8002b28:	6023      	str	r3, [r4, #0]
 8002b2a:	f7ff f941 	bl	8001db0 <HAL_GetTick>
 8002b2e:	4604      	mov	r4, r0
 8002b30:	686b      	ldr	r3, [r5, #4]
 8002b32:	039b      	lsls	r3, r3, #14
 8002b34:	d50a      	bpl.n	8002b4c <HAL_PWREx_EnableOverDrive+0x58>
 8002b36:	2000      	movs	r0, #0
 8002b38:	e006      	b.n	8002b48 <HAL_PWREx_EnableOverDrive+0x54>
 8002b3a:	f7ff f939 	bl	8001db0 <HAL_GetTick>
 8002b3e:	1b40      	subs	r0, r0, r5
 8002b40:	f5b0 7f7a 	cmp.w	r0, #1000	; 0x3e8
 8002b44:	d9e9      	bls.n	8002b1a <HAL_PWREx_EnableOverDrive+0x26>
 8002b46:	2003      	movs	r0, #3
 8002b48:	b003      	add	sp, #12
 8002b4a:	bd30      	pop	{r4, r5, pc}
 8002b4c:	f7ff f930 	bl	8001db0 <HAL_GetTick>
 8002b50:	1b00      	subs	r0, r0, r4
 8002b52:	f5b0 7f7a 	cmp.w	r0, #1000	; 0x3e8
 8002b56:	d9eb      	bls.n	8002b30 <HAL_PWREx_EnableOverDrive+0x3c>
 8002b58:	e7f5      	b.n	8002b46 <HAL_PWREx_EnableOverDrive+0x52>
 8002b5a:	bf00      	nop
 8002b5c:	40023800 	.word	0x40023800
 8002b60:	40007000 	.word	0x40007000

08002b64 <HAL_RCC_OscConfig>:
 8002b64:	e92d 41f3 	stmdb	sp!, {r0, r1, r4, r5, r6, r7, r8, lr}
 8002b68:	4604      	mov	r4, r0
 8002b6a:	b340      	cbz	r0, 8002bbe <HAL_RCC_OscConfig+0x5a>
 8002b6c:	6803      	ldr	r3, [r0, #0]
 8002b6e:	07db      	lsls	r3, r3, #31
 8002b70:	d410      	bmi.n	8002b94 <HAL_RCC_OscConfig+0x30>
 8002b72:	6823      	ldr	r3, [r4, #0]
 8002b74:	079f      	lsls	r7, r3, #30
 8002b76:	d461      	bmi.n	8002c3c <HAL_RCC_OscConfig+0xd8>
 8002b78:	6823      	ldr	r3, [r4, #0]
 8002b7a:	0719      	lsls	r1, r3, #28
 8002b7c:	f100 80a6 	bmi.w	8002ccc <HAL_RCC_OscConfig+0x168>
 8002b80:	6823      	ldr	r3, [r4, #0]
 8002b82:	075a      	lsls	r2, r3, #29
 8002b84:	f100 80c7 	bmi.w	8002d16 <HAL_RCC_OscConfig+0x1b2>
 8002b88:	69a2      	ldr	r2, [r4, #24]
 8002b8a:	2a00      	cmp	r2, #0
 8002b8c:	f040 8130 	bne.w	8002df0 <HAL_RCC_OscConfig+0x28c>
 8002b90:	2000      	movs	r0, #0
 8002b92:	e02c      	b.n	8002bee <HAL_RCC_OscConfig+0x8a>
 8002b94:	4b94      	ldr	r3, [pc, #592]	; (8002de8 <HAL_RCC_OscConfig+0x284>)
 8002b96:	689a      	ldr	r2, [r3, #8]
 8002b98:	f002 020c 	and.w	r2, r2, #12
 8002b9c:	2a04      	cmp	r2, #4
 8002b9e:	d007      	beq.n	8002bb0 <HAL_RCC_OscConfig+0x4c>
 8002ba0:	689a      	ldr	r2, [r3, #8]
 8002ba2:	f002 020c 	and.w	r2, r2, #12
 8002ba6:	2a08      	cmp	r2, #8
 8002ba8:	d10b      	bne.n	8002bc2 <HAL_RCC_OscConfig+0x5e>
 8002baa:	685b      	ldr	r3, [r3, #4]
 8002bac:	025e      	lsls	r6, r3, #9
 8002bae:	d508      	bpl.n	8002bc2 <HAL_RCC_OscConfig+0x5e>
 8002bb0:	4b8d      	ldr	r3, [pc, #564]	; (8002de8 <HAL_RCC_OscConfig+0x284>)
 8002bb2:	681b      	ldr	r3, [r3, #0]
 8002bb4:	039d      	lsls	r5, r3, #14
 8002bb6:	d5dc      	bpl.n	8002b72 <HAL_RCC_OscConfig+0xe>
 8002bb8:	6863      	ldr	r3, [r4, #4]
 8002bba:	2b00      	cmp	r3, #0
 8002bbc:	d1d9      	bne.n	8002b72 <HAL_RCC_OscConfig+0xe>
 8002bbe:	2001      	movs	r0, #1
 8002bc0:	e015      	b.n	8002bee <HAL_RCC_OscConfig+0x8a>
 8002bc2:	6863      	ldr	r3, [r4, #4]
 8002bc4:	4d88      	ldr	r5, [pc, #544]	; (8002de8 <HAL_RCC_OscConfig+0x284>)
 8002bc6:	f5b3 3f80 	cmp.w	r3, #65536	; 0x10000
 8002bca:	d113      	bne.n	8002bf4 <HAL_RCC_OscConfig+0x90>
 8002bcc:	682b      	ldr	r3, [r5, #0]
 8002bce:	f443 3380 	orr.w	r3, r3, #65536	; 0x10000
 8002bd2:	602b      	str	r3, [r5, #0]
 8002bd4:	f7ff f8ec 	bl	8001db0 <HAL_GetTick>
 8002bd8:	4e83      	ldr	r6, [pc, #524]	; (8002de8 <HAL_RCC_OscConfig+0x284>)
 8002bda:	4605      	mov	r5, r0
 8002bdc:	6833      	ldr	r3, [r6, #0]
 8002bde:	0398      	lsls	r0, r3, #14
 8002be0:	d4c7      	bmi.n	8002b72 <HAL_RCC_OscConfig+0xe>
 8002be2:	f7ff f8e5 	bl	8001db0 <HAL_GetTick>
 8002be6:	1b40      	subs	r0, r0, r5
 8002be8:	2864      	cmp	r0, #100	; 0x64
 8002bea:	d9f7      	bls.n	8002bdc <HAL_RCC_OscConfig+0x78>
 8002bec:	2003      	movs	r0, #3
 8002bee:	b002      	add	sp, #8
 8002bf0:	e8bd 81f0 	ldmia.w	sp!, {r4, r5, r6, r7, r8, pc}
 8002bf4:	b99b      	cbnz	r3, 8002c1e <HAL_RCC_OscConfig+0xba>
 8002bf6:	682b      	ldr	r3, [r5, #0]
 8002bf8:	f423 3380 	bic.w	r3, r3, #65536	; 0x10000
 8002bfc:	602b      	str	r3, [r5, #0]
 8002bfe:	682b      	ldr	r3, [r5, #0]
 8002c00:	f423 2380 	bic.w	r3, r3, #262144	; 0x40000
 8002c04:	602b      	str	r3, [r5, #0]
 8002c06:	f7ff f8d3 	bl	8001db0 <HAL_GetTick>
 8002c0a:	4606      	mov	r6, r0
 8002c0c:	682b      	ldr	r3, [r5, #0]
 8002c0e:	0399      	lsls	r1, r3, #14
 8002c10:	d5af      	bpl.n	8002b72 <HAL_RCC_OscConfig+0xe>
 8002c12:	f7ff f8cd 	bl	8001db0 <HAL_GetTick>
 8002c16:	1b80      	subs	r0, r0, r6
 8002c18:	2864      	cmp	r0, #100	; 0x64
 8002c1a:	d9f7      	bls.n	8002c0c <HAL_RCC_OscConfig+0xa8>
 8002c1c:	e7e6      	b.n	8002bec <HAL_RCC_OscConfig+0x88>
 8002c1e:	f5b3 2fa0 	cmp.w	r3, #327680	; 0x50000
 8002c22:	682b      	ldr	r3, [r5, #0]
 8002c24:	d103      	bne.n	8002c2e <HAL_RCC_OscConfig+0xca>
 8002c26:	f443 2380 	orr.w	r3, r3, #262144	; 0x40000
 8002c2a:	602b      	str	r3, [r5, #0]
 8002c2c:	e7ce      	b.n	8002bcc <HAL_RCC_OscConfig+0x68>
 8002c2e:	f423 3380 	bic.w	r3, r3, #65536	; 0x10000
 8002c32:	602b      	str	r3, [r5, #0]
 8002c34:	682b      	ldr	r3, [r5, #0]
 8002c36:	f423 2380 	bic.w	r3, r3, #262144	; 0x40000
 8002c3a:	e7ca      	b.n	8002bd2 <HAL_RCC_OscConfig+0x6e>
 8002c3c:	4b6a      	ldr	r3, [pc, #424]	; (8002de8 <HAL_RCC_OscConfig+0x284>)
 8002c3e:	689a      	ldr	r2, [r3, #8]
 8002c40:	f012 0f0c 	tst.w	r2, #12
 8002c44:	d007      	beq.n	8002c56 <HAL_RCC_OscConfig+0xf2>
 8002c46:	689a      	ldr	r2, [r3, #8]
 8002c48:	f002 020c 	and.w	r2, r2, #12
 8002c4c:	2a08      	cmp	r2, #8
 8002c4e:	d111      	bne.n	8002c74 <HAL_RCC_OscConfig+0x110>
 8002c50:	685b      	ldr	r3, [r3, #4]
 8002c52:	025a      	lsls	r2, r3, #9
 8002c54:	d40e      	bmi.n	8002c74 <HAL_RCC_OscConfig+0x110>
 8002c56:	4a64      	ldr	r2, [pc, #400]	; (8002de8 <HAL_RCC_OscConfig+0x284>)
 8002c58:	6813      	ldr	r3, [r2, #0]
 8002c5a:	079b      	lsls	r3, r3, #30
 8002c5c:	d502      	bpl.n	8002c64 <HAL_RCC_OscConfig+0x100>
 8002c5e:	68e3      	ldr	r3, [r4, #12]
 8002c60:	2b01      	cmp	r3, #1
 8002c62:	d1ac      	bne.n	8002bbe <HAL_RCC_OscConfig+0x5a>
 8002c64:	6813      	ldr	r3, [r2, #0]
 8002c66:	6921      	ldr	r1, [r4, #16]
 8002c68:	f023 03f8 	bic.w	r3, r3, #248	; 0xf8
 8002c6c:	ea43 03c1 	orr.w	r3, r3, r1, lsl #3
 8002c70:	6013      	str	r3, [r2, #0]
 8002c72:	e781      	b.n	8002b78 <HAL_RCC_OscConfig+0x14>
 8002c74:	68e3      	ldr	r3, [r4, #12]
 8002c76:	4d5c      	ldr	r5, [pc, #368]	; (8002de8 <HAL_RCC_OscConfig+0x284>)
 8002c78:	b1bb      	cbz	r3, 8002caa <HAL_RCC_OscConfig+0x146>
 8002c7a:	682b      	ldr	r3, [r5, #0]
 8002c7c:	f043 0301 	orr.w	r3, r3, #1
 8002c80:	602b      	str	r3, [r5, #0]
 8002c82:	f7ff f895 	bl	8001db0 <HAL_GetTick>
 8002c86:	4606      	mov	r6, r0
 8002c88:	682b      	ldr	r3, [r5, #0]
 8002c8a:	079f      	lsls	r7, r3, #30
 8002c8c:	d507      	bpl.n	8002c9e <HAL_RCC_OscConfig+0x13a>
 8002c8e:	682b      	ldr	r3, [r5, #0]
 8002c90:	6922      	ldr	r2, [r4, #16]
 8002c92:	f023 03f8 	bic.w	r3, r3, #248	; 0xf8
 8002c96:	ea43 03c2 	orr.w	r3, r3, r2, lsl #3
 8002c9a:	602b      	str	r3, [r5, #0]
 8002c9c:	e76c      	b.n	8002b78 <HAL_RCC_OscConfig+0x14>
 8002c9e:	f7ff f887 	bl	8001db0 <HAL_GetTick>
 8002ca2:	1b80      	subs	r0, r0, r6
 8002ca4:	2802      	cmp	r0, #2
 8002ca6:	d9ef      	bls.n	8002c88 <HAL_RCC_OscConfig+0x124>
 8002ca8:	e7a0      	b.n	8002bec <HAL_RCC_OscConfig+0x88>
 8002caa:	682b      	ldr	r3, [r5, #0]
 8002cac:	f023 0301 	bic.w	r3, r3, #1
 8002cb0:	602b      	str	r3, [r5, #0]
 8002cb2:	f7ff f87d 	bl	8001db0 <HAL_GetTick>
 8002cb6:	4606      	mov	r6, r0
 8002cb8:	682b      	ldr	r3, [r5, #0]
 8002cba:	0798      	lsls	r0, r3, #30
 8002cbc:	f57f af5c 	bpl.w	8002b78 <HAL_RCC_OscConfig+0x14>
 8002cc0:	f7ff f876 	bl	8001db0 <HAL_GetTick>
 8002cc4:	1b80      	subs	r0, r0, r6
 8002cc6:	2802      	cmp	r0, #2
 8002cc8:	d9f6      	bls.n	8002cb8 <HAL_RCC_OscConfig+0x154>
 8002cca:	e78f      	b.n	8002bec <HAL_RCC_OscConfig+0x88>
 8002ccc:	6963      	ldr	r3, [r4, #20]
 8002cce:	4d46      	ldr	r5, [pc, #280]	; (8002de8 <HAL_RCC_OscConfig+0x284>)
 8002cd0:	b183      	cbz	r3, 8002cf4 <HAL_RCC_OscConfig+0x190>
 8002cd2:	6f6b      	ldr	r3, [r5, #116]	; 0x74
 8002cd4:	f043 0301 	orr.w	r3, r3, #1
 8002cd8:	676b      	str	r3, [r5, #116]	; 0x74
 8002cda:	f7ff f869 	bl	8001db0 <HAL_GetTick>
 8002cde:	4606      	mov	r6, r0
 8002ce0:	6f6b      	ldr	r3, [r5, #116]	; 0x74
 8002ce2:	079b      	lsls	r3, r3, #30
 8002ce4:	f53f af4c 	bmi.w	8002b80 <HAL_RCC_OscConfig+0x1c>
 8002ce8:	f7ff f862 	bl	8001db0 <HAL_GetTick>
 8002cec:	1b80      	subs	r0, r0, r6
 8002cee:	2802      	cmp	r0, #2
 8002cf0:	d9f6      	bls.n	8002ce0 <HAL_RCC_OscConfig+0x17c>
 8002cf2:	e77b      	b.n	8002bec <HAL_RCC_OscConfig+0x88>
 8002cf4:	6f6b      	ldr	r3, [r5, #116]	; 0x74
 8002cf6:	f023 0301 	bic.w	r3, r3, #1
 8002cfa:	676b      	str	r3, [r5, #116]	; 0x74
 8002cfc:	f7ff f858 	bl	8001db0 <HAL_GetTick>
 8002d00:	4606      	mov	r6, r0
 8002d02:	6f6b      	ldr	r3, [r5, #116]	; 0x74
 8002d04:	079f      	lsls	r7, r3, #30
 8002d06:	f57f af3b 	bpl.w	8002b80 <HAL_RCC_OscConfig+0x1c>
 8002d0a:	f7ff f851 	bl	8001db0 <HAL_GetTick>
 8002d0e:	1b80      	subs	r0, r0, r6
 8002d10:	2802      	cmp	r0, #2
 8002d12:	d9f6      	bls.n	8002d02 <HAL_RCC_OscConfig+0x19e>
 8002d14:	e76a      	b.n	8002bec <HAL_RCC_OscConfig+0x88>
 8002d16:	4b34      	ldr	r3, [pc, #208]	; (8002de8 <HAL_RCC_OscConfig+0x284>)
 8002d18:	6c1a      	ldr	r2, [r3, #64]	; 0x40
 8002d1a:	00d0      	lsls	r0, r2, #3
 8002d1c:	d427      	bmi.n	8002d6e <HAL_RCC_OscConfig+0x20a>
 8002d1e:	6c1a      	ldr	r2, [r3, #64]	; 0x40
 8002d20:	2701      	movs	r7, #1
 8002d22:	f042 5280 	orr.w	r2, r2, #268435456	; 0x10000000
 8002d26:	641a      	str	r2, [r3, #64]	; 0x40
 8002d28:	6c1b      	ldr	r3, [r3, #64]	; 0x40
 8002d2a:	f003 5380 	and.w	r3, r3, #268435456	; 0x10000000
 8002d2e:	9301      	str	r3, [sp, #4]
 8002d30:	9b01      	ldr	r3, [sp, #4]
 8002d32:	4d2e      	ldr	r5, [pc, #184]	; (8002dec <HAL_RCC_OscConfig+0x288>)
 8002d34:	682b      	ldr	r3, [r5, #0]
 8002d36:	05d9      	lsls	r1, r3, #23
 8002d38:	d51b      	bpl.n	8002d72 <HAL_RCC_OscConfig+0x20e>
 8002d3a:	68a3      	ldr	r3, [r4, #8]
 8002d3c:	4d2a      	ldr	r5, [pc, #168]	; (8002de8 <HAL_RCC_OscConfig+0x284>)
 8002d3e:	2b01      	cmp	r3, #1
 8002d40:	d127      	bne.n	8002d92 <HAL_RCC_OscConfig+0x22e>
 8002d42:	6f2b      	ldr	r3, [r5, #112]	; 0x70
 8002d44:	f043 0301 	orr.w	r3, r3, #1
 8002d48:	672b      	str	r3, [r5, #112]	; 0x70
 8002d4a:	f241 3888 	movw	r8, #5000	; 0x1388
 8002d4e:	f7ff f82f 	bl	8001db0 <HAL_GetTick>
 8002d52:	4e25      	ldr	r6, [pc, #148]	; (8002de8 <HAL_RCC_OscConfig+0x284>)
 8002d54:	4605      	mov	r5, r0
 8002d56:	6f33      	ldr	r3, [r6, #112]	; 0x70
 8002d58:	079b      	lsls	r3, r3, #30
 8002d5a:	d53f      	bpl.n	8002ddc <HAL_RCC_OscConfig+0x278>
 8002d5c:	2f00      	cmp	r7, #0
 8002d5e:	f43f af13 	beq.w	8002b88 <HAL_RCC_OscConfig+0x24>
 8002d62:	4a21      	ldr	r2, [pc, #132]	; (8002de8 <HAL_RCC_OscConfig+0x284>)
 8002d64:	6c13      	ldr	r3, [r2, #64]	; 0x40
 8002d66:	f023 5380 	bic.w	r3, r3, #268435456	; 0x10000000
 8002d6a:	6413      	str	r3, [r2, #64]	; 0x40
 8002d6c:	e70c      	b.n	8002b88 <HAL_RCC_OscConfig+0x24>
 8002d6e:	2700      	movs	r7, #0
 8002d70:	e7df      	b.n	8002d32 <HAL_RCC_OscConfig+0x1ce>
 8002d72:	682b      	ldr	r3, [r5, #0]
 8002d74:	f443 7380 	orr.w	r3, r3, #256	; 0x100
 8002d78:	602b      	str	r3, [r5, #0]
 8002d7a:	f7ff f819 	bl	8001db0 <HAL_GetTick>
 8002d7e:	4606      	mov	r6, r0
 8002d80:	682b      	ldr	r3, [r5, #0]
 8002d82:	05da      	lsls	r2, r3, #23
 8002d84:	d4d9      	bmi.n	8002d3a <HAL_RCC_OscConfig+0x1d6>
 8002d86:	f7ff f813 	bl	8001db0 <HAL_GetTick>
 8002d8a:	1b80      	subs	r0, r0, r6
 8002d8c:	2864      	cmp	r0, #100	; 0x64
 8002d8e:	d9f7      	bls.n	8002d80 <HAL_RCC_OscConfig+0x21c>
 8002d90:	e72c      	b.n	8002bec <HAL_RCC_OscConfig+0x88>
 8002d92:	b9ab      	cbnz	r3, 8002dc0 <HAL_RCC_OscConfig+0x25c>
 8002d94:	6f2b      	ldr	r3, [r5, #112]	; 0x70
 8002d96:	f241 3888 	movw	r8, #5000	; 0x1388
 8002d9a:	f023 0301 	bic.w	r3, r3, #1
 8002d9e:	672b      	str	r3, [r5, #112]	; 0x70
 8002da0:	6f2b      	ldr	r3, [r5, #112]	; 0x70
 8002da2:	f023 0304 	bic.w	r3, r3, #4
 8002da6:	672b      	str	r3, [r5, #112]	; 0x70
 8002da8:	f7ff f802 	bl	8001db0 <HAL_GetTick>
 8002dac:	4606      	mov	r6, r0
 8002dae:	6f2b      	ldr	r3, [r5, #112]	; 0x70
 8002db0:	0798      	lsls	r0, r3, #30
 8002db2:	d5d3      	bpl.n	8002d5c <HAL_RCC_OscConfig+0x1f8>
 8002db4:	f7fe fffc 	bl	8001db0 <HAL_GetTick>
 8002db8:	1b80      	subs	r0, r0, r6
 8002dba:	4540      	cmp	r0, r8
 8002dbc:	d9f7      	bls.n	8002dae <HAL_RCC_OscConfig+0x24a>
 8002dbe:	e715      	b.n	8002bec <HAL_RCC_OscConfig+0x88>
 8002dc0:	2b05      	cmp	r3, #5
 8002dc2:	6f2b      	ldr	r3, [r5, #112]	; 0x70
 8002dc4:	d103      	bne.n	8002dce <HAL_RCC_OscConfig+0x26a>
 8002dc6:	f043 0304 	orr.w	r3, r3, #4
 8002dca:	672b      	str	r3, [r5, #112]	; 0x70
 8002dcc:	e7b9      	b.n	8002d42 <HAL_RCC_OscConfig+0x1de>
 8002dce:	f023 0301 	bic.w	r3, r3, #1
 8002dd2:	672b      	str	r3, [r5, #112]	; 0x70
 8002dd4:	6f2b      	ldr	r3, [r5, #112]	; 0x70
 8002dd6:	f023 0304 	bic.w	r3, r3, #4
 8002dda:	e7b5      	b.n	8002d48 <HAL_RCC_OscConfig+0x1e4>
 8002ddc:	f7fe ffe8 	bl	8001db0 <HAL_GetTick>
 8002de0:	1b40      	subs	r0, r0, r5
 8002de2:	4540      	cmp	r0, r8
 8002de4:	d9b7      	bls.n	8002d56 <HAL_RCC_OscConfig+0x1f2>
 8002de6:	e701      	b.n	8002bec <HAL_RCC_OscConfig+0x88>
 8002de8:	40023800 	.word	0x40023800
 8002dec:	40007000 	.word	0x40007000
 8002df0:	4d3c      	ldr	r5, [pc, #240]	; (8002ee4 <HAL_RCC_OscConfig+0x380>)
 8002df2:	68ab      	ldr	r3, [r5, #8]
 8002df4:	f003 030c 	and.w	r3, r3, #12
 8002df8:	2b08      	cmp	r3, #8
 8002dfa:	d042      	beq.n	8002e82 <HAL_RCC_OscConfig+0x31e>
 8002dfc:	682b      	ldr	r3, [r5, #0]
 8002dfe:	2a02      	cmp	r2, #2
 8002e00:	f023 7380 	bic.w	r3, r3, #16777216	; 0x1000000
 8002e04:	602b      	str	r3, [r5, #0]
 8002e06:	d12f      	bne.n	8002e68 <HAL_RCC_OscConfig+0x304>
 8002e08:	f7fe ffd2 	bl	8001db0 <HAL_GetTick>
 8002e0c:	4606      	mov	r6, r0
 8002e0e:	682b      	ldr	r3, [r5, #0]
 8002e10:	0199      	lsls	r1, r3, #6
 8002e12:	d423      	bmi.n	8002e5c <HAL_RCC_OscConfig+0x2f8>
 8002e14:	e9d4 3207 	ldrd	r3, r2, [r4, #28]
 8002e18:	4313      	orrs	r3, r2
 8002e1a:	6a62      	ldr	r2, [r4, #36]	; 0x24
 8002e1c:	ea43 1382 	orr.w	r3, r3, r2, lsl #6
 8002e20:	6ae2      	ldr	r2, [r4, #44]	; 0x2c
 8002e22:	ea43 6302 	orr.w	r3, r3, r2, lsl #24
 8002e26:	6b22      	ldr	r2, [r4, #48]	; 0x30
 8002e28:	ea43 7302 	orr.w	r3, r3, r2, lsl #28
 8002e2c:	6aa2      	ldr	r2, [r4, #40]	; 0x28
 8002e2e:	0852      	lsrs	r2, r2, #1
 8002e30:	3a01      	subs	r2, #1
 8002e32:	ea43 4302 	orr.w	r3, r3, r2, lsl #16
 8002e36:	606b      	str	r3, [r5, #4]
 8002e38:	682b      	ldr	r3, [r5, #0]
 8002e3a:	f043 7380 	orr.w	r3, r3, #16777216	; 0x1000000
 8002e3e:	602b      	str	r3, [r5, #0]
 8002e40:	f7fe ffb6 	bl	8001db0 <HAL_GetTick>
 8002e44:	4d27      	ldr	r5, [pc, #156]	; (8002ee4 <HAL_RCC_OscConfig+0x380>)
 8002e46:	4604      	mov	r4, r0
 8002e48:	682b      	ldr	r3, [r5, #0]
 8002e4a:	019a      	lsls	r2, r3, #6
 8002e4c:	f53f aea0 	bmi.w	8002b90 <HAL_RCC_OscConfig+0x2c>
 8002e50:	f7fe ffae 	bl	8001db0 <HAL_GetTick>
 8002e54:	1b00      	subs	r0, r0, r4
 8002e56:	2802      	cmp	r0, #2
 8002e58:	d9f6      	bls.n	8002e48 <HAL_RCC_OscConfig+0x2e4>
 8002e5a:	e6c7      	b.n	8002bec <HAL_RCC_OscConfig+0x88>
 8002e5c:	f7fe ffa8 	bl	8001db0 <HAL_GetTick>
 8002e60:	1b80      	subs	r0, r0, r6
 8002e62:	2802      	cmp	r0, #2
 8002e64:	d9d3      	bls.n	8002e0e <HAL_RCC_OscConfig+0x2aa>
 8002e66:	e6c1      	b.n	8002bec <HAL_RCC_OscConfig+0x88>
 8002e68:	f7fe ffa2 	bl	8001db0 <HAL_GetTick>
 8002e6c:	4604      	mov	r4, r0
 8002e6e:	682b      	ldr	r3, [r5, #0]
 8002e70:	019b      	lsls	r3, r3, #6
 8002e72:	f57f ae8d 	bpl.w	8002b90 <HAL_RCC_OscConfig+0x2c>
 8002e76:	f7fe ff9b 	bl	8001db0 <HAL_GetTick>
 8002e7a:	1b00      	subs	r0, r0, r4
 8002e7c:	2802      	cmp	r0, #2
 8002e7e:	d9f6      	bls.n	8002e6e <HAL_RCC_OscConfig+0x30a>
 8002e80:	e6b4      	b.n	8002bec <HAL_RCC_OscConfig+0x88>
 8002e82:	2a01      	cmp	r2, #1
 8002e84:	686b      	ldr	r3, [r5, #4]
 8002e86:	f43f ae9a 	beq.w	8002bbe <HAL_RCC_OscConfig+0x5a>
 8002e8a:	f403 0280 	and.w	r2, r3, #4194304	; 0x400000
 8002e8e:	69e1      	ldr	r1, [r4, #28]
 8002e90:	428a      	cmp	r2, r1
 8002e92:	f47f ae94 	bne.w	8002bbe <HAL_RCC_OscConfig+0x5a>
 8002e96:	f003 023f 	and.w	r2, r3, #63	; 0x3f
 8002e9a:	6a21      	ldr	r1, [r4, #32]
 8002e9c:	428a      	cmp	r2, r1
 8002e9e:	f47f ae8e 	bne.w	8002bbe <HAL_RCC_OscConfig+0x5a>
 8002ea2:	f647 72c0 	movw	r2, #32704	; 0x7fc0
 8002ea6:	6a61      	ldr	r1, [r4, #36]	; 0x24
 8002ea8:	401a      	ands	r2, r3
 8002eaa:	ebb2 1f81 	cmp.w	r2, r1, lsl #6
 8002eae:	f47f ae86 	bne.w	8002bbe <HAL_RCC_OscConfig+0x5a>
 8002eb2:	6aa2      	ldr	r2, [r4, #40]	; 0x28
 8002eb4:	f403 3140 	and.w	r1, r3, #196608	; 0x30000
 8002eb8:	0852      	lsrs	r2, r2, #1
 8002eba:	3a01      	subs	r2, #1
 8002ebc:	ebb1 4f02 	cmp.w	r1, r2, lsl #16
 8002ec0:	f47f ae7d 	bne.w	8002bbe <HAL_RCC_OscConfig+0x5a>
 8002ec4:	f003 6270 	and.w	r2, r3, #251658240	; 0xf000000
 8002ec8:	6ae1      	ldr	r1, [r4, #44]	; 0x2c
 8002eca:	ebb2 6f01 	cmp.w	r2, r1, lsl #24
 8002ece:	f47f ae76 	bne.w	8002bbe <HAL_RCC_OscConfig+0x5a>
 8002ed2:	f003 43e0 	and.w	r3, r3, #1879048192	; 0x70000000
 8002ed6:	6b22      	ldr	r2, [r4, #48]	; 0x30
 8002ed8:	ebb3 7f02 	cmp.w	r3, r2, lsl #28
 8002edc:	f43f ae58 	beq.w	8002b90 <HAL_RCC_OscConfig+0x2c>
 8002ee0:	e66d      	b.n	8002bbe <HAL_RCC_OscConfig+0x5a>
 8002ee2:	bf00      	nop
 8002ee4:	40023800 	.word	0x40023800

08002ee8 <HAL_RCC_GetSysClockFreq>:
 8002ee8:	4913      	ldr	r1, [pc, #76]	; (8002f38 <HAL_RCC_GetSysClockFreq+0x50>)
 8002eea:	b508      	push	{r3, lr}
 8002eec:	688b      	ldr	r3, [r1, #8]
 8002eee:	f003 030c 	and.w	r3, r3, #12
 8002ef2:	2b04      	cmp	r3, #4
 8002ef4:	d01b      	beq.n	8002f2e <HAL_RCC_GetSysClockFreq+0x46>
 8002ef6:	2b08      	cmp	r3, #8
 8002ef8:	d11b      	bne.n	8002f32 <HAL_RCC_GetSysClockFreq+0x4a>
 8002efa:	684a      	ldr	r2, [r1, #4]
 8002efc:	684b      	ldr	r3, [r1, #4]
 8002efe:	6849      	ldr	r1, [r1, #4]
 8002f00:	f002 023f 	and.w	r2, r2, #63	; 0x3f
 8002f04:	f413 0380 	ands.w	r3, r3, #4194304	; 0x400000
 8002f08:	f3c1 1188 	ubfx	r1, r1, #6, #9
 8002f0c:	bf1a      	itte	ne
 8002f0e:	480b      	ldrne	r0, [pc, #44]	; (8002f3c <HAL_RCC_GetSysClockFreq+0x54>)
 8002f10:	2300      	movne	r3, #0
 8002f12:	480b      	ldreq	r0, [pc, #44]	; (8002f40 <HAL_RCC_GetSysClockFreq+0x58>)
 8002f14:	fba1 0100 	umull	r0, r1, r1, r0
 8002f18:	f7fd f9e2 	bl	80002e0 <__aeabi_uldivmod>
 8002f1c:	4b06      	ldr	r3, [pc, #24]	; (8002f38 <HAL_RCC_GetSysClockFreq+0x50>)
 8002f1e:	685b      	ldr	r3, [r3, #4]
 8002f20:	f3c3 4301 	ubfx	r3, r3, #16, #2
 8002f24:	3301      	adds	r3, #1
 8002f26:	005b      	lsls	r3, r3, #1
 8002f28:	fbb0 f0f3 	udiv	r0, r0, r3
 8002f2c:	bd08      	pop	{r3, pc}
 8002f2e:	4803      	ldr	r0, [pc, #12]	; (8002f3c <HAL_RCC_GetSysClockFreq+0x54>)
 8002f30:	e7fc      	b.n	8002f2c <HAL_RCC_GetSysClockFreq+0x44>
 8002f32:	4803      	ldr	r0, [pc, #12]	; (8002f40 <HAL_RCC_GetSysClockFreq+0x58>)
 8002f34:	e7fa      	b.n	8002f2c <HAL_RCC_GetSysClockFreq+0x44>
 8002f36:	bf00      	nop
 8002f38:	40023800 	.word	0x40023800
 8002f3c:	007a1200 	.word	0x007a1200
 8002f40:	00f42400 	.word	0x00f42400

08002f44 <HAL_RCC_ClockConfig>:
 8002f44:	e92d 41f0 	stmdb	sp!, {r4, r5, r6, r7, r8, lr}
 8002f48:	460d      	mov	r5, r1
 8002f4a:	4604      	mov	r4, r0
 8002f4c:	b910      	cbnz	r0, 8002f54 <HAL_RCC_ClockConfig+0x10>
 8002f4e:	2001      	movs	r0, #1
 8002f50:	e8bd 81f0 	ldmia.w	sp!, {r4, r5, r6, r7, r8, pc}
 8002f54:	4a45      	ldr	r2, [pc, #276]	; (800306c <HAL_RCC_ClockConfig+0x128>)
 8002f56:	6813      	ldr	r3, [r2, #0]
 8002f58:	f003 030f 	and.w	r3, r3, #15
 8002f5c:	428b      	cmp	r3, r1
 8002f5e:	d328      	bcc.n	8002fb2 <HAL_RCC_ClockConfig+0x6e>
 8002f60:	6821      	ldr	r1, [r4, #0]
 8002f62:	078f      	lsls	r7, r1, #30
 8002f64:	d430      	bmi.n	8002fc8 <HAL_RCC_ClockConfig+0x84>
 8002f66:	07c8      	lsls	r0, r1, #31
 8002f68:	d443      	bmi.n	8002ff2 <HAL_RCC_ClockConfig+0xae>
 8002f6a:	4a40      	ldr	r2, [pc, #256]	; (800306c <HAL_RCC_ClockConfig+0x128>)
 8002f6c:	6813      	ldr	r3, [r2, #0]
 8002f6e:	f003 030f 	and.w	r3, r3, #15
 8002f72:	42ab      	cmp	r3, r5
 8002f74:	d866      	bhi.n	8003044 <HAL_RCC_ClockConfig+0x100>
 8002f76:	6822      	ldr	r2, [r4, #0]
 8002f78:	0751      	lsls	r1, r2, #29
 8002f7a:	d46f      	bmi.n	800305c <HAL_RCC_ClockConfig+0x118>
 8002f7c:	0713      	lsls	r3, r2, #28
 8002f7e:	d507      	bpl.n	8002f90 <HAL_RCC_ClockConfig+0x4c>
 8002f80:	4a3b      	ldr	r2, [pc, #236]	; (8003070 <HAL_RCC_ClockConfig+0x12c>)
 8002f82:	6921      	ldr	r1, [r4, #16]
 8002f84:	6893      	ldr	r3, [r2, #8]
 8002f86:	f423 4360 	bic.w	r3, r3, #57344	; 0xe000
 8002f8a:	ea43 03c1 	orr.w	r3, r3, r1, lsl #3
 8002f8e:	6093      	str	r3, [r2, #8]
 8002f90:	f7ff ffaa 	bl	8002ee8 <HAL_RCC_GetSysClockFreq>
 8002f94:	4b36      	ldr	r3, [pc, #216]	; (8003070 <HAL_RCC_ClockConfig+0x12c>)
 8002f96:	4a37      	ldr	r2, [pc, #220]	; (8003074 <HAL_RCC_ClockConfig+0x130>)
 8002f98:	689b      	ldr	r3, [r3, #8]
 8002f9a:	f3c3 1303 	ubfx	r3, r3, #4, #4
 8002f9e:	5cd3      	ldrb	r3, [r2, r3]
 8002fa0:	40d8      	lsrs	r0, r3
 8002fa2:	4b35      	ldr	r3, [pc, #212]	; (8003078 <HAL_RCC_ClockConfig+0x134>)
 8002fa4:	6018      	str	r0, [r3, #0]
 8002fa6:	4b35      	ldr	r3, [pc, #212]	; (800307c <HAL_RCC_ClockConfig+0x138>)
 8002fa8:	6818      	ldr	r0, [r3, #0]
 8002faa:	f7fe fc0d 	bl	80017c8 <HAL_InitTick>
 8002fae:	2000      	movs	r0, #0
 8002fb0:	e7ce      	b.n	8002f50 <HAL_RCC_ClockConfig+0xc>
 8002fb2:	6813      	ldr	r3, [r2, #0]
 8002fb4:	f023 030f 	bic.w	r3, r3, #15
 8002fb8:	430b      	orrs	r3, r1
 8002fba:	6013      	str	r3, [r2, #0]
 8002fbc:	6813      	ldr	r3, [r2, #0]
 8002fbe:	f003 030f 	and.w	r3, r3, #15
 8002fc2:	428b      	cmp	r3, r1
 8002fc4:	d1c3      	bne.n	8002f4e <HAL_RCC_ClockConfig+0xa>
 8002fc6:	e7cb      	b.n	8002f60 <HAL_RCC_ClockConfig+0x1c>
 8002fc8:	f011 0f04 	tst.w	r1, #4
 8002fcc:	4b28      	ldr	r3, [pc, #160]	; (8003070 <HAL_RCC_ClockConfig+0x12c>)
 8002fce:	d003      	beq.n	8002fd8 <HAL_RCC_ClockConfig+0x94>
 8002fd0:	689a      	ldr	r2, [r3, #8]
 8002fd2:	f442 52e0 	orr.w	r2, r2, #7168	; 0x1c00
 8002fd6:	609a      	str	r2, [r3, #8]
 8002fd8:	070e      	lsls	r6, r1, #28
 8002fda:	d503      	bpl.n	8002fe4 <HAL_RCC_ClockConfig+0xa0>
 8002fdc:	689a      	ldr	r2, [r3, #8]
 8002fde:	f442 4260 	orr.w	r2, r2, #57344	; 0xe000
 8002fe2:	609a      	str	r2, [r3, #8]
 8002fe4:	689a      	ldr	r2, [r3, #8]
 8002fe6:	68a0      	ldr	r0, [r4, #8]
 8002fe8:	f022 02f0 	bic.w	r2, r2, #240	; 0xf0
 8002fec:	4302      	orrs	r2, r0
 8002fee:	609a      	str	r2, [r3, #8]
 8002ff0:	e7b9      	b.n	8002f66 <HAL_RCC_ClockConfig+0x22>
 8002ff2:	6861      	ldr	r1, [r4, #4]
 8002ff4:	4b1e      	ldr	r3, [pc, #120]	; (8003070 <HAL_RCC_ClockConfig+0x12c>)
 8002ff6:	2901      	cmp	r1, #1
 8002ff8:	681a      	ldr	r2, [r3, #0]
 8002ffa:	d11b      	bne.n	8003034 <HAL_RCC_ClockConfig+0xf0>
 8002ffc:	f412 3f00 	tst.w	r2, #131072	; 0x20000
 8003000:	d0a5      	beq.n	8002f4e <HAL_RCC_ClockConfig+0xa>
 8003002:	689a      	ldr	r2, [r3, #8]
 8003004:	f241 3888 	movw	r8, #5000	; 0x1388
 8003008:	4f19      	ldr	r7, [pc, #100]	; (8003070 <HAL_RCC_ClockConfig+0x12c>)
 800300a:	f022 0203 	bic.w	r2, r2, #3
 800300e:	430a      	orrs	r2, r1
 8003010:	609a      	str	r2, [r3, #8]
 8003012:	f7fe fecd 	bl	8001db0 <HAL_GetTick>
 8003016:	4606      	mov	r6, r0
 8003018:	68bb      	ldr	r3, [r7, #8]
 800301a:	6862      	ldr	r2, [r4, #4]
 800301c:	f003 030c 	and.w	r3, r3, #12
 8003020:	ebb3 0f82 	cmp.w	r3, r2, lsl #2
 8003024:	d0a1      	beq.n	8002f6a <HAL_RCC_ClockConfig+0x26>
 8003026:	f7fe fec3 	bl	8001db0 <HAL_GetTick>
 800302a:	1b80      	subs	r0, r0, r6
 800302c:	4540      	cmp	r0, r8
 800302e:	d9f3      	bls.n	8003018 <HAL_RCC_ClockConfig+0xd4>
 8003030:	2003      	movs	r0, #3
 8003032:	e78d      	b.n	8002f50 <HAL_RCC_ClockConfig+0xc>
 8003034:	2902      	cmp	r1, #2
 8003036:	d102      	bne.n	800303e <HAL_RCC_ClockConfig+0xfa>
 8003038:	f012 7f00 	tst.w	r2, #33554432	; 0x2000000
 800303c:	e7e0      	b.n	8003000 <HAL_RCC_ClockConfig+0xbc>
 800303e:	f012 0f02 	tst.w	r2, #2
 8003042:	e7dd      	b.n	8003000 <HAL_RCC_ClockConfig+0xbc>
 8003044:	6813      	ldr	r3, [r2, #0]
 8003046:	f023 030f 	bic.w	r3, r3, #15
 800304a:	432b      	orrs	r3, r5
 800304c:	6013      	str	r3, [r2, #0]
 800304e:	6813      	ldr	r3, [r2, #0]
 8003050:	f003 030f 	and.w	r3, r3, #15
 8003054:	42ab      	cmp	r3, r5
 8003056:	f47f af7a 	bne.w	8002f4e <HAL_RCC_ClockConfig+0xa>
 800305a:	e78c      	b.n	8002f76 <HAL_RCC_ClockConfig+0x32>
 800305c:	4904      	ldr	r1, [pc, #16]	; (8003070 <HAL_RCC_ClockConfig+0x12c>)
 800305e:	68e0      	ldr	r0, [r4, #12]
 8003060:	688b      	ldr	r3, [r1, #8]
 8003062:	f423 53e0 	bic.w	r3, r3, #7168	; 0x1c00
 8003066:	4303      	orrs	r3, r0
 8003068:	608b      	str	r3, [r1, #8]
 800306a:	e787      	b.n	8002f7c <HAL_RCC_ClockConfig+0x38>
 800306c:	40023c00 	.word	0x40023c00
 8003070:	40023800 	.word	0x40023800
 8003074:	080094c8 	.word	0x080094c8
 8003078:	200000e0 	.word	0x200000e0
 800307c:	200000e8 	.word	0x200000e8

08003080 <HAL_RCC_GetPCLK1Freq>:
 8003080:	4b04      	ldr	r3, [pc, #16]	; (8003094 <HAL_RCC_GetPCLK1Freq+0x14>)
 8003082:	4a05      	ldr	r2, [pc, #20]	; (8003098 <HAL_RCC_GetPCLK1Freq+0x18>)
 8003084:	689b      	ldr	r3, [r3, #8]
 8003086:	f3c3 2382 	ubfx	r3, r3, #10, #3
 800308a:	5cd3      	ldrb	r3, [r2, r3]
 800308c:	4a03      	ldr	r2, [pc, #12]	; (800309c <HAL_RCC_GetPCLK1Freq+0x1c>)
 800308e:	6810      	ldr	r0, [r2, #0]
 8003090:	40d8      	lsrs	r0, r3
 8003092:	4770      	bx	lr
 8003094:	40023800 	.word	0x40023800
 8003098:	080094d8 	.word	0x080094d8
 800309c:	200000e0 	.word	0x200000e0

080030a0 <HAL_RCC_GetPCLK2Freq>:
 80030a0:	4b04      	ldr	r3, [pc, #16]	; (80030b4 <HAL_RCC_GetPCLK2Freq+0x14>)
 80030a2:	4a05      	ldr	r2, [pc, #20]	; (80030b8 <HAL_RCC_GetPCLK2Freq+0x18>)
 80030a4:	689b      	ldr	r3, [r3, #8]
 80030a6:	f3c3 3342 	ubfx	r3, r3, #13, #3
 80030aa:	5cd3      	ldrb	r3, [r2, r3]
 80030ac:	4a03      	ldr	r2, [pc, #12]	; (80030bc <HAL_RCC_GetPCLK2Freq+0x1c>)
 80030ae:	6810      	ldr	r0, [r2, #0]
 80030b0:	40d8      	lsrs	r0, r3
 80030b2:	4770      	bx	lr
 80030b4:	40023800 	.word	0x40023800
 80030b8:	080094d8 	.word	0x080094d8
 80030bc:	200000e0 	.word	0x200000e0

080030c0 <HAL_RCC_GetClockConfig>:
 80030c0:	230f      	movs	r3, #15
 80030c2:	6003      	str	r3, [r0, #0]
 80030c4:	4b0b      	ldr	r3, [pc, #44]	; (80030f4 <HAL_RCC_GetClockConfig+0x34>)
 80030c6:	689a      	ldr	r2, [r3, #8]
 80030c8:	f002 0203 	and.w	r2, r2, #3
 80030cc:	6042      	str	r2, [r0, #4]
 80030ce:	689a      	ldr	r2, [r3, #8]
 80030d0:	f002 02f0 	and.w	r2, r2, #240	; 0xf0
 80030d4:	6082      	str	r2, [r0, #8]
 80030d6:	689a      	ldr	r2, [r3, #8]
 80030d8:	f402 52e0 	and.w	r2, r2, #7168	; 0x1c00
 80030dc:	60c2      	str	r2, [r0, #12]
 80030de:	689b      	ldr	r3, [r3, #8]
 80030e0:	08db      	lsrs	r3, r3, #3
 80030e2:	f403 53e0 	and.w	r3, r3, #7168	; 0x1c00
 80030e6:	6103      	str	r3, [r0, #16]
 80030e8:	4b03      	ldr	r3, [pc, #12]	; (80030f8 <HAL_RCC_GetClockConfig+0x38>)
 80030ea:	681b      	ldr	r3, [r3, #0]
 80030ec:	f003 030f 	and.w	r3, r3, #15
 80030f0:	600b      	str	r3, [r1, #0]
 80030f2:	4770      	bx	lr
 80030f4:	40023800 	.word	0x40023800
 80030f8:	40023c00 	.word	0x40023c00

080030fc <HAL_RCCEx_PeriphCLKConfig>:
 80030fc:	6803      	ldr	r3, [r0, #0]
 80030fe:	e92d 43f7 	stmdb	sp!, {r0, r1, r2, r4, r5, r6, r7, r8, r9, lr}
 8003102:	f013 0601 	ands.w	r6, r3, #1
 8003106:	4604      	mov	r4, r0
 8003108:	d00b      	beq.n	8003122 <HAL_RCCEx_PeriphCLKConfig+0x26>
 800310a:	4ab1      	ldr	r2, [pc, #708]	; (80033d0 <HAL_RCCEx_PeriphCLKConfig+0x2d4>)
 800310c:	6891      	ldr	r1, [r2, #8]
 800310e:	f421 0100 	bic.w	r1, r1, #8388608	; 0x800000
 8003112:	6091      	str	r1, [r2, #8]
 8003114:	6b46      	ldr	r6, [r0, #52]	; 0x34
 8003116:	6891      	ldr	r1, [r2, #8]
 8003118:	4331      	orrs	r1, r6
 800311a:	fab6 f686 	clz	r6, r6
 800311e:	0976      	lsrs	r6, r6, #5
 8003120:	6091      	str	r1, [r2, #8]
 8003122:	f413 2500 	ands.w	r5, r3, #524288	; 0x80000
 8003126:	d012      	beq.n	800314e <HAL_RCCEx_PeriphCLKConfig+0x52>
 8003128:	49a9      	ldr	r1, [pc, #676]	; (80033d0 <HAL_RCCEx_PeriphCLKConfig+0x2d4>)
 800312a:	6be5      	ldr	r5, [r4, #60]	; 0x3c
 800312c:	f8d1 208c 	ldr.w	r2, [r1, #140]	; 0x8c
 8003130:	f5b5 1f80 	cmp.w	r5, #1048576	; 0x100000
 8003134:	f422 1240 	bic.w	r2, r2, #3145728	; 0x300000
 8003138:	bf08      	it	eq
 800313a:	2601      	moveq	r6, #1
 800313c:	ea42 0205 	orr.w	r2, r2, r5
 8003140:	bf16      	itet	ne
 8003142:	fab5 f585 	clzne	r5, r5
 8003146:	2500      	moveq	r5, #0
 8003148:	096d      	lsrne	r5, r5, #5
 800314a:	f8c1 208c 	str.w	r2, [r1, #140]	; 0x8c
 800314e:	02d9      	lsls	r1, r3, #11
 8003150:	d510      	bpl.n	8003174 <HAL_RCCEx_PeriphCLKConfig+0x78>
 8003152:	489f      	ldr	r0, [pc, #636]	; (80033d0 <HAL_RCCEx_PeriphCLKConfig+0x2d4>)
 8003154:	6c21      	ldr	r1, [r4, #64]	; 0x40
 8003156:	f8d0 208c 	ldr.w	r2, [r0, #140]	; 0x8c
 800315a:	f5b1 0f80 	cmp.w	r1, #4194304	; 0x400000
 800315e:	f422 0240 	bic.w	r2, r2, #12582912	; 0xc00000
 8003162:	ea42 0201 	orr.w	r2, r2, r1
 8003166:	f8c0 208c 	str.w	r2, [r0, #140]	; 0x8c
 800316a:	f000 81aa 	beq.w	80034c2 <HAL_RCCEx_PeriphCLKConfig+0x3c6>
 800316e:	2900      	cmp	r1, #0
 8003170:	bf08      	it	eq
 8003172:	2501      	moveq	r5, #1
 8003174:	f013 7f80 	tst.w	r3, #16777216	; 0x1000000
 8003178:	bf18      	it	ne
 800317a:	2601      	movne	r6, #1
 800317c:	069a      	lsls	r2, r3, #26
 800317e:	d532      	bpl.n	80031e6 <HAL_RCCEx_PeriphCLKConfig+0xea>
 8003180:	4b93      	ldr	r3, [pc, #588]	; (80033d0 <HAL_RCCEx_PeriphCLKConfig+0x2d4>)
 8003182:	4f94      	ldr	r7, [pc, #592]	; (80033d4 <HAL_RCCEx_PeriphCLKConfig+0x2d8>)
 8003184:	6c1a      	ldr	r2, [r3, #64]	; 0x40
 8003186:	f042 5280 	orr.w	r2, r2, #268435456	; 0x10000000
 800318a:	641a      	str	r2, [r3, #64]	; 0x40
 800318c:	6c1b      	ldr	r3, [r3, #64]	; 0x40
 800318e:	f003 5380 	and.w	r3, r3, #268435456	; 0x10000000
 8003192:	9301      	str	r3, [sp, #4]
 8003194:	9b01      	ldr	r3, [sp, #4]
 8003196:	683b      	ldr	r3, [r7, #0]
 8003198:	f443 7380 	orr.w	r3, r3, #256	; 0x100
 800319c:	603b      	str	r3, [r7, #0]
 800319e:	f7fe fe07 	bl	8001db0 <HAL_GetTick>
 80031a2:	4680      	mov	r8, r0
 80031a4:	683b      	ldr	r3, [r7, #0]
 80031a6:	05db      	lsls	r3, r3, #23
 80031a8:	f140 818d 	bpl.w	80034c6 <HAL_RCCEx_PeriphCLKConfig+0x3ca>
 80031ac:	4f88      	ldr	r7, [pc, #544]	; (80033d0 <HAL_RCCEx_PeriphCLKConfig+0x2d4>)
 80031ae:	6b22      	ldr	r2, [r4, #48]	; 0x30
 80031b0:	6f3b      	ldr	r3, [r7, #112]	; 0x70
 80031b2:	f413 7340 	ands.w	r3, r3, #768	; 0x300
 80031b6:	f040 8191 	bne.w	80034dc <HAL_RCCEx_PeriphCLKConfig+0x3e0>
 80031ba:	6b23      	ldr	r3, [r4, #48]	; 0x30
 80031bc:	f403 7240 	and.w	r2, r3, #768	; 0x300
 80031c0:	f5b2 7f40 	cmp.w	r2, #768	; 0x300
 80031c4:	4a82      	ldr	r2, [pc, #520]	; (80033d0 <HAL_RCCEx_PeriphCLKConfig+0x2d4>)
 80031c6:	f040 81ae 	bne.w	8003526 <HAL_RCCEx_PeriphCLKConfig+0x42a>
 80031ca:	6891      	ldr	r1, [r2, #8]
 80031cc:	f023 4070 	bic.w	r0, r3, #4026531840	; 0xf0000000
 80031d0:	f421 11f8 	bic.w	r1, r1, #2031616	; 0x1f0000
 80031d4:	f420 7040 	bic.w	r0, r0, #768	; 0x300
 80031d8:	4301      	orrs	r1, r0
 80031da:	6091      	str	r1, [r2, #8]
 80031dc:	f3c3 030b 	ubfx	r3, r3, #0, #12
 80031e0:	6f11      	ldr	r1, [r2, #112]	; 0x70
 80031e2:	430b      	orrs	r3, r1
 80031e4:	6713      	str	r3, [r2, #112]	; 0x70
 80031e6:	6823      	ldr	r3, [r4, #0]
 80031e8:	06da      	lsls	r2, r3, #27
 80031ea:	d50c      	bpl.n	8003206 <HAL_RCCEx_PeriphCLKConfig+0x10a>
 80031ec:	4a78      	ldr	r2, [pc, #480]	; (80033d0 <HAL_RCCEx_PeriphCLKConfig+0x2d4>)
 80031ee:	f8d2 108c 	ldr.w	r1, [r2, #140]	; 0x8c
 80031f2:	f021 7180 	bic.w	r1, r1, #16777216	; 0x1000000
 80031f6:	f8c2 108c 	str.w	r1, [r2, #140]	; 0x8c
 80031fa:	f8d2 108c 	ldr.w	r1, [r2, #140]	; 0x8c
 80031fe:	6ba0      	ldr	r0, [r4, #56]	; 0x38
 8003200:	4301      	orrs	r1, r0
 8003202:	f8c2 108c 	str.w	r1, [r2, #140]	; 0x8c
 8003206:	045f      	lsls	r7, r3, #17
 8003208:	d508      	bpl.n	800321c <HAL_RCCEx_PeriphCLKConfig+0x120>
 800320a:	4971      	ldr	r1, [pc, #452]	; (80033d0 <HAL_RCCEx_PeriphCLKConfig+0x2d4>)
 800320c:	6e60      	ldr	r0, [r4, #100]	; 0x64
 800320e:	f8d1 2090 	ldr.w	r2, [r1, #144]	; 0x90
 8003212:	f422 3240 	bic.w	r2, r2, #196608	; 0x30000
 8003216:	4302      	orrs	r2, r0
 8003218:	f8c1 2090 	str.w	r2, [r1, #144]	; 0x90
 800321c:	0418      	lsls	r0, r3, #16
 800321e:	d508      	bpl.n	8003232 <HAL_RCCEx_PeriphCLKConfig+0x136>
 8003220:	496b      	ldr	r1, [pc, #428]	; (80033d0 <HAL_RCCEx_PeriphCLKConfig+0x2d4>)
 8003222:	6ea0      	ldr	r0, [r4, #104]	; 0x68
 8003224:	f8d1 2090 	ldr.w	r2, [r1, #144]	; 0x90
 8003228:	f422 2240 	bic.w	r2, r2, #786432	; 0xc0000
 800322c:	4302      	orrs	r2, r0
 800322e:	f8c1 2090 	str.w	r2, [r1, #144]	; 0x90
 8003232:	03d9      	lsls	r1, r3, #15
 8003234:	d508      	bpl.n	8003248 <HAL_RCCEx_PeriphCLKConfig+0x14c>
 8003236:	4966      	ldr	r1, [pc, #408]	; (80033d0 <HAL_RCCEx_PeriphCLKConfig+0x2d4>)
 8003238:	6ee0      	ldr	r0, [r4, #108]	; 0x6c
 800323a:	f8d1 2090 	ldr.w	r2, [r1, #144]	; 0x90
 800323e:	f422 1240 	bic.w	r2, r2, #3145728	; 0x300000
 8003242:	4302      	orrs	r2, r0
 8003244:	f8c1 2090 	str.w	r2, [r1, #144]	; 0x90
 8003248:	039a      	lsls	r2, r3, #14
 800324a:	d508      	bpl.n	800325e <HAL_RCCEx_PeriphCLKConfig+0x162>
 800324c:	4960      	ldr	r1, [pc, #384]	; (80033d0 <HAL_RCCEx_PeriphCLKConfig+0x2d4>)
 800324e:	6f20      	ldr	r0, [r4, #112]	; 0x70
 8003250:	f8d1 2090 	ldr.w	r2, [r1, #144]	; 0x90
 8003254:	f422 0240 	bic.w	r2, r2, #12582912	; 0xc00000
 8003258:	4302      	orrs	r2, r0
 800325a:	f8c1 2090 	str.w	r2, [r1, #144]	; 0x90
 800325e:	065f      	lsls	r7, r3, #25
 8003260:	d508      	bpl.n	8003274 <HAL_RCCEx_PeriphCLKConfig+0x178>
 8003262:	495b      	ldr	r1, [pc, #364]	; (80033d0 <HAL_RCCEx_PeriphCLKConfig+0x2d4>)
 8003264:	6c60      	ldr	r0, [r4, #68]	; 0x44
 8003266:	f8d1 2090 	ldr.w	r2, [r1, #144]	; 0x90
 800326a:	f022 0203 	bic.w	r2, r2, #3
 800326e:	4302      	orrs	r2, r0
 8003270:	f8c1 2090 	str.w	r2, [r1, #144]	; 0x90
 8003274:	0618      	lsls	r0, r3, #24
 8003276:	d508      	bpl.n	800328a <HAL_RCCEx_PeriphCLKConfig+0x18e>
 8003278:	4955      	ldr	r1, [pc, #340]	; (80033d0 <HAL_RCCEx_PeriphCLKConfig+0x2d4>)
 800327a:	6ca0      	ldr	r0, [r4, #72]	; 0x48
 800327c:	f8d1 2090 	ldr.w	r2, [r1, #144]	; 0x90
 8003280:	f022 020c 	bic.w	r2, r2, #12
 8003284:	4302      	orrs	r2, r0
 8003286:	f8c1 2090 	str.w	r2, [r1, #144]	; 0x90
 800328a:	05d9      	lsls	r1, r3, #23
 800328c:	d508      	bpl.n	80032a0 <HAL_RCCEx_PeriphCLKConfig+0x1a4>
 800328e:	4950      	ldr	r1, [pc, #320]	; (80033d0 <HAL_RCCEx_PeriphCLKConfig+0x2d4>)
 8003290:	6ce0      	ldr	r0, [r4, #76]	; 0x4c
 8003292:	f8d1 2090 	ldr.w	r2, [r1, #144]	; 0x90
 8003296:	f022 0230 	bic.w	r2, r2, #48	; 0x30
 800329a:	4302      	orrs	r2, r0
 800329c:	f8c1 2090 	str.w	r2, [r1, #144]	; 0x90
 80032a0:	059a      	lsls	r2, r3, #22
 80032a2:	d508      	bpl.n	80032b6 <HAL_RCCEx_PeriphCLKConfig+0x1ba>
 80032a4:	494a      	ldr	r1, [pc, #296]	; (80033d0 <HAL_RCCEx_PeriphCLKConfig+0x2d4>)
 80032a6:	6d20      	ldr	r0, [r4, #80]	; 0x50
 80032a8:	f8d1 2090 	ldr.w	r2, [r1, #144]	; 0x90
 80032ac:	f022 02c0 	bic.w	r2, r2, #192	; 0xc0
 80032b0:	4302      	orrs	r2, r0
 80032b2:	f8c1 2090 	str.w	r2, [r1, #144]	; 0x90
 80032b6:	055f      	lsls	r7, r3, #21
 80032b8:	d508      	bpl.n	80032cc <HAL_RCCEx_PeriphCLKConfig+0x1d0>
 80032ba:	4945      	ldr	r1, [pc, #276]	; (80033d0 <HAL_RCCEx_PeriphCLKConfig+0x2d4>)
 80032bc:	6d60      	ldr	r0, [r4, #84]	; 0x54
 80032be:	f8d1 2090 	ldr.w	r2, [r1, #144]	; 0x90
 80032c2:	f422 7240 	bic.w	r2, r2, #768	; 0x300
 80032c6:	4302      	orrs	r2, r0
 80032c8:	f8c1 2090 	str.w	r2, [r1, #144]	; 0x90
 80032cc:	0518      	lsls	r0, r3, #20
 80032ce:	d508      	bpl.n	80032e2 <HAL_RCCEx_PeriphCLKConfig+0x1e6>
 80032d0:	493f      	ldr	r1, [pc, #252]	; (80033d0 <HAL_RCCEx_PeriphCLKConfig+0x2d4>)
 80032d2:	6da0      	ldr	r0, [r4, #88]	; 0x58
 80032d4:	f8d1 2090 	ldr.w	r2, [r1, #144]	; 0x90
 80032d8:	f422 6240 	bic.w	r2, r2, #3072	; 0xc00
 80032dc:	4302      	orrs	r2, r0
 80032de:	f8c1 2090 	str.w	r2, [r1, #144]	; 0x90
 80032e2:	04d9      	lsls	r1, r3, #19
 80032e4:	d508      	bpl.n	80032f8 <HAL_RCCEx_PeriphCLKConfig+0x1fc>
 80032e6:	493a      	ldr	r1, [pc, #232]	; (80033d0 <HAL_RCCEx_PeriphCLKConfig+0x2d4>)
 80032e8:	6de0      	ldr	r0, [r4, #92]	; 0x5c
 80032ea:	f8d1 2090 	ldr.w	r2, [r1, #144]	; 0x90
 80032ee:	f422 5240 	bic.w	r2, r2, #12288	; 0x3000
 80032f2:	4302      	orrs	r2, r0
 80032f4:	f8c1 2090 	str.w	r2, [r1, #144]	; 0x90
 80032f8:	049a      	lsls	r2, r3, #18
 80032fa:	d508      	bpl.n	800330e <HAL_RCCEx_PeriphCLKConfig+0x212>
 80032fc:	4934      	ldr	r1, [pc, #208]	; (80033d0 <HAL_RCCEx_PeriphCLKConfig+0x2d4>)
 80032fe:	6e20      	ldr	r0, [r4, #96]	; 0x60
 8003300:	f8d1 2090 	ldr.w	r2, [r1, #144]	; 0x90
 8003304:	f422 4240 	bic.w	r2, r2, #49152	; 0xc000
 8003308:	4302      	orrs	r2, r0
 800330a:	f8c1 2090 	str.w	r2, [r1, #144]	; 0x90
 800330e:	025f      	lsls	r7, r3, #9
 8003310:	d508      	bpl.n	8003324 <HAL_RCCEx_PeriphCLKConfig+0x228>
 8003312:	492f      	ldr	r1, [pc, #188]	; (80033d0 <HAL_RCCEx_PeriphCLKConfig+0x2d4>)
 8003314:	6fa0      	ldr	r0, [r4, #120]	; 0x78
 8003316:	f8d1 2090 	ldr.w	r2, [r1, #144]	; 0x90
 800331a:	f022 6280 	bic.w	r2, r2, #67108864	; 0x4000000
 800331e:	4302      	orrs	r2, r0
 8003320:	f8c1 2090 	str.w	r2, [r1, #144]	; 0x90
 8003324:	0298      	lsls	r0, r3, #10
 8003326:	d50c      	bpl.n	8003342 <HAL_RCCEx_PeriphCLKConfig+0x246>
 8003328:	4829      	ldr	r0, [pc, #164]	; (80033d0 <HAL_RCCEx_PeriphCLKConfig+0x2d4>)
 800332a:	6fe1      	ldr	r1, [r4, #124]	; 0x7c
 800332c:	f8d0 2090 	ldr.w	r2, [r0, #144]	; 0x90
 8003330:	f1b1 6f00 	cmp.w	r1, #134217728	; 0x8000000
 8003334:	f022 6200 	bic.w	r2, r2, #134217728	; 0x8000000
 8003338:	bf08      	it	eq
 800333a:	2501      	moveq	r5, #1
 800333c:	430a      	orrs	r2, r1
 800333e:	f8c0 2090 	str.w	r2, [r0, #144]	; 0x90
 8003342:	f013 0f08 	tst.w	r3, #8
 8003346:	bf18      	it	ne
 8003348:	2501      	movne	r5, #1
 800334a:	0359      	lsls	r1, r3, #13
 800334c:	d508      	bpl.n	8003360 <HAL_RCCEx_PeriphCLKConfig+0x264>
 800334e:	4920      	ldr	r1, [pc, #128]	; (80033d0 <HAL_RCCEx_PeriphCLKConfig+0x2d4>)
 8003350:	6f60      	ldr	r0, [r4, #116]	; 0x74
 8003352:	f8d1 2090 	ldr.w	r2, [r1, #144]	; 0x90
 8003356:	f022 7240 	bic.w	r2, r2, #50331648	; 0x3000000
 800335a:	4302      	orrs	r2, r0
 800335c:	f8c1 2090 	str.w	r2, [r1, #144]	; 0x90
 8003360:	021a      	lsls	r2, r3, #8
 8003362:	d509      	bpl.n	8003378 <HAL_RCCEx_PeriphCLKConfig+0x27c>
 8003364:	491a      	ldr	r1, [pc, #104]	; (80033d0 <HAL_RCCEx_PeriphCLKConfig+0x2d4>)
 8003366:	f8d4 0080 	ldr.w	r0, [r4, #128]	; 0x80
 800336a:	f8d1 2090 	ldr.w	r2, [r1, #144]	; 0x90
 800336e:	f022 5280 	bic.w	r2, r2, #268435456	; 0x10000000
 8003372:	4302      	orrs	r2, r0
 8003374:	f8c1 2090 	str.w	r2, [r1, #144]	; 0x90
 8003378:	015f      	lsls	r7, r3, #5
 800337a:	d509      	bpl.n	8003390 <HAL_RCCEx_PeriphCLKConfig+0x294>
 800337c:	4914      	ldr	r1, [pc, #80]	; (80033d0 <HAL_RCCEx_PeriphCLKConfig+0x2d4>)
 800337e:	f8d4 0084 	ldr.w	r0, [r4, #132]	; 0x84
 8003382:	f8d1 2090 	ldr.w	r2, [r1, #144]	; 0x90
 8003386:	f022 5200 	bic.w	r2, r2, #536870912	; 0x20000000
 800338a:	4302      	orrs	r2, r0
 800338c:	f8c1 2090 	str.w	r2, [r1, #144]	; 0x90
 8003390:	0118      	lsls	r0, r3, #4
 8003392:	d509      	bpl.n	80033a8 <HAL_RCCEx_PeriphCLKConfig+0x2ac>
 8003394:	490e      	ldr	r1, [pc, #56]	; (80033d0 <HAL_RCCEx_PeriphCLKConfig+0x2d4>)
 8003396:	f8d4 0088 	ldr.w	r0, [r4, #136]	; 0x88
 800339a:	f8d1 208c 	ldr.w	r2, [r1, #140]	; 0x8c
 800339e:	f022 7200 	bic.w	r2, r2, #33554432	; 0x2000000
 80033a2:	4302      	orrs	r2, r0
 80033a4:	f8c1 208c 	str.w	r2, [r1, #140]	; 0x8c
 80033a8:	00d9      	lsls	r1, r3, #3
 80033aa:	d509      	bpl.n	80033c0 <HAL_RCCEx_PeriphCLKConfig+0x2c4>
 80033ac:	4908      	ldr	r1, [pc, #32]	; (80033d0 <HAL_RCCEx_PeriphCLKConfig+0x2d4>)
 80033ae:	f8d4 008c 	ldr.w	r0, [r4, #140]	; 0x8c
 80033b2:	f8d1 208c 	ldr.w	r2, [r1, #140]	; 0x8c
 80033b6:	f022 6280 	bic.w	r2, r2, #67108864	; 0x4000000
 80033ba:	4302      	orrs	r2, r0
 80033bc:	f8c1 208c 	str.w	r2, [r1, #140]	; 0x8c
 80033c0:	2e01      	cmp	r6, #1
 80033c2:	f000 80b4 	beq.w	800352e <HAL_RCCEx_PeriphCLKConfig+0x432>
 80033c6:	019a      	lsls	r2, r3, #6
 80033c8:	f100 80b1 	bmi.w	800352e <HAL_RCCEx_PeriphCLKConfig+0x432>
 80033cc:	e004      	b.n	80033d8 <HAL_RCCEx_PeriphCLKConfig+0x2dc>
 80033ce:	bf00      	nop
 80033d0:	40023800 	.word	0x40023800
 80033d4:	40007000 	.word	0x40007000
 80033d8:	2d01      	cmp	r5, #1
 80033da:	d170      	bne.n	80034be <HAL_RCCEx_PeriphCLKConfig+0x3c2>
 80033dc:	4d9d      	ldr	r5, [pc, #628]	; (8003654 <HAL_RCCEx_PeriphCLKConfig+0x558>)
 80033de:	682b      	ldr	r3, [r5, #0]
 80033e0:	f023 5380 	bic.w	r3, r3, #268435456	; 0x10000000
 80033e4:	602b      	str	r3, [r5, #0]
 80033e6:	f7fe fce3 	bl	8001db0 <HAL_GetTick>
 80033ea:	4606      	mov	r6, r0
 80033ec:	682b      	ldr	r3, [r5, #0]
 80033ee:	009f      	lsls	r7, r3, #2
 80033f0:	f100 8121 	bmi.w	8003636 <HAL_RCCEx_PeriphCLKConfig+0x53a>
 80033f4:	6821      	ldr	r1, [r4, #0]
 80033f6:	030e      	lsls	r6, r1, #12
 80033f8:	d501      	bpl.n	80033fe <HAL_RCCEx_PeriphCLKConfig+0x302>
 80033fa:	6be3      	ldr	r3, [r4, #60]	; 0x3c
 80033fc:	b11b      	cbz	r3, 8003406 <HAL_RCCEx_PeriphCLKConfig+0x30a>
 80033fe:	02cd      	lsls	r5, r1, #11
 8003400:	d51d      	bpl.n	800343e <HAL_RCCEx_PeriphCLKConfig+0x342>
 8003402:	6c23      	ldr	r3, [r4, #64]	; 0x40
 8003404:	b9db      	cbnz	r3, 800343e <HAL_RCCEx_PeriphCLKConfig+0x342>
 8003406:	4a93      	ldr	r2, [pc, #588]	; (8003654 <HAL_RCCEx_PeriphCLKConfig+0x558>)
 8003408:	f8d2 3088 	ldr.w	r3, [r2, #136]	; 0x88
 800340c:	f8d2 0088 	ldr.w	r0, [r2, #136]	; 0x88
 8003410:	f403 3340 	and.w	r3, r3, #196608	; 0x30000
 8003414:	f000 40e0 	and.w	r0, r0, #1879048192	; 0x70000000
 8003418:	4303      	orrs	r3, r0
 800341a:	6960      	ldr	r0, [r4, #20]
 800341c:	ea43 1380 	orr.w	r3, r3, r0, lsl #6
 8003420:	69a0      	ldr	r0, [r4, #24]
 8003422:	ea43 6300 	orr.w	r3, r3, r0, lsl #24
 8003426:	f8c2 3088 	str.w	r3, [r2, #136]	; 0x88
 800342a:	f8d2 308c 	ldr.w	r3, [r2, #140]	; 0x8c
 800342e:	6aa0      	ldr	r0, [r4, #40]	; 0x28
 8003430:	f423 53f8 	bic.w	r3, r3, #7936	; 0x1f00
 8003434:	3801      	subs	r0, #1
 8003436:	ea43 2300 	orr.w	r3, r3, r0, lsl #8
 800343a:	f8c2 308c 	str.w	r3, [r2, #140]	; 0x8c
 800343e:	0288      	lsls	r0, r1, #10
 8003440:	d515      	bpl.n	800346e <HAL_RCCEx_PeriphCLKConfig+0x372>
 8003442:	6fe3      	ldr	r3, [r4, #124]	; 0x7c
 8003444:	f1b3 6f00 	cmp.w	r3, #134217728	; 0x8000000
 8003448:	d111      	bne.n	800346e <HAL_RCCEx_PeriphCLKConfig+0x372>
 800344a:	4a82      	ldr	r2, [pc, #520]	; (8003654 <HAL_RCCEx_PeriphCLKConfig+0x558>)
 800344c:	f8d2 3088 	ldr.w	r3, [r2, #136]	; 0x88
 8003450:	f8d2 0088 	ldr.w	r0, [r2, #136]	; 0x88
 8003454:	f003 6370 	and.w	r3, r3, #251658240	; 0xf000000
 8003458:	f000 40e0 	and.w	r0, r0, #1879048192	; 0x70000000
 800345c:	4303      	orrs	r3, r0
 800345e:	6960      	ldr	r0, [r4, #20]
 8003460:	ea43 1380 	orr.w	r3, r3, r0, lsl #6
 8003464:	6a20      	ldr	r0, [r4, #32]
 8003466:	ea43 4300 	orr.w	r3, r3, r0, lsl #16
 800346a:	f8c2 3088 	str.w	r3, [r2, #136]	; 0x88
 800346e:	070a      	lsls	r2, r1, #28
 8003470:	d519      	bpl.n	80034a6 <HAL_RCCEx_PeriphCLKConfig+0x3aa>
 8003472:	4a78      	ldr	r2, [pc, #480]	; (8003654 <HAL_RCCEx_PeriphCLKConfig+0x558>)
 8003474:	f8d2 1088 	ldr.w	r1, [r2, #136]	; 0x88
 8003478:	f8d2 3088 	ldr.w	r3, [r2, #136]	; 0x88
 800347c:	f001 6170 	and.w	r1, r1, #251658240	; 0xf000000
 8003480:	f403 3340 	and.w	r3, r3, #196608	; 0x30000
 8003484:	430b      	orrs	r3, r1
 8003486:	6961      	ldr	r1, [r4, #20]
 8003488:	ea43 1381 	orr.w	r3, r3, r1, lsl #6
 800348c:	69e1      	ldr	r1, [r4, #28]
 800348e:	ea43 7301 	orr.w	r3, r3, r1, lsl #28
 8003492:	f8c2 3088 	str.w	r3, [r2, #136]	; 0x88
 8003496:	f8d2 308c 	ldr.w	r3, [r2, #140]	; 0x8c
 800349a:	6ae1      	ldr	r1, [r4, #44]	; 0x2c
 800349c:	f423 3340 	bic.w	r3, r3, #196608	; 0x30000
 80034a0:	430b      	orrs	r3, r1
 80034a2:	f8c2 308c 	str.w	r3, [r2, #140]	; 0x8c
 80034a6:	4c6b      	ldr	r4, [pc, #428]	; (8003654 <HAL_RCCEx_PeriphCLKConfig+0x558>)
 80034a8:	6823      	ldr	r3, [r4, #0]
 80034aa:	f043 5380 	orr.w	r3, r3, #268435456	; 0x10000000
 80034ae:	6023      	str	r3, [r4, #0]
 80034b0:	f7fe fc7e 	bl	8001db0 <HAL_GetTick>
 80034b4:	4605      	mov	r5, r0
 80034b6:	6823      	ldr	r3, [r4, #0]
 80034b8:	009b      	lsls	r3, r3, #2
 80034ba:	f140 80c3 	bpl.w	8003644 <HAL_RCCEx_PeriphCLKConfig+0x548>
 80034be:	2000      	movs	r0, #0
 80034c0:	e009      	b.n	80034d6 <HAL_RCCEx_PeriphCLKConfig+0x3da>
 80034c2:	2601      	movs	r6, #1
 80034c4:	e656      	b.n	8003174 <HAL_RCCEx_PeriphCLKConfig+0x78>
 80034c6:	f7fe fc73 	bl	8001db0 <HAL_GetTick>
 80034ca:	eba0 0008 	sub.w	r0, r0, r8
 80034ce:	2864      	cmp	r0, #100	; 0x64
 80034d0:	f67f ae68 	bls.w	80031a4 <HAL_RCCEx_PeriphCLKConfig+0xa8>
 80034d4:	2003      	movs	r0, #3
 80034d6:	b003      	add	sp, #12
 80034d8:	e8bd 83f0 	ldmia.w	sp!, {r4, r5, r6, r7, r8, r9, pc}
 80034dc:	f402 7240 	and.w	r2, r2, #768	; 0x300
 80034e0:	429a      	cmp	r2, r3
 80034e2:	f43f ae6a 	beq.w	80031ba <HAL_RCCEx_PeriphCLKConfig+0xbe>
 80034e6:	6f3b      	ldr	r3, [r7, #112]	; 0x70
 80034e8:	6f3a      	ldr	r2, [r7, #112]	; 0x70
 80034ea:	f423 7340 	bic.w	r3, r3, #768	; 0x300
 80034ee:	f442 3280 	orr.w	r2, r2, #65536	; 0x10000
 80034f2:	673a      	str	r2, [r7, #112]	; 0x70
 80034f4:	6f3a      	ldr	r2, [r7, #112]	; 0x70
 80034f6:	f422 3280 	bic.w	r2, r2, #65536	; 0x10000
 80034fa:	673a      	str	r2, [r7, #112]	; 0x70
 80034fc:	673b      	str	r3, [r7, #112]	; 0x70
 80034fe:	6f3b      	ldr	r3, [r7, #112]	; 0x70
 8003500:	07d8      	lsls	r0, r3, #31
 8003502:	f57f ae5a 	bpl.w	80031ba <HAL_RCCEx_PeriphCLKConfig+0xbe>
 8003506:	f7fe fc53 	bl	8001db0 <HAL_GetTick>
 800350a:	f241 3988 	movw	r9, #5000	; 0x1388
 800350e:	4680      	mov	r8, r0
 8003510:	6f3b      	ldr	r3, [r7, #112]	; 0x70
 8003512:	0799      	lsls	r1, r3, #30
 8003514:	f53f ae51 	bmi.w	80031ba <HAL_RCCEx_PeriphCLKConfig+0xbe>
 8003518:	f7fe fc4a 	bl	8001db0 <HAL_GetTick>
 800351c:	eba0 0008 	sub.w	r0, r0, r8
 8003520:	4548      	cmp	r0, r9
 8003522:	d9f5      	bls.n	8003510 <HAL_RCCEx_PeriphCLKConfig+0x414>
 8003524:	e7d6      	b.n	80034d4 <HAL_RCCEx_PeriphCLKConfig+0x3d8>
 8003526:	6891      	ldr	r1, [r2, #8]
 8003528:	f421 11f8 	bic.w	r1, r1, #2031616	; 0x1f0000
 800352c:	e655      	b.n	80031da <HAL_RCCEx_PeriphCLKConfig+0xde>
 800352e:	4e49      	ldr	r6, [pc, #292]	; (8003654 <HAL_RCCEx_PeriphCLKConfig+0x558>)
 8003530:	6833      	ldr	r3, [r6, #0]
 8003532:	f023 6380 	bic.w	r3, r3, #67108864	; 0x4000000
 8003536:	6033      	str	r3, [r6, #0]
 8003538:	f7fe fc3a 	bl	8001db0 <HAL_GetTick>
 800353c:	4607      	mov	r7, r0
 800353e:	6833      	ldr	r3, [r6, #0]
 8003540:	011b      	lsls	r3, r3, #4
 8003542:	d472      	bmi.n	800362a <HAL_RCCEx_PeriphCLKConfig+0x52e>
 8003544:	6822      	ldr	r2, [r4, #0]
 8003546:	07d7      	lsls	r7, r2, #31
 8003548:	d512      	bpl.n	8003570 <HAL_RCCEx_PeriphCLKConfig+0x474>
 800354a:	6b63      	ldr	r3, [r4, #52]	; 0x34
 800354c:	b983      	cbnz	r3, 8003570 <HAL_RCCEx_PeriphCLKConfig+0x474>
 800354e:	f8d6 3084 	ldr.w	r3, [r6, #132]	; 0x84
 8003552:	f8d6 1084 	ldr.w	r1, [r6, #132]	; 0x84
 8003556:	f403 3340 	and.w	r3, r3, #196608	; 0x30000
 800355a:	f001 6170 	and.w	r1, r1, #251658240	; 0xf000000
 800355e:	430b      	orrs	r3, r1
 8003560:	6861      	ldr	r1, [r4, #4]
 8003562:	ea43 1381 	orr.w	r3, r3, r1, lsl #6
 8003566:	68a1      	ldr	r1, [r4, #8]
 8003568:	ea43 7301 	orr.w	r3, r3, r1, lsl #28
 800356c:	f8c6 3084 	str.w	r3, [r6, #132]	; 0x84
 8003570:	0316      	lsls	r6, r2, #12
 8003572:	d503      	bpl.n	800357c <HAL_RCCEx_PeriphCLKConfig+0x480>
 8003574:	6be3      	ldr	r3, [r4, #60]	; 0x3c
 8003576:	f5b3 1f80 	cmp.w	r3, #1048576	; 0x100000
 800357a:	d005      	beq.n	8003588 <HAL_RCCEx_PeriphCLKConfig+0x48c>
 800357c:	02d0      	lsls	r0, r2, #11
 800357e:	d51e      	bpl.n	80035be <HAL_RCCEx_PeriphCLKConfig+0x4c2>
 8003580:	6c23      	ldr	r3, [r4, #64]	; 0x40
 8003582:	f5b3 0f80 	cmp.w	r3, #4194304	; 0x400000
 8003586:	d11a      	bne.n	80035be <HAL_RCCEx_PeriphCLKConfig+0x4c2>
 8003588:	4932      	ldr	r1, [pc, #200]	; (8003654 <HAL_RCCEx_PeriphCLKConfig+0x558>)
 800358a:	f8d1 3084 	ldr.w	r3, [r1, #132]	; 0x84
 800358e:	f8d1 0084 	ldr.w	r0, [r1, #132]	; 0x84
 8003592:	f403 3340 	and.w	r3, r3, #196608	; 0x30000
 8003596:	f000 40e0 	and.w	r0, r0, #1879048192	; 0x70000000
 800359a:	4303      	orrs	r3, r0
 800359c:	6860      	ldr	r0, [r4, #4]
 800359e:	ea43 1380 	orr.w	r3, r3, r0, lsl #6
 80035a2:	68e0      	ldr	r0, [r4, #12]
 80035a4:	ea43 6300 	orr.w	r3, r3, r0, lsl #24
 80035a8:	f8c1 3084 	str.w	r3, [r1, #132]	; 0x84
 80035ac:	f8d1 008c 	ldr.w	r0, [r1, #140]	; 0x8c
 80035b0:	6a63      	ldr	r3, [r4, #36]	; 0x24
 80035b2:	f020 001f 	bic.w	r0, r0, #31
 80035b6:	3b01      	subs	r3, #1
 80035b8:	4303      	orrs	r3, r0
 80035ba:	f8c1 308c 	str.w	r3, [r1, #140]	; 0x8c
 80035be:	01d1      	lsls	r1, r2, #7
 80035c0:	d511      	bpl.n	80035e6 <HAL_RCCEx_PeriphCLKConfig+0x4ea>
 80035c2:	4924      	ldr	r1, [pc, #144]	; (8003654 <HAL_RCCEx_PeriphCLKConfig+0x558>)
 80035c4:	f8d1 3084 	ldr.w	r3, [r1, #132]	; 0x84
 80035c8:	f8d1 0084 	ldr.w	r0, [r1, #132]	; 0x84
 80035cc:	f003 6370 	and.w	r3, r3, #251658240	; 0xf000000
 80035d0:	f000 40e0 	and.w	r0, r0, #1879048192	; 0x70000000
 80035d4:	4303      	orrs	r3, r0
 80035d6:	6860      	ldr	r0, [r4, #4]
 80035d8:	ea43 1380 	orr.w	r3, r3, r0, lsl #6
 80035dc:	6920      	ldr	r0, [r4, #16]
 80035de:	ea43 4300 	orr.w	r3, r3, r0, lsl #16
 80035e2:	f8c1 3084 	str.w	r3, [r1, #132]	; 0x84
 80035e6:	0192      	lsls	r2, r2, #6
 80035e8:	d50d      	bpl.n	8003606 <HAL_RCCEx_PeriphCLKConfig+0x50a>
 80035ea:	6923      	ldr	r3, [r4, #16]
 80035ec:	6862      	ldr	r2, [r4, #4]
 80035ee:	041b      	lsls	r3, r3, #16
 80035f0:	ea43 1382 	orr.w	r3, r3, r2, lsl #6
 80035f4:	68e2      	ldr	r2, [r4, #12]
 80035f6:	ea43 6302 	orr.w	r3, r3, r2, lsl #24
 80035fa:	68a2      	ldr	r2, [r4, #8]
 80035fc:	ea43 7302 	orr.w	r3, r3, r2, lsl #28
 8003600:	4a14      	ldr	r2, [pc, #80]	; (8003654 <HAL_RCCEx_PeriphCLKConfig+0x558>)
 8003602:	f8c2 3084 	str.w	r3, [r2, #132]	; 0x84
 8003606:	4e13      	ldr	r6, [pc, #76]	; (8003654 <HAL_RCCEx_PeriphCLKConfig+0x558>)
 8003608:	6833      	ldr	r3, [r6, #0]
 800360a:	f043 6380 	orr.w	r3, r3, #67108864	; 0x4000000
 800360e:	6033      	str	r3, [r6, #0]
 8003610:	f7fe fbce 	bl	8001db0 <HAL_GetTick>
 8003614:	4607      	mov	r7, r0
 8003616:	6833      	ldr	r3, [r6, #0]
 8003618:	011b      	lsls	r3, r3, #4
 800361a:	f53f aedd 	bmi.w	80033d8 <HAL_RCCEx_PeriphCLKConfig+0x2dc>
 800361e:	f7fe fbc7 	bl	8001db0 <HAL_GetTick>
 8003622:	1bc0      	subs	r0, r0, r7
 8003624:	2864      	cmp	r0, #100	; 0x64
 8003626:	d9f6      	bls.n	8003616 <HAL_RCCEx_PeriphCLKConfig+0x51a>
 8003628:	e754      	b.n	80034d4 <HAL_RCCEx_PeriphCLKConfig+0x3d8>
 800362a:	f7fe fbc1 	bl	8001db0 <HAL_GetTick>
 800362e:	1bc0      	subs	r0, r0, r7
 8003630:	2864      	cmp	r0, #100	; 0x64
 8003632:	d984      	bls.n	800353e <HAL_RCCEx_PeriphCLKConfig+0x442>
 8003634:	e74e      	b.n	80034d4 <HAL_RCCEx_PeriphCLKConfig+0x3d8>
 8003636:	f7fe fbbb 	bl	8001db0 <HAL_GetTick>
 800363a:	1b80      	subs	r0, r0, r6
 800363c:	2864      	cmp	r0, #100	; 0x64
 800363e:	f67f aed5 	bls.w	80033ec <HAL_RCCEx_PeriphCLKConfig+0x2f0>
 8003642:	e747      	b.n	80034d4 <HAL_RCCEx_PeriphCLKConfig+0x3d8>
 8003644:	f7fe fbb4 	bl	8001db0 <HAL_GetTick>
 8003648:	1b40      	subs	r0, r0, r5
 800364a:	2864      	cmp	r0, #100	; 0x64
 800364c:	f67f af33 	bls.w	80034b6 <HAL_RCCEx_PeriphCLKConfig+0x3ba>
 8003650:	e740      	b.n	80034d4 <HAL_RCCEx_PeriphCLKConfig+0x3d8>
 8003652:	bf00      	nop
 8003654:	40023800 	.word	0x40023800

08003658 <SPI_WaitFlagStateUntilTimeout.constprop.0>:
 8003658:	b5f7      	push	{r0, r1, r2, r4, r5, r6, r7, lr}
 800365a:	460e      	mov	r6, r1
 800365c:	4614      	mov	r4, r2
 800365e:	4605      	mov	r5, r0
 8003660:	f7fe fba6 	bl	8001db0 <HAL_GetTick>
 8003664:	4434      	add	r4, r6
 8003666:	1a24      	subs	r4, r4, r0
 8003668:	f7fe fba2 	bl	8001db0 <HAL_GetTick>
 800366c:	4b22      	ldr	r3, [pc, #136]	; (80036f8 <SPI_WaitFlagStateUntilTimeout.constprop.0+0xa0>)
 800366e:	4607      	mov	r7, r0
 8003670:	681b      	ldr	r3, [r3, #0]
 8003672:	f3c3 33cb 	ubfx	r3, r3, #15, #12
 8003676:	4363      	muls	r3, r4
 8003678:	9301      	str	r3, [sp, #4]
 800367a:	682a      	ldr	r2, [r5, #0]
 800367c:	6893      	ldr	r3, [r2, #8]
 800367e:	f013 0380 	ands.w	r3, r3, #128	; 0x80
 8003682:	d101      	bne.n	8003688 <SPI_WaitFlagStateUntilTimeout.constprop.0+0x30>
 8003684:	4618      	mov	r0, r3
 8003686:	e02d      	b.n	80036e4 <SPI_WaitFlagStateUntilTimeout.constprop.0+0x8c>
 8003688:	1c73      	adds	r3, r6, #1
 800368a:	d0f7      	beq.n	800367c <SPI_WaitFlagStateUntilTimeout.constprop.0+0x24>
 800368c:	f7fe fb90 	bl	8001db0 <HAL_GetTick>
 8003690:	1bc0      	subs	r0, r0, r7
 8003692:	42a0      	cmp	r0, r4
 8003694:	d328      	bcc.n	80036e8 <SPI_WaitFlagStateUntilTimeout.constprop.0+0x90>
 8003696:	682b      	ldr	r3, [r5, #0]
 8003698:	685a      	ldr	r2, [r3, #4]
 800369a:	f022 02e0 	bic.w	r2, r2, #224	; 0xe0
 800369e:	605a      	str	r2, [r3, #4]
 80036a0:	686a      	ldr	r2, [r5, #4]
 80036a2:	f5b2 7f82 	cmp.w	r2, #260	; 0x104
 80036a6:	d10a      	bne.n	80036be <SPI_WaitFlagStateUntilTimeout.constprop.0+0x66>
 80036a8:	68aa      	ldr	r2, [r5, #8]
 80036aa:	f5b2 4f00 	cmp.w	r2, #32768	; 0x8000
 80036ae:	d002      	beq.n	80036b6 <SPI_WaitFlagStateUntilTimeout.constprop.0+0x5e>
 80036b0:	f5b2 6f80 	cmp.w	r2, #1024	; 0x400
 80036b4:	d103      	bne.n	80036be <SPI_WaitFlagStateUntilTimeout.constprop.0+0x66>
 80036b6:	681a      	ldr	r2, [r3, #0]
 80036b8:	f022 0240 	bic.w	r2, r2, #64	; 0x40
 80036bc:	601a      	str	r2, [r3, #0]
 80036be:	6aaa      	ldr	r2, [r5, #40]	; 0x28
 80036c0:	f5b2 5f00 	cmp.w	r2, #8192	; 0x2000
 80036c4:	d107      	bne.n	80036d6 <SPI_WaitFlagStateUntilTimeout.constprop.0+0x7e>
 80036c6:	681a      	ldr	r2, [r3, #0]
 80036c8:	f422 5200 	bic.w	r2, r2, #8192	; 0x2000
 80036cc:	601a      	str	r2, [r3, #0]
 80036ce:	681a      	ldr	r2, [r3, #0]
 80036d0:	f442 5200 	orr.w	r2, r2, #8192	; 0x2000
 80036d4:	601a      	str	r2, [r3, #0]
 80036d6:	2301      	movs	r3, #1
 80036d8:	2003      	movs	r0, #3
 80036da:	f885 305d 	strb.w	r3, [r5, #93]	; 0x5d
 80036de:	2300      	movs	r3, #0
 80036e0:	f885 305c 	strb.w	r3, [r5, #92]	; 0x5c
 80036e4:	b003      	add	sp, #12
 80036e6:	bdf0      	pop	{r4, r5, r6, r7, pc}
 80036e8:	9b01      	ldr	r3, [sp, #4]
 80036ea:	b113      	cbz	r3, 80036f2 <SPI_WaitFlagStateUntilTimeout.constprop.0+0x9a>
 80036ec:	9b01      	ldr	r3, [sp, #4]
 80036ee:	3b01      	subs	r3, #1
 80036f0:	e7c2      	b.n	8003678 <SPI_WaitFlagStateUntilTimeout.constprop.0+0x20>
 80036f2:	461c      	mov	r4, r3
 80036f4:	e7c1      	b.n	800367a <SPI_WaitFlagStateUntilTimeout.constprop.0+0x22>
 80036f6:	bf00      	nop
 80036f8:	200000e0 	.word	0x200000e0

080036fc <SPI_WaitFifoStateUntilTimeout.constprop.0>:
 80036fc:	e92d 43f7 	stmdb	sp!, {r0, r1, r2, r4, r5, r6, r7, r8, r9, lr}
 8003700:	4617      	mov	r7, r2
 8003702:	461d      	mov	r5, r3
 8003704:	2300      	movs	r3, #0
 8003706:	4604      	mov	r4, r0
 8003708:	443d      	add	r5, r7
 800370a:	460e      	mov	r6, r1
 800370c:	f88d 3003 	strb.w	r3, [sp, #3]
 8003710:	f7fe fb4e 	bl	8001db0 <HAL_GetTick>
 8003714:	1a2d      	subs	r5, r5, r0
 8003716:	f7fe fb4b 	bl	8001db0 <HAL_GetTick>
 800371a:	4b29      	ldr	r3, [pc, #164]	; (80037c0 <SPI_WaitFifoStateUntilTimeout.constprop.0+0xc4>)
 800371c:	2223      	movs	r2, #35	; 0x23
 800371e:	4680      	mov	r8, r0
 8003720:	f8d4 9000 	ldr.w	r9, [r4]
 8003724:	681b      	ldr	r3, [r3, #0]
 8003726:	4353      	muls	r3, r2
 8003728:	0d1b      	lsrs	r3, r3, #20
 800372a:	436b      	muls	r3, r5
 800372c:	9301      	str	r3, [sp, #4]
 800372e:	6822      	ldr	r2, [r4, #0]
 8003730:	6893      	ldr	r3, [r2, #8]
 8003732:	4033      	ands	r3, r6
 8003734:	d101      	bne.n	800373a <SPI_WaitFifoStateUntilTimeout.constprop.0+0x3e>
 8003736:	4618      	mov	r0, r3
 8003738:	e038      	b.n	80037ac <SPI_WaitFifoStateUntilTimeout.constprop.0+0xb0>
 800373a:	f5b6 6fc0 	cmp.w	r6, #1536	; 0x600
 800373e:	d106      	bne.n	800374e <SPI_WaitFifoStateUntilTimeout.constprop.0+0x52>
 8003740:	f899 300c 	ldrb.w	r3, [r9, #12]
 8003744:	b2db      	uxtb	r3, r3
 8003746:	f88d 3003 	strb.w	r3, [sp, #3]
 800374a:	f89d 3003 	ldrb.w	r3, [sp, #3]
 800374e:	1c7b      	adds	r3, r7, #1
 8003750:	d0ee      	beq.n	8003730 <SPI_WaitFifoStateUntilTimeout.constprop.0+0x34>
 8003752:	f7fe fb2d 	bl	8001db0 <HAL_GetTick>
 8003756:	eba0 0008 	sub.w	r0, r0, r8
 800375a:	42a8      	cmp	r0, r5
 800375c:	d329      	bcc.n	80037b2 <SPI_WaitFifoStateUntilTimeout.constprop.0+0xb6>
 800375e:	6823      	ldr	r3, [r4, #0]
 8003760:	685a      	ldr	r2, [r3, #4]
 8003762:	f022 02e0 	bic.w	r2, r2, #224	; 0xe0
 8003766:	605a      	str	r2, [r3, #4]
 8003768:	6862      	ldr	r2, [r4, #4]
 800376a:	f5b2 7f82 	cmp.w	r2, #260	; 0x104
 800376e:	d10a      	bne.n	8003786 <SPI_WaitFifoStateUntilTimeout.constprop.0+0x8a>
 8003770:	68a2      	ldr	r2, [r4, #8]
 8003772:	f5b2 4f00 	cmp.w	r2, #32768	; 0x8000
 8003776:	d002      	beq.n	800377e <SPI_WaitFifoStateUntilTimeout.constprop.0+0x82>
 8003778:	f5b2 6f80 	cmp.w	r2, #1024	; 0x400
 800377c:	d103      	bne.n	8003786 <SPI_WaitFifoStateUntilTimeout.constprop.0+0x8a>
 800377e:	681a      	ldr	r2, [r3, #0]
 8003780:	f022 0240 	bic.w	r2, r2, #64	; 0x40
 8003784:	601a      	str	r2, [r3, #0]
 8003786:	6aa2      	ldr	r2, [r4, #40]	; 0x28
 8003788:	f5b2 5f00 	cmp.w	r2, #8192	; 0x2000
 800378c:	d107      	bne.n	800379e <SPI_WaitFifoStateUntilTimeout.constprop.0+0xa2>
 800378e:	681a      	ldr	r2, [r3, #0]
 8003790:	f422 5200 	bic.w	r2, r2, #8192	; 0x2000
 8003794:	601a      	str	r2, [r3, #0]
 8003796:	681a      	ldr	r2, [r3, #0]
 8003798:	f442 5200 	orr.w	r2, r2, #8192	; 0x2000
 800379c:	601a      	str	r2, [r3, #0]
 800379e:	2301      	movs	r3, #1
 80037a0:	2003      	movs	r0, #3
 80037a2:	f884 305d 	strb.w	r3, [r4, #93]	; 0x5d
 80037a6:	2300      	movs	r3, #0
 80037a8:	f884 305c 	strb.w	r3, [r4, #92]	; 0x5c
 80037ac:	b003      	add	sp, #12
 80037ae:	e8bd 83f0 	ldmia.w	sp!, {r4, r5, r6, r7, r8, r9, pc}
 80037b2:	9b01      	ldr	r3, [sp, #4]
 80037b4:	b113      	cbz	r3, 80037bc <SPI_WaitFifoStateUntilTimeout.constprop.0+0xc0>
 80037b6:	9b01      	ldr	r3, [sp, #4]
 80037b8:	3b01      	subs	r3, #1
 80037ba:	e7b7      	b.n	800372c <SPI_WaitFifoStateUntilTimeout.constprop.0+0x30>
 80037bc:	461d      	mov	r5, r3
 80037be:	e7b6      	b.n	800372e <SPI_WaitFifoStateUntilTimeout.constprop.0+0x32>
 80037c0:	200000e0 	.word	0x200000e0

080037c4 <SPI_EndRxTxTransaction>:
 80037c4:	b530      	push	{r4, r5, lr}
 80037c6:	b085      	sub	sp, #20
 80037c8:	4613      	mov	r3, r2
 80037ca:	460d      	mov	r5, r1
 80037cc:	4604      	mov	r4, r0
 80037ce:	9201      	str	r2, [sp, #4]
 80037d0:	460a      	mov	r2, r1
 80037d2:	f44f 51c0 	mov.w	r1, #6144	; 0x1800
 80037d6:	f7ff ff91 	bl	80036fc <SPI_WaitFifoStateUntilTimeout.constprop.0>
 80037da:	9b01      	ldr	r3, [sp, #4]
 80037dc:	b128      	cbz	r0, 80037ea <SPI_EndRxTxTransaction+0x26>
 80037de:	6e23      	ldr	r3, [r4, #96]	; 0x60
 80037e0:	2003      	movs	r0, #3
 80037e2:	f043 0320 	orr.w	r3, r3, #32
 80037e6:	6623      	str	r3, [r4, #96]	; 0x60
 80037e8:	e01d      	b.n	8003826 <SPI_EndRxTxTransaction+0x62>
 80037ea:	4a15      	ldr	r2, [pc, #84]	; (8003840 <SPI_EndRxTxTransaction+0x7c>)
 80037ec:	4915      	ldr	r1, [pc, #84]	; (8003844 <SPI_EndRxTxTransaction+0x80>)
 80037ee:	6812      	ldr	r2, [r2, #0]
 80037f0:	fbb2 f2f1 	udiv	r2, r2, r1
 80037f4:	f44f 717a 	mov.w	r1, #1000	; 0x3e8
 80037f8:	434a      	muls	r2, r1
 80037fa:	9203      	str	r2, [sp, #12]
 80037fc:	6862      	ldr	r2, [r4, #4]
 80037fe:	f5b2 7f82 	cmp.w	r2, #260	; 0x104
 8003802:	d112      	bne.n	800382a <SPI_EndRxTxTransaction+0x66>
 8003804:	461a      	mov	r2, r3
 8003806:	4629      	mov	r1, r5
 8003808:	4620      	mov	r0, r4
 800380a:	9301      	str	r3, [sp, #4]
 800380c:	f7ff ff24 	bl	8003658 <SPI_WaitFlagStateUntilTimeout.constprop.0>
 8003810:	9b01      	ldr	r3, [sp, #4]
 8003812:	2800      	cmp	r0, #0
 8003814:	d1e3      	bne.n	80037de <SPI_EndRxTxTransaction+0x1a>
 8003816:	462a      	mov	r2, r5
 8003818:	f44f 61c0 	mov.w	r1, #1536	; 0x600
 800381c:	4620      	mov	r0, r4
 800381e:	f7ff ff6d 	bl	80036fc <SPI_WaitFifoStateUntilTimeout.constprop.0>
 8003822:	2800      	cmp	r0, #0
 8003824:	d1db      	bne.n	80037de <SPI_EndRxTxTransaction+0x1a>
 8003826:	b005      	add	sp, #20
 8003828:	bd30      	pop	{r4, r5, pc}
 800382a:	9a03      	ldr	r2, [sp, #12]
 800382c:	2a00      	cmp	r2, #0
 800382e:	d0f2      	beq.n	8003816 <SPI_EndRxTxTransaction+0x52>
 8003830:	9a03      	ldr	r2, [sp, #12]
 8003832:	3a01      	subs	r2, #1
 8003834:	9203      	str	r2, [sp, #12]
 8003836:	6822      	ldr	r2, [r4, #0]
 8003838:	6892      	ldr	r2, [r2, #8]
 800383a:	0612      	lsls	r2, r2, #24
 800383c:	d4f5      	bmi.n	800382a <SPI_EndRxTxTransaction+0x66>
 800383e:	e7ea      	b.n	8003816 <SPI_EndRxTxTransaction+0x52>
 8003840:	200000e0 	.word	0x200000e0
 8003844:	016e3600 	.word	0x016e3600

08003848 <HAL_SPI_Init>:
 8003848:	b570      	push	{r4, r5, r6, lr}
 800384a:	4604      	mov	r4, r0
 800384c:	2800      	cmp	r0, #0
 800384e:	d063      	beq.n	8003918 <HAL_SPI_Init+0xd0>
 8003850:	6a43      	ldr	r3, [r0, #36]	; 0x24
 8003852:	2b00      	cmp	r3, #0
 8003854:	d15c      	bne.n	8003910 <HAL_SPI_Init+0xc8>
 8003856:	6842      	ldr	r2, [r0, #4]
 8003858:	f5b2 7f82 	cmp.w	r2, #260	; 0x104
 800385c:	d000      	beq.n	8003860 <HAL_SPI_Init+0x18>
 800385e:	61c3      	str	r3, [r0, #28]
 8003860:	2300      	movs	r3, #0
 8003862:	62a3      	str	r3, [r4, #40]	; 0x28
 8003864:	f894 305d 	ldrb.w	r3, [r4, #93]	; 0x5d
 8003868:	f003 02ff 	and.w	r2, r3, #255	; 0xff
 800386c:	b923      	cbnz	r3, 8003878 <HAL_SPI_Init+0x30>
 800386e:	4620      	mov	r0, r4
 8003870:	f884 205c 	strb.w	r2, [r4, #92]	; 0x5c
 8003874:	f7fd fea0 	bl	80015b8 <HAL_SPI_MspInit>
 8003878:	2302      	movs	r3, #2
 800387a:	6822      	ldr	r2, [r4, #0]
 800387c:	68e0      	ldr	r0, [r4, #12]
 800387e:	f884 305d 	strb.w	r3, [r4, #93]	; 0x5d
 8003882:	6813      	ldr	r3, [r2, #0]
 8003884:	f5b0 6fe0 	cmp.w	r0, #1792	; 0x700
 8003888:	f023 0340 	bic.w	r3, r3, #64	; 0x40
 800388c:	6013      	str	r3, [r2, #0]
 800388e:	f04f 0300 	mov.w	r3, #0
 8003892:	d843      	bhi.n	800391c <HAL_SPI_Init+0xd4>
 8003894:	f44f 5580 	mov.w	r5, #4096	; 0x1000
 8003898:	d000      	beq.n	800389c <HAL_SPI_Init+0x54>
 800389a:	62a3      	str	r3, [r4, #40]	; 0x28
 800389c:	6863      	ldr	r3, [r4, #4]
 800389e:	f400 6070 	and.w	r0, r0, #3840	; 0xf00
 80038a2:	68a6      	ldr	r6, [r4, #8]
 80038a4:	f403 7382 	and.w	r3, r3, #260	; 0x104
 80038a8:	69a1      	ldr	r1, [r4, #24]
 80038aa:	f406 4604 	and.w	r6, r6, #33792	; 0x8400
 80038ae:	4333      	orrs	r3, r6
 80038b0:	6926      	ldr	r6, [r4, #16]
 80038b2:	f006 0602 	and.w	r6, r6, #2
 80038b6:	4333      	orrs	r3, r6
 80038b8:	6966      	ldr	r6, [r4, #20]
 80038ba:	f006 0601 	and.w	r6, r6, #1
 80038be:	4333      	orrs	r3, r6
 80038c0:	f401 7600 	and.w	r6, r1, #512	; 0x200
 80038c4:	0c09      	lsrs	r1, r1, #16
 80038c6:	4333      	orrs	r3, r6
 80038c8:	69e6      	ldr	r6, [r4, #28]
 80038ca:	f001 0104 	and.w	r1, r1, #4
 80038ce:	f006 0638 	and.w	r6, r6, #56	; 0x38
 80038d2:	4333      	orrs	r3, r6
 80038d4:	6a26      	ldr	r6, [r4, #32]
 80038d6:	f006 0680 	and.w	r6, r6, #128	; 0x80
 80038da:	4333      	orrs	r3, r6
 80038dc:	6aa6      	ldr	r6, [r4, #40]	; 0x28
 80038de:	f406 5600 	and.w	r6, r6, #8192	; 0x2000
 80038e2:	4333      	orrs	r3, r6
 80038e4:	6b66      	ldr	r6, [r4, #52]	; 0x34
 80038e6:	6013      	str	r3, [r2, #0]
 80038e8:	f006 0608 	and.w	r6, r6, #8
 80038ec:	6a63      	ldr	r3, [r4, #36]	; 0x24
 80038ee:	f003 0310 	and.w	r3, r3, #16
 80038f2:	4333      	orrs	r3, r6
 80038f4:	4303      	orrs	r3, r0
 80038f6:	2000      	movs	r0, #0
 80038f8:	430b      	orrs	r3, r1
 80038fa:	432b      	orrs	r3, r5
 80038fc:	6053      	str	r3, [r2, #4]
 80038fe:	69d3      	ldr	r3, [r2, #28]
 8003900:	f423 6300 	bic.w	r3, r3, #2048	; 0x800
 8003904:	61d3      	str	r3, [r2, #28]
 8003906:	2301      	movs	r3, #1
 8003908:	6620      	str	r0, [r4, #96]	; 0x60
 800390a:	f884 305d 	strb.w	r3, [r4, #93]	; 0x5d
 800390e:	bd70      	pop	{r4, r5, r6, pc}
 8003910:	2300      	movs	r3, #0
 8003912:	e9c0 3304 	strd	r3, r3, [r0, #16]
 8003916:	e7a3      	b.n	8003860 <HAL_SPI_Init+0x18>
 8003918:	2001      	movs	r0, #1
 800391a:	e7f8      	b.n	800390e <HAL_SPI_Init+0xc6>
 800391c:	461d      	mov	r5, r3
 800391e:	f5b0 6f70 	cmp.w	r0, #3840	; 0xf00
 8003922:	e7b9      	b.n	8003898 <HAL_SPI_Init+0x50>

08003924 <HAL_SPI_DeInit>:
 8003924:	b510      	push	{r4, lr}
 8003926:	4604      	mov	r4, r0
 8003928:	b180      	cbz	r0, 800394c <HAL_SPI_DeInit+0x28>
 800392a:	6802      	ldr	r2, [r0, #0]
 800392c:	2302      	movs	r3, #2
 800392e:	f880 305d 	strb.w	r3, [r0, #93]	; 0x5d
 8003932:	6813      	ldr	r3, [r2, #0]
 8003934:	f023 0340 	bic.w	r3, r3, #64	; 0x40
 8003938:	6013      	str	r3, [r2, #0]
 800393a:	f7fd fe8f 	bl	800165c <HAL_SPI_MspDeInit>
 800393e:	2000      	movs	r0, #0
 8003940:	6620      	str	r0, [r4, #96]	; 0x60
 8003942:	f884 005c 	strb.w	r0, [r4, #92]	; 0x5c
 8003946:	f884 005d 	strb.w	r0, [r4, #93]	; 0x5d
 800394a:	bd10      	pop	{r4, pc}
 800394c:	2001      	movs	r0, #1
 800394e:	e7fc      	b.n	800394a <HAL_SPI_DeInit+0x26>

08003950 <HAL_SPI_TransmitReceive>:
 8003950:	e92d 43f8 	stmdb	sp!, {r3, r4, r5, r6, r7, r8, r9, lr}
 8003954:	4604      	mov	r4, r0
 8003956:	460d      	mov	r5, r1
 8003958:	4691      	mov	r9, r2
 800395a:	461e      	mov	r6, r3
 800395c:	9f08      	ldr	r7, [sp, #32]
 800395e:	f7fe fa27 	bl	8001db0 <HAL_GetTick>
 8003962:	f894 205d 	ldrb.w	r2, [r4, #93]	; 0x5d
 8003966:	4680      	mov	r8, r0
 8003968:	6863      	ldr	r3, [r4, #4]
 800396a:	2a01      	cmp	r2, #1
 800396c:	b2d1      	uxtb	r1, r2
 800396e:	d00a      	beq.n	8003986 <HAL_SPI_TransmitReceive+0x36>
 8003970:	f5b3 7f82 	cmp.w	r3, #260	; 0x104
 8003974:	f040 811d 	bne.w	8003bb2 <HAL_SPI_TransmitReceive+0x262>
 8003978:	68a2      	ldr	r2, [r4, #8]
 800397a:	2a00      	cmp	r2, #0
 800397c:	f040 8119 	bne.w	8003bb2 <HAL_SPI_TransmitReceive+0x262>
 8003980:	2904      	cmp	r1, #4
 8003982:	f040 8116 	bne.w	8003bb2 <HAL_SPI_TransmitReceive+0x262>
 8003986:	2d00      	cmp	r5, #0
 8003988:	d055      	beq.n	8003a36 <HAL_SPI_TransmitReceive+0xe6>
 800398a:	f1b9 0f00 	cmp.w	r9, #0
 800398e:	d052      	beq.n	8003a36 <HAL_SPI_TransmitReceive+0xe6>
 8003990:	2e00      	cmp	r6, #0
 8003992:	d050      	beq.n	8003a36 <HAL_SPI_TransmitReceive+0xe6>
 8003994:	f894 205c 	ldrb.w	r2, [r4, #92]	; 0x5c
 8003998:	2a01      	cmp	r2, #1
 800399a:	f000 810a 	beq.w	8003bb2 <HAL_SPI_TransmitReceive+0x262>
 800399e:	2201      	movs	r2, #1
 80039a0:	f884 205c 	strb.w	r2, [r4, #92]	; 0x5c
 80039a4:	f894 205d 	ldrb.w	r2, [r4, #93]	; 0x5d
 80039a8:	2a04      	cmp	r2, #4
 80039aa:	d002      	beq.n	80039b2 <HAL_SPI_TransmitReceive+0x62>
 80039ac:	2205      	movs	r2, #5
 80039ae:	f884 205d 	strb.w	r2, [r4, #93]	; 0x5d
 80039b2:	68e0      	ldr	r0, [r4, #12]
 80039b4:	2200      	movs	r2, #0
 80039b6:	6821      	ldr	r1, [r4, #0]
 80039b8:	f5b0 6fe0 	cmp.w	r0, #1792	; 0x700
 80039bc:	6622      	str	r2, [r4, #96]	; 0x60
 80039be:	f8c4 9040 	str.w	r9, [r4, #64]	; 0x40
 80039c2:	f8a4 6046 	strh.w	r6, [r4, #70]	; 0x46
 80039c6:	f8a4 6044 	strh.w	r6, [r4, #68]	; 0x44
 80039ca:	87e6      	strh	r6, [r4, #62]	; 0x3e
 80039cc:	63a5      	str	r5, [r4, #56]	; 0x38
 80039ce:	87a6      	strh	r6, [r4, #60]	; 0x3c
 80039d0:	e9c4 2213 	strd	r2, r2, [r4, #76]	; 0x4c
 80039d4:	684a      	ldr	r2, [r1, #4]
 80039d6:	d801      	bhi.n	80039dc <HAL_SPI_TransmitReceive+0x8c>
 80039d8:	2e01      	cmp	r6, #1
 80039da:	d02e      	beq.n	8003a3a <HAL_SPI_TransmitReceive+0xea>
 80039dc:	f422 5280 	bic.w	r2, r2, #4096	; 0x1000
 80039e0:	604a      	str	r2, [r1, #4]
 80039e2:	680a      	ldr	r2, [r1, #0]
 80039e4:	0652      	lsls	r2, r2, #25
 80039e6:	d403      	bmi.n	80039f0 <HAL_SPI_TransmitReceive+0xa0>
 80039e8:	680a      	ldr	r2, [r1, #0]
 80039ea:	f042 0240 	orr.w	r2, r2, #64	; 0x40
 80039ee:	600a      	str	r2, [r1, #0]
 80039f0:	f5b0 6fe0 	cmp.w	r0, #1792	; 0x700
 80039f4:	d95b      	bls.n	8003aae <HAL_SPI_TransmitReceive+0x15e>
 80039f6:	b10b      	cbz	r3, 80039fc <HAL_SPI_TransmitReceive+0xac>
 80039f8:	2e01      	cmp	r6, #1
 80039fa:	d107      	bne.n	8003a0c <HAL_SPI_TransmitReceive+0xbc>
 80039fc:	f835 3b02 	ldrh.w	r3, [r5], #2
 8003a00:	60cb      	str	r3, [r1, #12]
 8003a02:	8fe3      	ldrh	r3, [r4, #62]	; 0x3e
 8003a04:	63a5      	str	r5, [r4, #56]	; 0x38
 8003a06:	3b01      	subs	r3, #1
 8003a08:	b29b      	uxth	r3, r3
 8003a0a:	87e3      	strh	r3, [r4, #62]	; 0x3e
 8003a0c:	2501      	movs	r5, #1
 8003a0e:	8fe3      	ldrh	r3, [r4, #62]	; 0x3e
 8003a10:	b29b      	uxth	r3, r3
 8003a12:	b9ab      	cbnz	r3, 8003a40 <HAL_SPI_TransmitReceive+0xf0>
 8003a14:	f8b4 3046 	ldrh.w	r3, [r4, #70]	; 0x46
 8003a18:	b29b      	uxth	r3, r3
 8003a1a:	b98b      	cbnz	r3, 8003a40 <HAL_SPI_TransmitReceive+0xf0>
 8003a1c:	4642      	mov	r2, r8
 8003a1e:	4639      	mov	r1, r7
 8003a20:	4620      	mov	r0, r4
 8003a22:	f7ff fecf 	bl	80037c4 <SPI_EndRxTxTransaction>
 8003a26:	2800      	cmp	r0, #0
 8003a28:	f000 80b9 	beq.w	8003b9e <HAL_SPI_TransmitReceive+0x24e>
 8003a2c:	2320      	movs	r3, #32
 8003a2e:	6623      	str	r3, [r4, #96]	; 0x60
 8003a30:	2300      	movs	r3, #0
 8003a32:	f884 305c 	strb.w	r3, [r4, #92]	; 0x5c
 8003a36:	2001      	movs	r0, #1
 8003a38:	e037      	b.n	8003aaa <HAL_SPI_TransmitReceive+0x15a>
 8003a3a:	f442 5280 	orr.w	r2, r2, #4096	; 0x1000
 8003a3e:	e7cf      	b.n	80039e0 <HAL_SPI_TransmitReceive+0x90>
 8003a40:	6821      	ldr	r1, [r4, #0]
 8003a42:	688b      	ldr	r3, [r1, #8]
 8003a44:	079e      	lsls	r6, r3, #30
 8003a46:	d50d      	bpl.n	8003a64 <HAL_SPI_TransmitReceive+0x114>
 8003a48:	8fe3      	ldrh	r3, [r4, #62]	; 0x3e
 8003a4a:	b29b      	uxth	r3, r3
 8003a4c:	b153      	cbz	r3, 8003a64 <HAL_SPI_TransmitReceive+0x114>
 8003a4e:	b14d      	cbz	r5, 8003a64 <HAL_SPI_TransmitReceive+0x114>
 8003a50:	6ba3      	ldr	r3, [r4, #56]	; 0x38
 8003a52:	2500      	movs	r5, #0
 8003a54:	f833 2b02 	ldrh.w	r2, [r3], #2
 8003a58:	60ca      	str	r2, [r1, #12]
 8003a5a:	63a3      	str	r3, [r4, #56]	; 0x38
 8003a5c:	8fe3      	ldrh	r3, [r4, #62]	; 0x3e
 8003a5e:	3b01      	subs	r3, #1
 8003a60:	b29b      	uxth	r3, r3
 8003a62:	87e3      	strh	r3, [r4, #62]	; 0x3e
 8003a64:	688a      	ldr	r2, [r1, #8]
 8003a66:	f012 0201 	ands.w	r2, r2, #1
 8003a6a:	d00f      	beq.n	8003a8c <HAL_SPI_TransmitReceive+0x13c>
 8003a6c:	f8b4 3046 	ldrh.w	r3, [r4, #70]	; 0x46
 8003a70:	b29b      	uxth	r3, r3
 8003a72:	b15b      	cbz	r3, 8003a8c <HAL_SPI_TransmitReceive+0x13c>
 8003a74:	68c9      	ldr	r1, [r1, #12]
 8003a76:	4615      	mov	r5, r2
 8003a78:	6c23      	ldr	r3, [r4, #64]	; 0x40
 8003a7a:	f823 1b02 	strh.w	r1, [r3], #2
 8003a7e:	6423      	str	r3, [r4, #64]	; 0x40
 8003a80:	f8b4 3046 	ldrh.w	r3, [r4, #70]	; 0x46
 8003a84:	3b01      	subs	r3, #1
 8003a86:	b29b      	uxth	r3, r3
 8003a88:	f8a4 3046 	strh.w	r3, [r4, #70]	; 0x46
 8003a8c:	f7fe f990 	bl	8001db0 <HAL_GetTick>
 8003a90:	eba0 0008 	sub.w	r0, r0, r8
 8003a94:	42b8      	cmp	r0, r7
 8003a96:	d3ba      	bcc.n	8003a0e <HAL_SPI_TransmitReceive+0xbe>
 8003a98:	1c78      	adds	r0, r7, #1
 8003a9a:	d0b8      	beq.n	8003a0e <HAL_SPI_TransmitReceive+0xbe>
 8003a9c:	2301      	movs	r3, #1
 8003a9e:	2003      	movs	r0, #3
 8003aa0:	f884 305d 	strb.w	r3, [r4, #93]	; 0x5d
 8003aa4:	2300      	movs	r3, #0
 8003aa6:	f884 305c 	strb.w	r3, [r4, #92]	; 0x5c
 8003aaa:	e8bd 83f8 	ldmia.w	sp!, {r3, r4, r5, r6, r7, r8, r9, pc}
 8003aae:	b10b      	cbz	r3, 8003ab4 <HAL_SPI_TransmitReceive+0x164>
 8003ab0:	2e01      	cmp	r6, #1
 8003ab2:	d10b      	bne.n	8003acc <HAL_SPI_TransmitReceive+0x17c>
 8003ab4:	8fe3      	ldrh	r3, [r4, #62]	; 0x3e
 8003ab6:	b29b      	uxth	r3, r3
 8003ab8:	2b01      	cmp	r3, #1
 8003aba:	d909      	bls.n	8003ad0 <HAL_SPI_TransmitReceive+0x180>
 8003abc:	f835 3b02 	ldrh.w	r3, [r5], #2
 8003ac0:	60cb      	str	r3, [r1, #12]
 8003ac2:	8fe3      	ldrh	r3, [r4, #62]	; 0x3e
 8003ac4:	63a5      	str	r5, [r4, #56]	; 0x38
 8003ac6:	3b02      	subs	r3, #2
 8003ac8:	b29b      	uxth	r3, r3
 8003aca:	87e3      	strh	r3, [r4, #62]	; 0x3e
 8003acc:	2501      	movs	r5, #1
 8003ace:	e048      	b.n	8003b62 <HAL_SPI_TransmitReceive+0x212>
 8003ad0:	782b      	ldrb	r3, [r5, #0]
 8003ad2:	730b      	strb	r3, [r1, #12]
 8003ad4:	6ba3      	ldr	r3, [r4, #56]	; 0x38
 8003ad6:	3301      	adds	r3, #1
 8003ad8:	63a3      	str	r3, [r4, #56]	; 0x38
 8003ada:	8fe3      	ldrh	r3, [r4, #62]	; 0x3e
 8003adc:	3b01      	subs	r3, #1
 8003ade:	e7f3      	b.n	8003ac8 <HAL_SPI_TransmitReceive+0x178>
 8003ae0:	6822      	ldr	r2, [r4, #0]
 8003ae2:	6893      	ldr	r3, [r2, #8]
 8003ae4:	0799      	lsls	r1, r3, #30
 8003ae6:	d511      	bpl.n	8003b0c <HAL_SPI_TransmitReceive+0x1bc>
 8003ae8:	8fe3      	ldrh	r3, [r4, #62]	; 0x3e
 8003aea:	b29b      	uxth	r3, r3
 8003aec:	b173      	cbz	r3, 8003b0c <HAL_SPI_TransmitReceive+0x1bc>
 8003aee:	b16d      	cbz	r5, 8003b0c <HAL_SPI_TransmitReceive+0x1bc>
 8003af0:	8fe1      	ldrh	r1, [r4, #62]	; 0x3e
 8003af2:	6ba3      	ldr	r3, [r4, #56]	; 0x38
 8003af4:	b289      	uxth	r1, r1
 8003af6:	2901      	cmp	r1, #1
 8003af8:	d93d      	bls.n	8003b76 <HAL_SPI_TransmitReceive+0x226>
 8003afa:	f833 1b02 	ldrh.w	r1, [r3], #2
 8003afe:	60d1      	str	r1, [r2, #12]
 8003b00:	63a3      	str	r3, [r4, #56]	; 0x38
 8003b02:	8fe3      	ldrh	r3, [r4, #62]	; 0x3e
 8003b04:	3b02      	subs	r3, #2
 8003b06:	b29b      	uxth	r3, r3
 8003b08:	2500      	movs	r5, #0
 8003b0a:	87e3      	strh	r3, [r4, #62]	; 0x3e
 8003b0c:	6822      	ldr	r2, [r4, #0]
 8003b0e:	6893      	ldr	r3, [r2, #8]
 8003b10:	f013 0301 	ands.w	r3, r3, #1
 8003b14:	d01d      	beq.n	8003b52 <HAL_SPI_TransmitReceive+0x202>
 8003b16:	f8b4 1046 	ldrh.w	r1, [r4, #70]	; 0x46
 8003b1a:	b289      	uxth	r1, r1
 8003b1c:	b1c9      	cbz	r1, 8003b52 <HAL_SPI_TransmitReceive+0x202>
 8003b1e:	f8b4 0046 	ldrh.w	r0, [r4, #70]	; 0x46
 8003b22:	6c21      	ldr	r1, [r4, #64]	; 0x40
 8003b24:	b280      	uxth	r0, r0
 8003b26:	2801      	cmp	r0, #1
 8003b28:	d92d      	bls.n	8003b86 <HAL_SPI_TransmitReceive+0x236>
 8003b2a:	68d0      	ldr	r0, [r2, #12]
 8003b2c:	f821 0b02 	strh.w	r0, [r1], #2
 8003b30:	6421      	str	r1, [r4, #64]	; 0x40
 8003b32:	f8b4 1046 	ldrh.w	r1, [r4, #70]	; 0x46
 8003b36:	3902      	subs	r1, #2
 8003b38:	b289      	uxth	r1, r1
 8003b3a:	f8a4 1046 	strh.w	r1, [r4, #70]	; 0x46
 8003b3e:	f8b4 1046 	ldrh.w	r1, [r4, #70]	; 0x46
 8003b42:	b289      	uxth	r1, r1
 8003b44:	2901      	cmp	r1, #1
 8003b46:	d803      	bhi.n	8003b50 <HAL_SPI_TransmitReceive+0x200>
 8003b48:	6851      	ldr	r1, [r2, #4]
 8003b4a:	f441 5180 	orr.w	r1, r1, #4096	; 0x1000
 8003b4e:	6051      	str	r1, [r2, #4]
 8003b50:	461d      	mov	r5, r3
 8003b52:	f7fe f92d 	bl	8001db0 <HAL_GetTick>
 8003b56:	eba0 0008 	sub.w	r0, r0, r8
 8003b5a:	42b8      	cmp	r0, r7
 8003b5c:	d301      	bcc.n	8003b62 <HAL_SPI_TransmitReceive+0x212>
 8003b5e:	1c7b      	adds	r3, r7, #1
 8003b60:	d19c      	bne.n	8003a9c <HAL_SPI_TransmitReceive+0x14c>
 8003b62:	8fe3      	ldrh	r3, [r4, #62]	; 0x3e
 8003b64:	b29b      	uxth	r3, r3
 8003b66:	2b00      	cmp	r3, #0
 8003b68:	d1ba      	bne.n	8003ae0 <HAL_SPI_TransmitReceive+0x190>
 8003b6a:	f8b4 3046 	ldrh.w	r3, [r4, #70]	; 0x46
 8003b6e:	b29b      	uxth	r3, r3
 8003b70:	2b00      	cmp	r3, #0
 8003b72:	d1b5      	bne.n	8003ae0 <HAL_SPI_TransmitReceive+0x190>
 8003b74:	e752      	b.n	8003a1c <HAL_SPI_TransmitReceive+0xcc>
 8003b76:	781b      	ldrb	r3, [r3, #0]
 8003b78:	7313      	strb	r3, [r2, #12]
 8003b7a:	6ba3      	ldr	r3, [r4, #56]	; 0x38
 8003b7c:	3301      	adds	r3, #1
 8003b7e:	63a3      	str	r3, [r4, #56]	; 0x38
 8003b80:	8fe3      	ldrh	r3, [r4, #62]	; 0x3e
 8003b82:	3b01      	subs	r3, #1
 8003b84:	e7bf      	b.n	8003b06 <HAL_SPI_TransmitReceive+0x1b6>
 8003b86:	7b12      	ldrb	r2, [r2, #12]
 8003b88:	700a      	strb	r2, [r1, #0]
 8003b8a:	6c22      	ldr	r2, [r4, #64]	; 0x40
 8003b8c:	3201      	adds	r2, #1
 8003b8e:	6422      	str	r2, [r4, #64]	; 0x40
 8003b90:	f8b4 2046 	ldrh.w	r2, [r4, #70]	; 0x46
 8003b94:	3a01      	subs	r2, #1
 8003b96:	b292      	uxth	r2, r2
 8003b98:	f8a4 2046 	strh.w	r2, [r4, #70]	; 0x46
 8003b9c:	e7d8      	b.n	8003b50 <HAL_SPI_TransmitReceive+0x200>
 8003b9e:	2301      	movs	r3, #1
 8003ba0:	f884 005c 	strb.w	r0, [r4, #92]	; 0x5c
 8003ba4:	f884 305d 	strb.w	r3, [r4, #93]	; 0x5d
 8003ba8:	6e20      	ldr	r0, [r4, #96]	; 0x60
 8003baa:	3800      	subs	r0, #0
 8003bac:	bf18      	it	ne
 8003bae:	2001      	movne	r0, #1
 8003bb0:	e77b      	b.n	8003aaa <HAL_SPI_TransmitReceive+0x15a>
 8003bb2:	2002      	movs	r0, #2
 8003bb4:	e779      	b.n	8003aaa <HAL_SPI_TransmitReceive+0x15a>
	...

08003bb8 <HAL_SPI_TransmitReceive_IT>:
 8003bb8:	b570      	push	{r4, r5, r6, lr}
 8003bba:	f890 405d 	ldrb.w	r4, [r0, #93]	; 0x5d
 8003bbe:	6846      	ldr	r6, [r0, #4]
 8003bc0:	2c01      	cmp	r4, #1
 8003bc2:	b2e5      	uxtb	r5, r4
 8003bc4:	d007      	beq.n	8003bd6 <HAL_SPI_TransmitReceive_IT+0x1e>
 8003bc6:	f5b6 7f82 	cmp.w	r6, #260	; 0x104
 8003bca:	d14b      	bne.n	8003c64 <HAL_SPI_TransmitReceive_IT+0xac>
 8003bcc:	6884      	ldr	r4, [r0, #8]
 8003bce:	2c00      	cmp	r4, #0
 8003bd0:	d148      	bne.n	8003c64 <HAL_SPI_TransmitReceive_IT+0xac>
 8003bd2:	2d04      	cmp	r5, #4
 8003bd4:	d146      	bne.n	8003c64 <HAL_SPI_TransmitReceive_IT+0xac>
 8003bd6:	2900      	cmp	r1, #0
 8003bd8:	d042      	beq.n	8003c60 <HAL_SPI_TransmitReceive_IT+0xa8>
 8003bda:	2a00      	cmp	r2, #0
 8003bdc:	d040      	beq.n	8003c60 <HAL_SPI_TransmitReceive_IT+0xa8>
 8003bde:	2b00      	cmp	r3, #0
 8003be0:	d03e      	beq.n	8003c60 <HAL_SPI_TransmitReceive_IT+0xa8>
 8003be2:	f890 405c 	ldrb.w	r4, [r0, #92]	; 0x5c
 8003be6:	2c01      	cmp	r4, #1
 8003be8:	d03c      	beq.n	8003c64 <HAL_SPI_TransmitReceive_IT+0xac>
 8003bea:	2401      	movs	r4, #1
 8003bec:	f880 405c 	strb.w	r4, [r0, #92]	; 0x5c
 8003bf0:	f890 405d 	ldrb.w	r4, [r0, #93]	; 0x5d
 8003bf4:	2c04      	cmp	r4, #4
 8003bf6:	d002      	beq.n	8003bfe <HAL_SPI_TransmitReceive_IT+0x46>
 8003bf8:	2405      	movs	r4, #5
 8003bfa:	f880 405d 	strb.w	r4, [r0, #93]	; 0x5d
 8003bfe:	6381      	str	r1, [r0, #56]	; 0x38
 8003c00:	2400      	movs	r4, #0
 8003c02:	68c1      	ldr	r1, [r0, #12]
 8003c04:	6604      	str	r4, [r0, #96]	; 0x60
 8003c06:	f5b1 6fe0 	cmp.w	r1, #1792	; 0x700
 8003c0a:	87c3      	strh	r3, [r0, #62]	; 0x3e
 8003c0c:	6402      	str	r2, [r0, #64]	; 0x40
 8003c0e:	8783      	strh	r3, [r0, #60]	; 0x3c
 8003c10:	6802      	ldr	r2, [r0, #0]
 8003c12:	f8a0 3044 	strh.w	r3, [r0, #68]	; 0x44
 8003c16:	f8a0 3046 	strh.w	r3, [r0, #70]	; 0x46
 8003c1a:	d917      	bls.n	8003c4c <HAL_SPI_TransmitReceive_IT+0x94>
 8003c1c:	4b12      	ldr	r3, [pc, #72]	; (8003c68 <HAL_SPI_TransmitReceive_IT+0xb0>)
 8003c1e:	64c3      	str	r3, [r0, #76]	; 0x4c
 8003c20:	4b12      	ldr	r3, [pc, #72]	; (8003c6c <HAL_SPI_TransmitReceive_IT+0xb4>)
 8003c22:	6503      	str	r3, [r0, #80]	; 0x50
 8003c24:	6853      	ldr	r3, [r2, #4]
 8003c26:	f423 5380 	bic.w	r3, r3, #4096	; 0x1000
 8003c2a:	6053      	str	r3, [r2, #4]
 8003c2c:	6813      	ldr	r3, [r2, #0]
 8003c2e:	065b      	lsls	r3, r3, #25
 8003c30:	d403      	bmi.n	8003c3a <HAL_SPI_TransmitReceive_IT+0x82>
 8003c32:	6813      	ldr	r3, [r2, #0]
 8003c34:	f043 0340 	orr.w	r3, r3, #64	; 0x40
 8003c38:	6013      	str	r3, [r2, #0]
 8003c3a:	2300      	movs	r3, #0
 8003c3c:	f880 305c 	strb.w	r3, [r0, #92]	; 0x5c
 8003c40:	4618      	mov	r0, r3
 8003c42:	6851      	ldr	r1, [r2, #4]
 8003c44:	f041 01e0 	orr.w	r1, r1, #224	; 0xe0
 8003c48:	6051      	str	r1, [r2, #4]
 8003c4a:	bd70      	pop	{r4, r5, r6, pc}
 8003c4c:	4908      	ldr	r1, [pc, #32]	; (8003c70 <HAL_SPI_TransmitReceive_IT+0xb8>)
 8003c4e:	2b01      	cmp	r3, #1
 8003c50:	64c1      	str	r1, [r0, #76]	; 0x4c
 8003c52:	4908      	ldr	r1, [pc, #32]	; (8003c74 <HAL_SPI_TransmitReceive_IT+0xbc>)
 8003c54:	6501      	str	r1, [r0, #80]	; 0x50
 8003c56:	d1e5      	bne.n	8003c24 <HAL_SPI_TransmitReceive_IT+0x6c>
 8003c58:	6853      	ldr	r3, [r2, #4]
 8003c5a:	f443 5380 	orr.w	r3, r3, #4096	; 0x1000
 8003c5e:	e7e4      	b.n	8003c2a <HAL_SPI_TransmitReceive_IT+0x72>
 8003c60:	2001      	movs	r0, #1
 8003c62:	e7f2      	b.n	8003c4a <HAL_SPI_TransmitReceive_IT+0x92>
 8003c64:	2002      	movs	r0, #2
 8003c66:	e7f0      	b.n	8003c4a <HAL_SPI_TransmitReceive_IT+0x92>
 8003c68:	08003dc1 	.word	0x08003dc1
 8003c6c:	08003d87 	.word	0x08003d87
 8003c70:	08003d1d 	.word	0x08003d1d
 8003c74:	08003cd3 	.word	0x08003cd3

08003c78 <HAL_SPI_RxCpltCallback>:
 8003c78:	4770      	bx	lr

08003c7a <HAL_SPI_ErrorCallback>:
 8003c7a:	4770      	bx	lr

08003c7c <SPI_CloseRxTx_ISR>:
 8003c7c:	b510      	push	{r4, lr}
 8003c7e:	4604      	mov	r4, r0
 8003c80:	f7fe f896 	bl	8001db0 <HAL_GetTick>
 8003c84:	4602      	mov	r2, r0
 8003c86:	6821      	ldr	r1, [r4, #0]
 8003c88:	4620      	mov	r0, r4
 8003c8a:	684b      	ldr	r3, [r1, #4]
 8003c8c:	f023 0320 	bic.w	r3, r3, #32
 8003c90:	604b      	str	r3, [r1, #4]
 8003c92:	2164      	movs	r1, #100	; 0x64
 8003c94:	f7ff fd96 	bl	80037c4 <SPI_EndRxTxTransaction>
 8003c98:	b118      	cbz	r0, 8003ca2 <SPI_CloseRxTx_ISR+0x26>
 8003c9a:	6e23      	ldr	r3, [r4, #96]	; 0x60
 8003c9c:	f043 0320 	orr.w	r3, r3, #32
 8003ca0:	6623      	str	r3, [r4, #96]	; 0x60
 8003ca2:	6e23      	ldr	r3, [r4, #96]	; 0x60
 8003ca4:	b973      	cbnz	r3, 8003cc4 <SPI_CloseRxTx_ISR+0x48>
 8003ca6:	f894 305d 	ldrb.w	r3, [r4, #93]	; 0x5d
 8003caa:	4620      	mov	r0, r4
 8003cac:	2b04      	cmp	r3, #4
 8003cae:	f04f 0301 	mov.w	r3, #1
 8003cb2:	f884 305d 	strb.w	r3, [r4, #93]	; 0x5d
 8003cb6:	d102      	bne.n	8003cbe <SPI_CloseRxTx_ISR+0x42>
 8003cb8:	f7ff ffde 	bl	8003c78 <HAL_SPI_RxCpltCallback>
 8003cbc:	bd10      	pop	{r4, pc}
 8003cbe:	f7fd fd55 	bl	800176c <HAL_SPI_TxRxCpltCallback>
 8003cc2:	e7fb      	b.n	8003cbc <SPI_CloseRxTx_ISR+0x40>
 8003cc4:	2301      	movs	r3, #1
 8003cc6:	4620      	mov	r0, r4
 8003cc8:	f884 305d 	strb.w	r3, [r4, #93]	; 0x5d
 8003ccc:	f7ff ffd5 	bl	8003c7a <HAL_SPI_ErrorCallback>
 8003cd0:	e7f4      	b.n	8003cbc <SPI_CloseRxTx_ISR+0x40>

08003cd2 <SPI_2linesTxISR_8BIT>:
 8003cd2:	8fc2      	ldrh	r2, [r0, #62]	; 0x3e
 8003cd4:	6b83      	ldr	r3, [r0, #56]	; 0x38
 8003cd6:	b292      	uxth	r2, r2
 8003cd8:	6801      	ldr	r1, [r0, #0]
 8003cda:	2a01      	cmp	r2, #1
 8003cdc:	d915      	bls.n	8003d0a <SPI_2linesTxISR_8BIT+0x38>
 8003cde:	f833 2b02 	ldrh.w	r2, [r3], #2
 8003ce2:	60ca      	str	r2, [r1, #12]
 8003ce4:	6383      	str	r3, [r0, #56]	; 0x38
 8003ce6:	8fc3      	ldrh	r3, [r0, #62]	; 0x3e
 8003ce8:	3b02      	subs	r3, #2
 8003cea:	b29b      	uxth	r3, r3
 8003cec:	87c3      	strh	r3, [r0, #62]	; 0x3e
 8003cee:	8fc3      	ldrh	r3, [r0, #62]	; 0x3e
 8003cf0:	b29b      	uxth	r3, r3
 8003cf2:	b993      	cbnz	r3, 8003d1a <SPI_2linesTxISR_8BIT+0x48>
 8003cf4:	6802      	ldr	r2, [r0, #0]
 8003cf6:	6853      	ldr	r3, [r2, #4]
 8003cf8:	f023 0380 	bic.w	r3, r3, #128	; 0x80
 8003cfc:	6053      	str	r3, [r2, #4]
 8003cfe:	f8b0 3046 	ldrh.w	r3, [r0, #70]	; 0x46
 8003d02:	b29b      	uxth	r3, r3
 8003d04:	b94b      	cbnz	r3, 8003d1a <SPI_2linesTxISR_8BIT+0x48>
 8003d06:	f7ff bfb9 	b.w	8003c7c <SPI_CloseRxTx_ISR>
 8003d0a:	781b      	ldrb	r3, [r3, #0]
 8003d0c:	730b      	strb	r3, [r1, #12]
 8003d0e:	6b83      	ldr	r3, [r0, #56]	; 0x38
 8003d10:	3301      	adds	r3, #1
 8003d12:	6383      	str	r3, [r0, #56]	; 0x38
 8003d14:	8fc3      	ldrh	r3, [r0, #62]	; 0x3e
 8003d16:	3b01      	subs	r3, #1
 8003d18:	e7e7      	b.n	8003cea <SPI_2linesTxISR_8BIT+0x18>
 8003d1a:	4770      	bx	lr

08003d1c <SPI_2linesRxISR_8BIT>:
 8003d1c:	f8b0 1046 	ldrh.w	r1, [r0, #70]	; 0x46
 8003d20:	6802      	ldr	r2, [r0, #0]
 8003d22:	b289      	uxth	r1, r1
 8003d24:	6c03      	ldr	r3, [r0, #64]	; 0x40
 8003d26:	2901      	cmp	r1, #1
 8003d28:	d920      	bls.n	8003d6c <SPI_2linesRxISR_8BIT+0x50>
 8003d2a:	68d1      	ldr	r1, [r2, #12]
 8003d2c:	f823 1b02 	strh.w	r1, [r3], #2
 8003d30:	6403      	str	r3, [r0, #64]	; 0x40
 8003d32:	f8b0 3046 	ldrh.w	r3, [r0, #70]	; 0x46
 8003d36:	3b02      	subs	r3, #2
 8003d38:	b29b      	uxth	r3, r3
 8003d3a:	f8a0 3046 	strh.w	r3, [r0, #70]	; 0x46
 8003d3e:	f8b0 3046 	ldrh.w	r3, [r0, #70]	; 0x46
 8003d42:	b29b      	uxth	r3, r3
 8003d44:	2b01      	cmp	r3, #1
 8003d46:	d103      	bne.n	8003d50 <SPI_2linesRxISR_8BIT+0x34>
 8003d48:	6853      	ldr	r3, [r2, #4]
 8003d4a:	f443 5380 	orr.w	r3, r3, #4096	; 0x1000
 8003d4e:	6053      	str	r3, [r2, #4]
 8003d50:	f8b0 3046 	ldrh.w	r3, [r0, #70]	; 0x46
 8003d54:	b29b      	uxth	r3, r3
 8003d56:	b9ab      	cbnz	r3, 8003d84 <SPI_2linesRxISR_8BIT+0x68>
 8003d58:	6802      	ldr	r2, [r0, #0]
 8003d5a:	6853      	ldr	r3, [r2, #4]
 8003d5c:	f023 0360 	bic.w	r3, r3, #96	; 0x60
 8003d60:	6053      	str	r3, [r2, #4]
 8003d62:	8fc3      	ldrh	r3, [r0, #62]	; 0x3e
 8003d64:	b29b      	uxth	r3, r3
 8003d66:	b96b      	cbnz	r3, 8003d84 <SPI_2linesRxISR_8BIT+0x68>
 8003d68:	f7ff bf88 	b.w	8003c7c <SPI_CloseRxTx_ISR>
 8003d6c:	7b12      	ldrb	r2, [r2, #12]
 8003d6e:	701a      	strb	r2, [r3, #0]
 8003d70:	6c03      	ldr	r3, [r0, #64]	; 0x40
 8003d72:	3301      	adds	r3, #1
 8003d74:	6403      	str	r3, [r0, #64]	; 0x40
 8003d76:	f8b0 3046 	ldrh.w	r3, [r0, #70]	; 0x46
 8003d7a:	3b01      	subs	r3, #1
 8003d7c:	b29b      	uxth	r3, r3
 8003d7e:	f8a0 3046 	strh.w	r3, [r0, #70]	; 0x46
 8003d82:	e7e5      	b.n	8003d50 <SPI_2linesRxISR_8BIT+0x34>
 8003d84:	4770      	bx	lr

08003d86 <SPI_2linesTxISR_16BIT>:
 8003d86:	6b82      	ldr	r2, [r0, #56]	; 0x38
 8003d88:	6801      	ldr	r1, [r0, #0]
 8003d8a:	b410      	push	{r4}
 8003d8c:	f832 4b02 	ldrh.w	r4, [r2], #2
 8003d90:	60cc      	str	r4, [r1, #12]
 8003d92:	6382      	str	r2, [r0, #56]	; 0x38
 8003d94:	8fc2      	ldrh	r2, [r0, #62]	; 0x3e
 8003d96:	3a01      	subs	r2, #1
 8003d98:	b292      	uxth	r2, r2
 8003d9a:	87c2      	strh	r2, [r0, #62]	; 0x3e
 8003d9c:	8fc2      	ldrh	r2, [r0, #62]	; 0x3e
 8003d9e:	b292      	uxth	r2, r2
 8003da0:	b95a      	cbnz	r2, 8003dba <SPI_2linesTxISR_16BIT+0x34>
 8003da2:	684a      	ldr	r2, [r1, #4]
 8003da4:	f022 0280 	bic.w	r2, r2, #128	; 0x80
 8003da8:	604a      	str	r2, [r1, #4]
 8003daa:	f8b0 3046 	ldrh.w	r3, [r0, #70]	; 0x46
 8003dae:	b29b      	uxth	r3, r3
 8003db0:	b91b      	cbnz	r3, 8003dba <SPI_2linesTxISR_16BIT+0x34>
 8003db2:	f85d 4b04 	ldr.w	r4, [sp], #4
 8003db6:	f7ff bf61 	b.w	8003c7c <SPI_CloseRxTx_ISR>
 8003dba:	f85d 4b04 	ldr.w	r4, [sp], #4
 8003dbe:	4770      	bx	lr

08003dc0 <SPI_2linesRxISR_16BIT>:
 8003dc0:	6801      	ldr	r1, [r0, #0]
 8003dc2:	6c02      	ldr	r2, [r0, #64]	; 0x40
 8003dc4:	b410      	push	{r4}
 8003dc6:	68cc      	ldr	r4, [r1, #12]
 8003dc8:	f822 4b02 	strh.w	r4, [r2], #2
 8003dcc:	6402      	str	r2, [r0, #64]	; 0x40
 8003dce:	f8b0 2046 	ldrh.w	r2, [r0, #70]	; 0x46
 8003dd2:	3a01      	subs	r2, #1
 8003dd4:	b292      	uxth	r2, r2
 8003dd6:	f8a0 2046 	strh.w	r2, [r0, #70]	; 0x46
 8003dda:	f8b0 2046 	ldrh.w	r2, [r0, #70]	; 0x46
 8003dde:	b292      	uxth	r2, r2
 8003de0:	b952      	cbnz	r2, 8003df8 <SPI_2linesRxISR_16BIT+0x38>
 8003de2:	684a      	ldr	r2, [r1, #4]
 8003de4:	f022 0240 	bic.w	r2, r2, #64	; 0x40
 8003de8:	604a      	str	r2, [r1, #4]
 8003dea:	8fc3      	ldrh	r3, [r0, #62]	; 0x3e
 8003dec:	b29b      	uxth	r3, r3
 8003dee:	b91b      	cbnz	r3, 8003df8 <SPI_2linesRxISR_16BIT+0x38>
 8003df0:	f85d 4b04 	ldr.w	r4, [sp], #4
 8003df4:	f7ff bf42 	b.w	8003c7c <SPI_CloseRxTx_ISR>
 8003df8:	f85d 4b04 	ldr.w	r4, [sp], #4
 8003dfc:	4770      	bx	lr
	...

08003e00 <HAL_SPI_IRQHandler>:
 8003e00:	6803      	ldr	r3, [r0, #0]
 8003e02:	6859      	ldr	r1, [r3, #4]
 8003e04:	689a      	ldr	r2, [r3, #8]
 8003e06:	b530      	push	{r4, r5, lr}
 8003e08:	f002 0541 	and.w	r5, r2, #65	; 0x41
 8003e0c:	b085      	sub	sp, #20
 8003e0e:	4604      	mov	r4, r0
 8003e10:	2d01      	cmp	r5, #1
 8003e12:	d106      	bne.n	8003e22 <HAL_SPI_IRQHandler+0x22>
 8003e14:	064d      	lsls	r5, r1, #25
 8003e16:	d504      	bpl.n	8003e22 <HAL_SPI_IRQHandler+0x22>
 8003e18:	6cc3      	ldr	r3, [r0, #76]	; 0x4c
 8003e1a:	b005      	add	sp, #20
 8003e1c:	e8bd 4030 	ldmia.w	sp!, {r4, r5, lr}
 8003e20:	4718      	bx	r3
 8003e22:	0795      	lsls	r5, r2, #30
 8003e24:	d504      	bpl.n	8003e30 <HAL_SPI_IRQHandler+0x30>
 8003e26:	0608      	lsls	r0, r1, #24
 8003e28:	d502      	bpl.n	8003e30 <HAL_SPI_IRQHandler+0x30>
 8003e2a:	6d23      	ldr	r3, [r4, #80]	; 0x50
 8003e2c:	4620      	mov	r0, r4
 8003e2e:	e7f4      	b.n	8003e1a <HAL_SPI_IRQHandler+0x1a>
 8003e30:	f412 7fb0 	tst.w	r2, #352	; 0x160
 8003e34:	d058      	beq.n	8003ee8 <HAL_SPI_IRQHandler+0xe8>
 8003e36:	068d      	lsls	r5, r1, #26
 8003e38:	d556      	bpl.n	8003ee8 <HAL_SPI_IRQHandler+0xe8>
 8003e3a:	0650      	lsls	r0, r2, #25
 8003e3c:	d50e      	bpl.n	8003e5c <HAL_SPI_IRQHandler+0x5c>
 8003e3e:	f894 005d 	ldrb.w	r0, [r4, #93]	; 0x5d
 8003e42:	2500      	movs	r5, #0
 8003e44:	2803      	cmp	r0, #3
 8003e46:	d049      	beq.n	8003edc <HAL_SPI_IRQHandler+0xdc>
 8003e48:	6e20      	ldr	r0, [r4, #96]	; 0x60
 8003e4a:	f040 0004 	orr.w	r0, r0, #4
 8003e4e:	6620      	str	r0, [r4, #96]	; 0x60
 8003e50:	9500      	str	r5, [sp, #0]
 8003e52:	68d8      	ldr	r0, [r3, #12]
 8003e54:	9000      	str	r0, [sp, #0]
 8003e56:	6898      	ldr	r0, [r3, #8]
 8003e58:	9000      	str	r0, [sp, #0]
 8003e5a:	9800      	ldr	r0, [sp, #0]
 8003e5c:	0695      	lsls	r5, r2, #26
 8003e5e:	d50c      	bpl.n	8003e7a <HAL_SPI_IRQHandler+0x7a>
 8003e60:	6e20      	ldr	r0, [r4, #96]	; 0x60
 8003e62:	f040 0001 	orr.w	r0, r0, #1
 8003e66:	6620      	str	r0, [r4, #96]	; 0x60
 8003e68:	2000      	movs	r0, #0
 8003e6a:	9002      	str	r0, [sp, #8]
 8003e6c:	6898      	ldr	r0, [r3, #8]
 8003e6e:	9002      	str	r0, [sp, #8]
 8003e70:	6818      	ldr	r0, [r3, #0]
 8003e72:	f020 0040 	bic.w	r0, r0, #64	; 0x40
 8003e76:	6018      	str	r0, [r3, #0]
 8003e78:	9802      	ldr	r0, [sp, #8]
 8003e7a:	05d0      	lsls	r0, r2, #23
 8003e7c:	d508      	bpl.n	8003e90 <HAL_SPI_IRQHandler+0x90>
 8003e7e:	6e22      	ldr	r2, [r4, #96]	; 0x60
 8003e80:	f042 0208 	orr.w	r2, r2, #8
 8003e84:	6622      	str	r2, [r4, #96]	; 0x60
 8003e86:	2200      	movs	r2, #0
 8003e88:	9203      	str	r2, [sp, #12]
 8003e8a:	689a      	ldr	r2, [r3, #8]
 8003e8c:	9203      	str	r2, [sp, #12]
 8003e8e:	9a03      	ldr	r2, [sp, #12]
 8003e90:	6e22      	ldr	r2, [r4, #96]	; 0x60
 8003e92:	b34a      	cbz	r2, 8003ee8 <HAL_SPI_IRQHandler+0xe8>
 8003e94:	685a      	ldr	r2, [r3, #4]
 8003e96:	f022 02e0 	bic.w	r2, r2, #224	; 0xe0
 8003e9a:	605a      	str	r2, [r3, #4]
 8003e9c:	2201      	movs	r2, #1
 8003e9e:	f884 205d 	strb.w	r2, [r4, #93]	; 0x5d
 8003ea2:	078a      	lsls	r2, r1, #30
 8003ea4:	d022      	beq.n	8003eec <HAL_SPI_IRQHandler+0xec>
 8003ea6:	685a      	ldr	r2, [r3, #4]
 8003ea8:	6da0      	ldr	r0, [r4, #88]	; 0x58
 8003eaa:	f022 0203 	bic.w	r2, r2, #3
 8003eae:	605a      	str	r2, [r3, #4]
 8003eb0:	b140      	cbz	r0, 8003ec4 <HAL_SPI_IRQHandler+0xc4>
 8003eb2:	4b10      	ldr	r3, [pc, #64]	; (8003ef4 <HAL_SPI_IRQHandler+0xf4>)
 8003eb4:	6503      	str	r3, [r0, #80]	; 0x50
 8003eb6:	f7fe fb73 	bl	80025a0 <HAL_DMA_Abort_IT>
 8003eba:	b118      	cbz	r0, 8003ec4 <HAL_SPI_IRQHandler+0xc4>
 8003ebc:	6e23      	ldr	r3, [r4, #96]	; 0x60
 8003ebe:	f043 0340 	orr.w	r3, r3, #64	; 0x40
 8003ec2:	6623      	str	r3, [r4, #96]	; 0x60
 8003ec4:	6d60      	ldr	r0, [r4, #84]	; 0x54
 8003ec6:	b178      	cbz	r0, 8003ee8 <HAL_SPI_IRQHandler+0xe8>
 8003ec8:	4b0a      	ldr	r3, [pc, #40]	; (8003ef4 <HAL_SPI_IRQHandler+0xf4>)
 8003eca:	6503      	str	r3, [r0, #80]	; 0x50
 8003ecc:	f7fe fb68 	bl	80025a0 <HAL_DMA_Abort_IT>
 8003ed0:	b150      	cbz	r0, 8003ee8 <HAL_SPI_IRQHandler+0xe8>
 8003ed2:	6e23      	ldr	r3, [r4, #96]	; 0x60
 8003ed4:	f043 0340 	orr.w	r3, r3, #64	; 0x40
 8003ed8:	6623      	str	r3, [r4, #96]	; 0x60
 8003eda:	e005      	b.n	8003ee8 <HAL_SPI_IRQHandler+0xe8>
 8003edc:	9501      	str	r5, [sp, #4]
 8003ede:	68da      	ldr	r2, [r3, #12]
 8003ee0:	9201      	str	r2, [sp, #4]
 8003ee2:	689b      	ldr	r3, [r3, #8]
 8003ee4:	9301      	str	r3, [sp, #4]
 8003ee6:	9b01      	ldr	r3, [sp, #4]
 8003ee8:	b005      	add	sp, #20
 8003eea:	bd30      	pop	{r4, r5, pc}
 8003eec:	4620      	mov	r0, r4
 8003eee:	f7ff fec4 	bl	8003c7a <HAL_SPI_ErrorCallback>
 8003ef2:	e7f9      	b.n	8003ee8 <HAL_SPI_IRQHandler+0xe8>
 8003ef4:	08003ef9 	.word	0x08003ef9

08003ef8 <SPI_DMAAbortOnError>:
 8003ef8:	b508      	push	{r3, lr}
 8003efa:	6b80      	ldr	r0, [r0, #56]	; 0x38
 8003efc:	2300      	movs	r3, #0
 8003efe:	f8a0 3046 	strh.w	r3, [r0, #70]	; 0x46
 8003f02:	87c3      	strh	r3, [r0, #62]	; 0x3e
 8003f04:	f7ff feb9 	bl	8003c7a <HAL_SPI_ErrorCallback>
 8003f08:	bd08      	pop	{r3, pc}
	...

08003f0c <HAL_TIM_Base_Start>:
 8003f0c:	f890 303d 	ldrb.w	r3, [r0, #61]	; 0x3d
 8003f10:	2b01      	cmp	r3, #1
 8003f12:	d12f      	bne.n	8003f74 <HAL_TIM_Base_Start+0x68>
 8003f14:	2302      	movs	r3, #2
 8003f16:	4a18      	ldr	r2, [pc, #96]	; (8003f78 <HAL_TIM_Base_Start+0x6c>)
 8003f18:	f880 303d 	strb.w	r3, [r0, #61]	; 0x3d
 8003f1c:	6803      	ldr	r3, [r0, #0]
 8003f1e:	4293      	cmp	r3, r2
 8003f20:	d01a      	beq.n	8003f58 <HAL_TIM_Base_Start+0x4c>
 8003f22:	f1b3 4f80 	cmp.w	r3, #1073741824	; 0x40000000
 8003f26:	d017      	beq.n	8003f58 <HAL_TIM_Base_Start+0x4c>
 8003f28:	f5a2 427c 	sub.w	r2, r2, #64512	; 0xfc00
 8003f2c:	4293      	cmp	r3, r2
 8003f2e:	d013      	beq.n	8003f58 <HAL_TIM_Base_Start+0x4c>
 8003f30:	f502 6280 	add.w	r2, r2, #1024	; 0x400
 8003f34:	4293      	cmp	r3, r2
 8003f36:	d00f      	beq.n	8003f58 <HAL_TIM_Base_Start+0x4c>
 8003f38:	f502 6280 	add.w	r2, r2, #1024	; 0x400
 8003f3c:	4293      	cmp	r3, r2
 8003f3e:	d00b      	beq.n	8003f58 <HAL_TIM_Base_Start+0x4c>
 8003f40:	f502 4278 	add.w	r2, r2, #63488	; 0xf800
 8003f44:	4293      	cmp	r3, r2
 8003f46:	d007      	beq.n	8003f58 <HAL_TIM_Base_Start+0x4c>
 8003f48:	f502 5270 	add.w	r2, r2, #15360	; 0x3c00
 8003f4c:	4293      	cmp	r3, r2
 8003f4e:	d003      	beq.n	8003f58 <HAL_TIM_Base_Start+0x4c>
 8003f50:	f5a2 3294 	sub.w	r2, r2, #75776	; 0x12800
 8003f54:	4293      	cmp	r3, r2
 8003f56:	d107      	bne.n	8003f68 <HAL_TIM_Base_Start+0x5c>
 8003f58:	6899      	ldr	r1, [r3, #8]
 8003f5a:	4a08      	ldr	r2, [pc, #32]	; (8003f7c <HAL_TIM_Base_Start+0x70>)
 8003f5c:	400a      	ands	r2, r1
 8003f5e:	2a06      	cmp	r2, #6
 8003f60:	d006      	beq.n	8003f70 <HAL_TIM_Base_Start+0x64>
 8003f62:	f5b2 3f80 	cmp.w	r2, #65536	; 0x10000
 8003f66:	d003      	beq.n	8003f70 <HAL_TIM_Base_Start+0x64>
 8003f68:	681a      	ldr	r2, [r3, #0]
 8003f6a:	f042 0201 	orr.w	r2, r2, #1
 8003f6e:	601a      	str	r2, [r3, #0]
 8003f70:	2000      	movs	r0, #0
 8003f72:	4770      	bx	lr
 8003f74:	2001      	movs	r0, #1
 8003f76:	4770      	bx	lr
 8003f78:	40010000 	.word	0x40010000
 8003f7c:	00010007 	.word	0x00010007

08003f80 <HAL_TIM_Base_Start_IT>:
 8003f80:	f890 303d 	ldrb.w	r3, [r0, #61]	; 0x3d
 8003f84:	2b01      	cmp	r3, #1
 8003f86:	d133      	bne.n	8003ff0 <HAL_TIM_Base_Start_IT+0x70>
 8003f88:	2302      	movs	r3, #2
 8003f8a:	f880 303d 	strb.w	r3, [r0, #61]	; 0x3d
 8003f8e:	6803      	ldr	r3, [r0, #0]
 8003f90:	68da      	ldr	r2, [r3, #12]
 8003f92:	f042 0201 	orr.w	r2, r2, #1
 8003f96:	60da      	str	r2, [r3, #12]
 8003f98:	4a16      	ldr	r2, [pc, #88]	; (8003ff4 <HAL_TIM_Base_Start_IT+0x74>)
 8003f9a:	4293      	cmp	r3, r2
 8003f9c:	d01a      	beq.n	8003fd4 <HAL_TIM_Base_Start_IT+0x54>
 8003f9e:	f1b3 4f80 	cmp.w	r3, #1073741824	; 0x40000000
 8003fa2:	d017      	beq.n	8003fd4 <HAL_TIM_Base_Start_IT+0x54>
 8003fa4:	f5a2 427c 	sub.w	r2, r2, #64512	; 0xfc00
 8003fa8:	4293      	cmp	r3, r2
 8003faa:	d013      	beq.n	8003fd4 <HAL_TIM_Base_Start_IT+0x54>
 8003fac:	f502 6280 	add.w	r2, r2, #1024	; 0x400
 8003fb0:	4293      	cmp	r3, r2
 8003fb2:	d00f      	beq.n	8003fd4 <HAL_TIM_Base_Start_IT+0x54>
 8003fb4:	f502 6280 	add.w	r2, r2, #1024	; 0x400
 8003fb8:	4293      	cmp	r3, r2
 8003fba:	d00b      	beq.n	8003fd4 <HAL_TIM_Base_Start_IT+0x54>
 8003fbc:	f502 4278 	add.w	r2, r2, #63488	; 0xf800
 8003fc0:	4293      	cmp	r3, r2
 8003fc2:	d007      	beq.n	8003fd4 <HAL_TIM_Base_Start_IT+0x54>
 8003fc4:	f502 5270 	add.w	r2, r2, #15360	; 0x3c00
 8003fc8:	4293      	cmp	r3, r2
 8003fca:	d003      	beq.n	8003fd4 <HAL_TIM_Base_Start_IT+0x54>
 8003fcc:	f5a2 3294 	sub.w	r2, r2, #75776	; 0x12800
 8003fd0:	4293      	cmp	r3, r2
 8003fd2:	d107      	bne.n	8003fe4 <HAL_TIM_Base_Start_IT+0x64>
 8003fd4:	6899      	ldr	r1, [r3, #8]
 8003fd6:	4a08      	ldr	r2, [pc, #32]	; (8003ff8 <HAL_TIM_Base_Start_IT+0x78>)
 8003fd8:	400a      	ands	r2, r1
 8003fda:	2a06      	cmp	r2, #6
 8003fdc:	d006      	beq.n	8003fec <HAL_TIM_Base_Start_IT+0x6c>
 8003fde:	f5b2 3f80 	cmp.w	r2, #65536	; 0x10000
 8003fe2:	d003      	beq.n	8003fec <HAL_TIM_Base_Start_IT+0x6c>
 8003fe4:	681a      	ldr	r2, [r3, #0]
 8003fe6:	f042 0201 	orr.w	r2, r2, #1
 8003fea:	601a      	str	r2, [r3, #0]
 8003fec:	2000      	movs	r0, #0
 8003fee:	4770      	bx	lr
 8003ff0:	2001      	movs	r0, #1
 8003ff2:	4770      	bx	lr
 8003ff4:	40010000 	.word	0x40010000
 8003ff8:	00010007 	.word	0x00010007

08003ffc <HAL_TIM_OC_DelayElapsedCallback>:
 8003ffc:	4770      	bx	lr

08003ffe <HAL_TIM_IC_CaptureCallback>:
 8003ffe:	4770      	bx	lr

08004000 <HAL_TIM_PWM_PulseFinishedCallback>:
 8004000:	4770      	bx	lr

08004002 <HAL_TIM_TriggerCallback>:
 8004002:	4770      	bx	lr

08004004 <HAL_TIM_IRQHandler>:
 8004004:	6803      	ldr	r3, [r0, #0]
 8004006:	b570      	push	{r4, r5, r6, lr}
 8004008:	68dd      	ldr	r5, [r3, #12]
 800400a:	4604      	mov	r4, r0
 800400c:	691e      	ldr	r6, [r3, #16]
 800400e:	07b2      	lsls	r2, r6, #30
 8004010:	d50d      	bpl.n	800402e <HAL_TIM_IRQHandler+0x2a>
 8004012:	07a9      	lsls	r1, r5, #30
 8004014:	d50b      	bpl.n	800402e <HAL_TIM_IRQHandler+0x2a>
 8004016:	f06f 0202 	mvn.w	r2, #2
 800401a:	611a      	str	r2, [r3, #16]
 800401c:	2201      	movs	r2, #1
 800401e:	7702      	strb	r2, [r0, #28]
 8004020:	699b      	ldr	r3, [r3, #24]
 8004022:	079a      	lsls	r2, r3, #30
 8004024:	d075      	beq.n	8004112 <HAL_TIM_IRQHandler+0x10e>
 8004026:	f7ff ffea 	bl	8003ffe <HAL_TIM_IC_CaptureCallback>
 800402a:	2300      	movs	r3, #0
 800402c:	7723      	strb	r3, [r4, #28]
 800402e:	0773      	lsls	r3, r6, #29
 8004030:	d510      	bpl.n	8004054 <HAL_TIM_IRQHandler+0x50>
 8004032:	0768      	lsls	r0, r5, #29
 8004034:	d50e      	bpl.n	8004054 <HAL_TIM_IRQHandler+0x50>
 8004036:	6823      	ldr	r3, [r4, #0]
 8004038:	f06f 0204 	mvn.w	r2, #4
 800403c:	4620      	mov	r0, r4
 800403e:	611a      	str	r2, [r3, #16]
 8004040:	2202      	movs	r2, #2
 8004042:	7722      	strb	r2, [r4, #28]
 8004044:	699b      	ldr	r3, [r3, #24]
 8004046:	f413 7f40 	tst.w	r3, #768	; 0x300
 800404a:	d068      	beq.n	800411e <HAL_TIM_IRQHandler+0x11a>
 800404c:	f7ff ffd7 	bl	8003ffe <HAL_TIM_IC_CaptureCallback>
 8004050:	2300      	movs	r3, #0
 8004052:	7723      	strb	r3, [r4, #28]
 8004054:	0731      	lsls	r1, r6, #28
 8004056:	d50f      	bpl.n	8004078 <HAL_TIM_IRQHandler+0x74>
 8004058:	072a      	lsls	r2, r5, #28
 800405a:	d50d      	bpl.n	8004078 <HAL_TIM_IRQHandler+0x74>
 800405c:	6823      	ldr	r3, [r4, #0]
 800405e:	f06f 0208 	mvn.w	r2, #8
 8004062:	4620      	mov	r0, r4
 8004064:	611a      	str	r2, [r3, #16]
 8004066:	2204      	movs	r2, #4
 8004068:	7722      	strb	r2, [r4, #28]
 800406a:	69db      	ldr	r3, [r3, #28]
 800406c:	079b      	lsls	r3, r3, #30
 800406e:	d05c      	beq.n	800412a <HAL_TIM_IRQHandler+0x126>
 8004070:	f7ff ffc5 	bl	8003ffe <HAL_TIM_IC_CaptureCallback>
 8004074:	2300      	movs	r3, #0
 8004076:	7723      	strb	r3, [r4, #28]
 8004078:	06f1      	lsls	r1, r6, #27
 800407a:	d510      	bpl.n	800409e <HAL_TIM_IRQHandler+0x9a>
 800407c:	06ea      	lsls	r2, r5, #27
 800407e:	d50e      	bpl.n	800409e <HAL_TIM_IRQHandler+0x9a>
 8004080:	6823      	ldr	r3, [r4, #0]
 8004082:	f06f 0210 	mvn.w	r2, #16
 8004086:	4620      	mov	r0, r4
 8004088:	611a      	str	r2, [r3, #16]
 800408a:	2208      	movs	r2, #8
 800408c:	7722      	strb	r2, [r4, #28]
 800408e:	69db      	ldr	r3, [r3, #28]
 8004090:	f413 7f40 	tst.w	r3, #768	; 0x300
 8004094:	d04f      	beq.n	8004136 <HAL_TIM_IRQHandler+0x132>
 8004096:	f7ff ffb2 	bl	8003ffe <HAL_TIM_IC_CaptureCallback>
 800409a:	2300      	movs	r3, #0
 800409c:	7723      	strb	r3, [r4, #28]
 800409e:	07f3      	lsls	r3, r6, #31
 80040a0:	d508      	bpl.n	80040b4 <HAL_TIM_IRQHandler+0xb0>
 80040a2:	07e8      	lsls	r0, r5, #31
 80040a4:	d506      	bpl.n	80040b4 <HAL_TIM_IRQHandler+0xb0>
 80040a6:	6823      	ldr	r3, [r4, #0]
 80040a8:	f06f 0201 	mvn.w	r2, #1
 80040ac:	4620      	mov	r0, r4
 80040ae:	611a      	str	r2, [r3, #16]
 80040b0:	f7fd f950 	bl	8001354 <HAL_TIM_PeriodElapsedCallback>
 80040b4:	f416 5f02 	tst.w	r6, #8320	; 0x2080
 80040b8:	d008      	beq.n	80040cc <HAL_TIM_IRQHandler+0xc8>
 80040ba:	0629      	lsls	r1, r5, #24
 80040bc:	d506      	bpl.n	80040cc <HAL_TIM_IRQHandler+0xc8>
 80040be:	6823      	ldr	r3, [r4, #0]
 80040c0:	f46f 5202 	mvn.w	r2, #8320	; 0x2080
 80040c4:	4620      	mov	r0, r4
 80040c6:	611a      	str	r2, [r3, #16]
 80040c8:	f000 f9c7 	bl	800445a <HAL_TIMEx_BreakCallback>
 80040cc:	05f2      	lsls	r2, r6, #23
 80040ce:	d508      	bpl.n	80040e2 <HAL_TIM_IRQHandler+0xde>
 80040d0:	062b      	lsls	r3, r5, #24
 80040d2:	d506      	bpl.n	80040e2 <HAL_TIM_IRQHandler+0xde>
 80040d4:	6823      	ldr	r3, [r4, #0]
 80040d6:	f46f 7280 	mvn.w	r2, #256	; 0x100
 80040da:	4620      	mov	r0, r4
 80040dc:	611a      	str	r2, [r3, #16]
 80040de:	f000 f9bd 	bl	800445c <HAL_TIMEx_Break2Callback>
 80040e2:	0670      	lsls	r0, r6, #25
 80040e4:	d508      	bpl.n	80040f8 <HAL_TIM_IRQHandler+0xf4>
 80040e6:	0669      	lsls	r1, r5, #25
 80040e8:	d506      	bpl.n	80040f8 <HAL_TIM_IRQHandler+0xf4>
 80040ea:	6823      	ldr	r3, [r4, #0]
 80040ec:	f06f 0240 	mvn.w	r2, #64	; 0x40
 80040f0:	4620      	mov	r0, r4
 80040f2:	611a      	str	r2, [r3, #16]
 80040f4:	f7ff ff85 	bl	8004002 <HAL_TIM_TriggerCallback>
 80040f8:	06b2      	lsls	r2, r6, #26
 80040fa:	d522      	bpl.n	8004142 <HAL_TIM_IRQHandler+0x13e>
 80040fc:	06ab      	lsls	r3, r5, #26
 80040fe:	d520      	bpl.n	8004142 <HAL_TIM_IRQHandler+0x13e>
 8004100:	6823      	ldr	r3, [r4, #0]
 8004102:	f06f 0220 	mvn.w	r2, #32
 8004106:	4620      	mov	r0, r4
 8004108:	611a      	str	r2, [r3, #16]
 800410a:	e8bd 4070 	ldmia.w	sp!, {r4, r5, r6, lr}
 800410e:	f000 b9a3 	b.w	8004458 <HAL_TIMEx_CommutCallback>
 8004112:	f7ff ff73 	bl	8003ffc <HAL_TIM_OC_DelayElapsedCallback>
 8004116:	4620      	mov	r0, r4
 8004118:	f7ff ff72 	bl	8004000 <HAL_TIM_PWM_PulseFinishedCallback>
 800411c:	e785      	b.n	800402a <HAL_TIM_IRQHandler+0x26>
 800411e:	f7ff ff6d 	bl	8003ffc <HAL_TIM_OC_DelayElapsedCallback>
 8004122:	4620      	mov	r0, r4
 8004124:	f7ff ff6c 	bl	8004000 <HAL_TIM_PWM_PulseFinishedCallback>
 8004128:	e792      	b.n	8004050 <HAL_TIM_IRQHandler+0x4c>
 800412a:	f7ff ff67 	bl	8003ffc <HAL_TIM_OC_DelayElapsedCallback>
 800412e:	4620      	mov	r0, r4
 8004130:	f7ff ff66 	bl	8004000 <HAL_TIM_PWM_PulseFinishedCallback>
 8004134:	e79e      	b.n	8004074 <HAL_TIM_IRQHandler+0x70>
 8004136:	f7ff ff61 	bl	8003ffc <HAL_TIM_OC_DelayElapsedCallback>
 800413a:	4620      	mov	r0, r4
 800413c:	f7ff ff60 	bl	8004000 <HAL_TIM_PWM_PulseFinishedCallback>
 8004140:	e7ab      	b.n	800409a <HAL_TIM_IRQHandler+0x96>
 8004142:	bd70      	pop	{r4, r5, r6, pc}

08004144 <TIM_Base_SetConfig>:
 8004144:	4a32      	ldr	r2, [pc, #200]	; (8004210 <TIM_Base_SetConfig+0xcc>)
 8004146:	6803      	ldr	r3, [r0, #0]
 8004148:	4290      	cmp	r0, r2
 800414a:	d012      	beq.n	8004172 <TIM_Base_SetConfig+0x2e>
 800414c:	f1b0 4f80 	cmp.w	r0, #1073741824	; 0x40000000
 8004150:	d00f      	beq.n	8004172 <TIM_Base_SetConfig+0x2e>
 8004152:	f5a2 427c 	sub.w	r2, r2, #64512	; 0xfc00
 8004156:	4290      	cmp	r0, r2
 8004158:	d00b      	beq.n	8004172 <TIM_Base_SetConfig+0x2e>
 800415a:	f502 6280 	add.w	r2, r2, #1024	; 0x400
 800415e:	4290      	cmp	r0, r2
 8004160:	d007      	beq.n	8004172 <TIM_Base_SetConfig+0x2e>
 8004162:	f502 6280 	add.w	r2, r2, #1024	; 0x400
 8004166:	4290      	cmp	r0, r2
 8004168:	d003      	beq.n	8004172 <TIM_Base_SetConfig+0x2e>
 800416a:	f502 4278 	add.w	r2, r2, #63488	; 0xf800
 800416e:	4290      	cmp	r0, r2
 8004170:	d119      	bne.n	80041a6 <TIM_Base_SetConfig+0x62>
 8004172:	684a      	ldr	r2, [r1, #4]
 8004174:	f023 0370 	bic.w	r3, r3, #112	; 0x70
 8004178:	4313      	orrs	r3, r2
 800417a:	4a25      	ldr	r2, [pc, #148]	; (8004210 <TIM_Base_SetConfig+0xcc>)
 800417c:	4290      	cmp	r0, r2
 800417e:	d029      	beq.n	80041d4 <TIM_Base_SetConfig+0x90>
 8004180:	f1b0 4f80 	cmp.w	r0, #1073741824	; 0x40000000
 8004184:	d026      	beq.n	80041d4 <TIM_Base_SetConfig+0x90>
 8004186:	f5a2 427c 	sub.w	r2, r2, #64512	; 0xfc00
 800418a:	4290      	cmp	r0, r2
 800418c:	d022      	beq.n	80041d4 <TIM_Base_SetConfig+0x90>
 800418e:	f502 6280 	add.w	r2, r2, #1024	; 0x400
 8004192:	4290      	cmp	r0, r2
 8004194:	d01e      	beq.n	80041d4 <TIM_Base_SetConfig+0x90>
 8004196:	f502 6280 	add.w	r2, r2, #1024	; 0x400
 800419a:	4290      	cmp	r0, r2
 800419c:	d01a      	beq.n	80041d4 <TIM_Base_SetConfig+0x90>
 800419e:	f502 4278 	add.w	r2, r2, #63488	; 0xf800
 80041a2:	4290      	cmp	r0, r2
 80041a4:	d016      	beq.n	80041d4 <TIM_Base_SetConfig+0x90>
 80041a6:	4a1b      	ldr	r2, [pc, #108]	; (8004214 <TIM_Base_SetConfig+0xd0>)
 80041a8:	4290      	cmp	r0, r2
 80041aa:	d013      	beq.n	80041d4 <TIM_Base_SetConfig+0x90>
 80041ac:	f502 6280 	add.w	r2, r2, #1024	; 0x400
 80041b0:	4290      	cmp	r0, r2
 80041b2:	d00f      	beq.n	80041d4 <TIM_Base_SetConfig+0x90>
 80041b4:	f502 6280 	add.w	r2, r2, #1024	; 0x400
 80041b8:	4290      	cmp	r0, r2
 80041ba:	d00b      	beq.n	80041d4 <TIM_Base_SetConfig+0x90>
 80041bc:	f5a2 3298 	sub.w	r2, r2, #77824	; 0x13000
 80041c0:	4290      	cmp	r0, r2
 80041c2:	d007      	beq.n	80041d4 <TIM_Base_SetConfig+0x90>
 80041c4:	f502 6280 	add.w	r2, r2, #1024	; 0x400
 80041c8:	4290      	cmp	r0, r2
 80041ca:	d003      	beq.n	80041d4 <TIM_Base_SetConfig+0x90>
 80041cc:	f502 6280 	add.w	r2, r2, #1024	; 0x400
 80041d0:	4290      	cmp	r0, r2
 80041d2:	d103      	bne.n	80041dc <TIM_Base_SetConfig+0x98>
 80041d4:	f423 7340 	bic.w	r3, r3, #768	; 0x300
 80041d8:	68ca      	ldr	r2, [r1, #12]
 80041da:	4313      	orrs	r3, r2
 80041dc:	694a      	ldr	r2, [r1, #20]
 80041de:	f023 0380 	bic.w	r3, r3, #128	; 0x80
 80041e2:	4313      	orrs	r3, r2
 80041e4:	688a      	ldr	r2, [r1, #8]
 80041e6:	62c2      	str	r2, [r0, #44]	; 0x2c
 80041e8:	680a      	ldr	r2, [r1, #0]
 80041ea:	6282      	str	r2, [r0, #40]	; 0x28
 80041ec:	4a08      	ldr	r2, [pc, #32]	; (8004210 <TIM_Base_SetConfig+0xcc>)
 80041ee:	4290      	cmp	r0, r2
 80041f0:	d003      	beq.n	80041fa <TIM_Base_SetConfig+0xb6>
 80041f2:	f502 6280 	add.w	r2, r2, #1024	; 0x400
 80041f6:	4290      	cmp	r0, r2
 80041f8:	d101      	bne.n	80041fe <TIM_Base_SetConfig+0xba>
 80041fa:	690a      	ldr	r2, [r1, #16]
 80041fc:	6302      	str	r2, [r0, #48]	; 0x30
 80041fe:	6802      	ldr	r2, [r0, #0]
 8004200:	f042 0204 	orr.w	r2, r2, #4
 8004204:	6002      	str	r2, [r0, #0]
 8004206:	2201      	movs	r2, #1
 8004208:	6142      	str	r2, [r0, #20]
 800420a:	6003      	str	r3, [r0, #0]
 800420c:	4770      	bx	lr
 800420e:	bf00      	nop
 8004210:	40010000 	.word	0x40010000
 8004214:	40014000 	.word	0x40014000

08004218 <HAL_TIM_Base_Init>:
 8004218:	b510      	push	{r4, lr}
 800421a:	4604      	mov	r4, r0
 800421c:	b350      	cbz	r0, 8004274 <HAL_TIM_Base_Init+0x5c>
 800421e:	f890 303d 	ldrb.w	r3, [r0, #61]	; 0x3d
 8004222:	f003 02ff 	and.w	r2, r3, #255	; 0xff
 8004226:	b91b      	cbnz	r3, 8004230 <HAL_TIM_Base_Init+0x18>
 8004228:	f880 203c 	strb.w	r2, [r0, #60]	; 0x3c
 800422c:	f7fd fc24 	bl	8001a78 <HAL_TIM_Base_MspInit>
 8004230:	2302      	movs	r3, #2
 8004232:	6820      	ldr	r0, [r4, #0]
 8004234:	1d21      	adds	r1, r4, #4
 8004236:	f884 303d 	strb.w	r3, [r4, #61]	; 0x3d
 800423a:	f7ff ff83 	bl	8004144 <TIM_Base_SetConfig>
 800423e:	2301      	movs	r3, #1
 8004240:	2000      	movs	r0, #0
 8004242:	f884 3048 	strb.w	r3, [r4, #72]	; 0x48
 8004246:	f884 303e 	strb.w	r3, [r4, #62]	; 0x3e
 800424a:	f884 303f 	strb.w	r3, [r4, #63]	; 0x3f
 800424e:	f884 3040 	strb.w	r3, [r4, #64]	; 0x40
 8004252:	f884 3041 	strb.w	r3, [r4, #65]	; 0x41
 8004256:	f884 3042 	strb.w	r3, [r4, #66]	; 0x42
 800425a:	f884 3043 	strb.w	r3, [r4, #67]	; 0x43
 800425e:	f884 3044 	strb.w	r3, [r4, #68]	; 0x44
 8004262:	f884 3045 	strb.w	r3, [r4, #69]	; 0x45
 8004266:	f884 3046 	strb.w	r3, [r4, #70]	; 0x46
 800426a:	f884 3047 	strb.w	r3, [r4, #71]	; 0x47
 800426e:	f884 303d 	strb.w	r3, [r4, #61]	; 0x3d
 8004272:	bd10      	pop	{r4, pc}
 8004274:	2001      	movs	r0, #1
 8004276:	e7fc      	b.n	8004272 <HAL_TIM_Base_Init+0x5a>

08004278 <TIM_ETR_SetConfig>:
 8004278:	4311      	orrs	r1, r2
 800427a:	b510      	push	{r4, lr}
 800427c:	6884      	ldr	r4, [r0, #8]
 800427e:	ea41 2303 	orr.w	r3, r1, r3, lsl #8
 8004282:	f424 447f 	bic.w	r4, r4, #65280	; 0xff00
 8004286:	4323      	orrs	r3, r4
 8004288:	6083      	str	r3, [r0, #8]
 800428a:	bd10      	pop	{r4, pc}

0800428c <HAL_TIM_ConfigClockSource>:
 800428c:	b538      	push	{r3, r4, r5, lr}
 800428e:	f890 303c 	ldrb.w	r3, [r0, #60]	; 0x3c
 8004292:	4604      	mov	r4, r0
 8004294:	2b01      	cmp	r3, #1
 8004296:	f04f 0302 	mov.w	r3, #2
 800429a:	f000 808c 	beq.w	80043b6 <HAL_TIM_ConfigClockSource+0x12a>
 800429e:	2201      	movs	r2, #1
 80042a0:	f880 303d 	strb.w	r3, [r0, #61]	; 0x3d
 80042a4:	4b45      	ldr	r3, [pc, #276]	; (80043bc <HAL_TIM_ConfigClockSource+0x130>)
 80042a6:	f880 203c 	strb.w	r2, [r0, #60]	; 0x3c
 80042aa:	6800      	ldr	r0, [r0, #0]
 80042ac:	6885      	ldr	r5, [r0, #8]
 80042ae:	402b      	ands	r3, r5
 80042b0:	6083      	str	r3, [r0, #8]
 80042b2:	680b      	ldr	r3, [r1, #0]
 80042b4:	2b60      	cmp	r3, #96	; 0x60
 80042b6:	d04f      	beq.n	8004358 <HAL_TIM_ConfigClockSource+0xcc>
 80042b8:	d832      	bhi.n	8004320 <HAL_TIM_ConfigClockSource+0x94>
 80042ba:	2b40      	cmp	r3, #64	; 0x40
 80042bc:	d064      	beq.n	8004388 <HAL_TIM_ConfigClockSource+0xfc>
 80042be:	d816      	bhi.n	80042ee <HAL_TIM_ConfigClockSource+0x62>
 80042c0:	2b20      	cmp	r3, #32
 80042c2:	d00d      	beq.n	80042e0 <HAL_TIM_ConfigClockSource+0x54>
 80042c4:	d80a      	bhi.n	80042dc <HAL_TIM_ConfigClockSource+0x50>
 80042c6:	f033 0110 	bics.w	r1, r3, #16
 80042ca:	d009      	beq.n	80042e0 <HAL_TIM_ConfigClockSource+0x54>
 80042cc:	2301      	movs	r3, #1
 80042ce:	f884 303d 	strb.w	r3, [r4, #61]	; 0x3d
 80042d2:	2300      	movs	r3, #0
 80042d4:	f884 303c 	strb.w	r3, [r4, #60]	; 0x3c
 80042d8:	4610      	mov	r0, r2
 80042da:	bd38      	pop	{r3, r4, r5, pc}
 80042dc:	2b30      	cmp	r3, #48	; 0x30
 80042de:	d1f5      	bne.n	80042cc <HAL_TIM_ConfigClockSource+0x40>
 80042e0:	6882      	ldr	r2, [r0, #8]
 80042e2:	f022 0270 	bic.w	r2, r2, #112	; 0x70
 80042e6:	4313      	orrs	r3, r2
 80042e8:	f043 0307 	orr.w	r3, r3, #7
 80042ec:	e028      	b.n	8004340 <HAL_TIM_ConfigClockSource+0xb4>
 80042ee:	2b50      	cmp	r3, #80	; 0x50
 80042f0:	d1ec      	bne.n	80042cc <HAL_TIM_ConfigClockSource+0x40>
 80042f2:	684a      	ldr	r2, [r1, #4]
 80042f4:	68cd      	ldr	r5, [r1, #12]
 80042f6:	6a01      	ldr	r1, [r0, #32]
 80042f8:	6a03      	ldr	r3, [r0, #32]
 80042fa:	f021 010a 	bic.w	r1, r1, #10
 80042fe:	f023 0301 	bic.w	r3, r3, #1
 8004302:	430a      	orrs	r2, r1
 8004304:	6203      	str	r3, [r0, #32]
 8004306:	6983      	ldr	r3, [r0, #24]
 8004308:	f023 03f0 	bic.w	r3, r3, #240	; 0xf0
 800430c:	ea43 1305 	orr.w	r3, r3, r5, lsl #4
 8004310:	6183      	str	r3, [r0, #24]
 8004312:	6202      	str	r2, [r0, #32]
 8004314:	6883      	ldr	r3, [r0, #8]
 8004316:	f023 0370 	bic.w	r3, r3, #112	; 0x70
 800431a:	f043 0357 	orr.w	r3, r3, #87	; 0x57
 800431e:	e00f      	b.n	8004340 <HAL_TIM_ConfigClockSource+0xb4>
 8004320:	f5b3 5f80 	cmp.w	r3, #4096	; 0x1000
 8004324:	d00d      	beq.n	8004342 <HAL_TIM_ConfigClockSource+0xb6>
 8004326:	f5b3 5f00 	cmp.w	r3, #8192	; 0x2000
 800432a:	d00c      	beq.n	8004346 <HAL_TIM_ConfigClockSource+0xba>
 800432c:	2b70      	cmp	r3, #112	; 0x70
 800432e:	d1cd      	bne.n	80042cc <HAL_TIM_ConfigClockSource+0x40>
 8004330:	68cb      	ldr	r3, [r1, #12]
 8004332:	e9d1 2101 	ldrd	r2, r1, [r1, #4]
 8004336:	f7ff ff9f 	bl	8004278 <TIM_ETR_SetConfig>
 800433a:	6883      	ldr	r3, [r0, #8]
 800433c:	f043 0377 	orr.w	r3, r3, #119	; 0x77
 8004340:	6083      	str	r3, [r0, #8]
 8004342:	2200      	movs	r2, #0
 8004344:	e7c2      	b.n	80042cc <HAL_TIM_ConfigClockSource+0x40>
 8004346:	68cb      	ldr	r3, [r1, #12]
 8004348:	e9d1 2101 	ldrd	r2, r1, [r1, #4]
 800434c:	f7ff ff94 	bl	8004278 <TIM_ETR_SetConfig>
 8004350:	6883      	ldr	r3, [r0, #8]
 8004352:	f443 4380 	orr.w	r3, r3, #16384	; 0x4000
 8004356:	e7f3      	b.n	8004340 <HAL_TIM_ConfigClockSource+0xb4>
 8004358:	6a03      	ldr	r3, [r0, #32]
 800435a:	6a02      	ldr	r2, [r0, #32]
 800435c:	684d      	ldr	r5, [r1, #4]
 800435e:	f023 03a0 	bic.w	r3, r3, #160	; 0xa0
 8004362:	f022 0210 	bic.w	r2, r2, #16
 8004366:	68c9      	ldr	r1, [r1, #12]
 8004368:	ea43 1305 	orr.w	r3, r3, r5, lsl #4
 800436c:	6202      	str	r2, [r0, #32]
 800436e:	6982      	ldr	r2, [r0, #24]
 8004370:	f422 4270 	bic.w	r2, r2, #61440	; 0xf000
 8004374:	ea42 3201 	orr.w	r2, r2, r1, lsl #12
 8004378:	6182      	str	r2, [r0, #24]
 800437a:	6203      	str	r3, [r0, #32]
 800437c:	6883      	ldr	r3, [r0, #8]
 800437e:	f023 0370 	bic.w	r3, r3, #112	; 0x70
 8004382:	f043 0367 	orr.w	r3, r3, #103	; 0x67
 8004386:	e7db      	b.n	8004340 <HAL_TIM_ConfigClockSource+0xb4>
 8004388:	684a      	ldr	r2, [r1, #4]
 800438a:	68cd      	ldr	r5, [r1, #12]
 800438c:	6a01      	ldr	r1, [r0, #32]
 800438e:	6a03      	ldr	r3, [r0, #32]
 8004390:	f021 010a 	bic.w	r1, r1, #10
 8004394:	f023 0301 	bic.w	r3, r3, #1
 8004398:	430a      	orrs	r2, r1
 800439a:	6203      	str	r3, [r0, #32]
 800439c:	6983      	ldr	r3, [r0, #24]
 800439e:	f023 03f0 	bic.w	r3, r3, #240	; 0xf0
 80043a2:	ea43 1305 	orr.w	r3, r3, r5, lsl #4
 80043a6:	6183      	str	r3, [r0, #24]
 80043a8:	6202      	str	r2, [r0, #32]
 80043aa:	6883      	ldr	r3, [r0, #8]
 80043ac:	f023 0370 	bic.w	r3, r3, #112	; 0x70
 80043b0:	f043 0347 	orr.w	r3, r3, #71	; 0x47
 80043b4:	e7c4      	b.n	8004340 <HAL_TIM_ConfigClockSource+0xb4>
 80043b6:	461a      	mov	r2, r3
 80043b8:	e78e      	b.n	80042d8 <HAL_TIM_ConfigClockSource+0x4c>
 80043ba:	bf00      	nop
 80043bc:	fffe0088 	.word	0xfffe0088

080043c0 <HAL_TIMEx_MasterConfigSynchronization>:
 80043c0:	b570      	push	{r4, r5, r6, lr}
 80043c2:	f890 303c 	ldrb.w	r3, [r0, #60]	; 0x3c
 80043c6:	2b01      	cmp	r3, #1
 80043c8:	f04f 0302 	mov.w	r3, #2
 80043cc:	d03b      	beq.n	8004446 <HAL_TIMEx_MasterConfigSynchronization+0x86>
 80043ce:	f880 303d 	strb.w	r3, [r0, #61]	; 0x3d
 80043d2:	4d1e      	ldr	r5, [pc, #120]	; (800444c <HAL_TIMEx_MasterConfigSynchronization+0x8c>)
 80043d4:	6803      	ldr	r3, [r0, #0]
 80043d6:	42ab      	cmp	r3, r5
 80043d8:	685a      	ldr	r2, [r3, #4]
 80043da:	689c      	ldr	r4, [r3, #8]
 80043dc:	d002      	beq.n	80043e4 <HAL_TIMEx_MasterConfigSynchronization+0x24>
 80043de:	4e1c      	ldr	r6, [pc, #112]	; (8004450 <HAL_TIMEx_MasterConfigSynchronization+0x90>)
 80043e0:	42b3      	cmp	r3, r6
 80043e2:	d103      	bne.n	80043ec <HAL_TIMEx_MasterConfigSynchronization+0x2c>
 80043e4:	f422 0270 	bic.w	r2, r2, #15728640	; 0xf00000
 80043e8:	684e      	ldr	r6, [r1, #4]
 80043ea:	4332      	orrs	r2, r6
 80043ec:	680e      	ldr	r6, [r1, #0]
 80043ee:	f022 0270 	bic.w	r2, r2, #112	; 0x70
 80043f2:	42ab      	cmp	r3, r5
 80043f4:	ea42 0206 	orr.w	r2, r2, r6
 80043f8:	605a      	str	r2, [r3, #4]
 80043fa:	d019      	beq.n	8004430 <HAL_TIMEx_MasterConfigSynchronization+0x70>
 80043fc:	f1b3 4f80 	cmp.w	r3, #1073741824	; 0x40000000
 8004400:	d016      	beq.n	8004430 <HAL_TIMEx_MasterConfigSynchronization+0x70>
 8004402:	4a14      	ldr	r2, [pc, #80]	; (8004454 <HAL_TIMEx_MasterConfigSynchronization+0x94>)
 8004404:	4293      	cmp	r3, r2
 8004406:	d013      	beq.n	8004430 <HAL_TIMEx_MasterConfigSynchronization+0x70>
 8004408:	f502 6280 	add.w	r2, r2, #1024	; 0x400
 800440c:	4293      	cmp	r3, r2
 800440e:	d00f      	beq.n	8004430 <HAL_TIMEx_MasterConfigSynchronization+0x70>
 8004410:	f502 6280 	add.w	r2, r2, #1024	; 0x400
 8004414:	4293      	cmp	r3, r2
 8004416:	d00b      	beq.n	8004430 <HAL_TIMEx_MasterConfigSynchronization+0x70>
 8004418:	f502 4278 	add.w	r2, r2, #63488	; 0xf800
 800441c:	4293      	cmp	r3, r2
 800441e:	d007      	beq.n	8004430 <HAL_TIMEx_MasterConfigSynchronization+0x70>
 8004420:	f502 5270 	add.w	r2, r2, #15360	; 0x3c00
 8004424:	4293      	cmp	r3, r2
 8004426:	d003      	beq.n	8004430 <HAL_TIMEx_MasterConfigSynchronization+0x70>
 8004428:	f5a2 3294 	sub.w	r2, r2, #75776	; 0x12800
 800442c:	4293      	cmp	r3, r2
 800442e:	d104      	bne.n	800443a <HAL_TIMEx_MasterConfigSynchronization+0x7a>
 8004430:	6889      	ldr	r1, [r1, #8]
 8004432:	f024 0280 	bic.w	r2, r4, #128	; 0x80
 8004436:	430a      	orrs	r2, r1
 8004438:	609a      	str	r2, [r3, #8]
 800443a:	2301      	movs	r3, #1
 800443c:	f880 303d 	strb.w	r3, [r0, #61]	; 0x3d
 8004440:	2300      	movs	r3, #0
 8004442:	f880 303c 	strb.w	r3, [r0, #60]	; 0x3c
 8004446:	4618      	mov	r0, r3
 8004448:	bd70      	pop	{r4, r5, r6, pc}
 800444a:	bf00      	nop
 800444c:	40010000 	.word	0x40010000
 8004450:	40010400 	.word	0x40010400
 8004454:	40000400 	.word	0x40000400

08004458 <HAL_TIMEx_CommutCallback>:
 8004458:	4770      	bx	lr

0800445a <HAL_TIMEx_BreakCallback>:
 800445a:	4770      	bx	lr

0800445c <HAL_TIMEx_Break2Callback>:
 800445c:	4770      	bx	lr

0800445e <UART_EndRxTransfer>:
 800445e:	6802      	ldr	r2, [r0, #0]
 8004460:	e852 3f00 	ldrex	r3, [r2]
 8004464:	f423 7390 	bic.w	r3, r3, #288	; 0x120
 8004468:	e842 3100 	strex	r1, r3, [r2]
 800446c:	6802      	ldr	r2, [r0, #0]
 800446e:	2900      	cmp	r1, #0
 8004470:	d1f5      	bne.n	800445e <UART_EndRxTransfer>
 8004472:	f102 0308 	add.w	r3, r2, #8
 8004476:	e853 3f00 	ldrex	r3, [r3]
 800447a:	f023 0301 	bic.w	r3, r3, #1
 800447e:	f102 0c08 	add.w	ip, r2, #8
 8004482:	e84c 3100 	strex	r1, r3, [ip]
 8004486:	2900      	cmp	r1, #0
 8004488:	d1f3      	bne.n	8004472 <UART_EndRxTransfer+0x14>
 800448a:	6e03      	ldr	r3, [r0, #96]	; 0x60
 800448c:	2b01      	cmp	r3, #1
 800448e:	d107      	bne.n	80044a0 <UART_EndRxTransfer+0x42>
 8004490:	e852 3f00 	ldrex	r3, [r2]
 8004494:	f023 0310 	bic.w	r3, r3, #16
 8004498:	e842 3100 	strex	r1, r3, [r2]
 800449c:	2900      	cmp	r1, #0
 800449e:	d1f7      	bne.n	8004490 <UART_EndRxTransfer+0x32>
 80044a0:	2320      	movs	r3, #32
 80044a2:	f8c0 3080 	str.w	r3, [r0, #128]	; 0x80
 80044a6:	2300      	movs	r3, #0
 80044a8:	6603      	str	r3, [r0, #96]	; 0x60
 80044aa:	6683      	str	r3, [r0, #104]	; 0x68
 80044ac:	4770      	bx	lr

080044ae <UART_TxISR_16BIT.part.0>:
 80044ae:	6802      	ldr	r2, [r0, #0]
 80044b0:	e852 3f00 	ldrex	r3, [r2]
 80044b4:	f023 0380 	bic.w	r3, r3, #128	; 0x80
 80044b8:	e842 3100 	strex	r1, r3, [r2]
 80044bc:	6802      	ldr	r2, [r0, #0]
 80044be:	2900      	cmp	r1, #0
 80044c0:	d1f5      	bne.n	80044ae <UART_TxISR_16BIT.part.0>
 80044c2:	e852 3f00 	ldrex	r3, [r2]
 80044c6:	f043 0340 	orr.w	r3, r3, #64	; 0x40
 80044ca:	e842 3100 	strex	r1, r3, [r2]
 80044ce:	2900      	cmp	r1, #0
 80044d0:	d1f7      	bne.n	80044c2 <UART_TxISR_16BIT.part.0+0x14>
 80044d2:	4770      	bx	lr

080044d4 <UART_TxISR_8BIT>:
 80044d4:	6fc2      	ldr	r2, [r0, #124]	; 0x7c
 80044d6:	4603      	mov	r3, r0
 80044d8:	2a21      	cmp	r2, #33	; 0x21
 80044da:	d111      	bne.n	8004500 <UART_TxISR_8BIT+0x2c>
 80044dc:	f8b0 2052 	ldrh.w	r2, [r0, #82]	; 0x52
 80044e0:	b292      	uxth	r2, r2
 80044e2:	b90a      	cbnz	r2, 80044e8 <UART_TxISR_8BIT+0x14>
 80044e4:	f7ff bfe3 	b.w	80044ae <UART_TxISR_16BIT.part.0>
 80044e8:	6cc2      	ldr	r2, [r0, #76]	; 0x4c
 80044ea:	6801      	ldr	r1, [r0, #0]
 80044ec:	f812 0b01 	ldrb.w	r0, [r2], #1
 80044f0:	6288      	str	r0, [r1, #40]	; 0x28
 80044f2:	64da      	str	r2, [r3, #76]	; 0x4c
 80044f4:	f8b3 2052 	ldrh.w	r2, [r3, #82]	; 0x52
 80044f8:	3a01      	subs	r2, #1
 80044fa:	b292      	uxth	r2, r2
 80044fc:	f8a3 2052 	strh.w	r2, [r3, #82]	; 0x52
 8004500:	4770      	bx	lr

08004502 <UART_TxISR_16BIT>:
 8004502:	6fc2      	ldr	r2, [r0, #124]	; 0x7c
 8004504:	4603      	mov	r3, r0
 8004506:	2a21      	cmp	r2, #33	; 0x21
 8004508:	d113      	bne.n	8004532 <UART_TxISR_16BIT+0x30>
 800450a:	f8b0 2052 	ldrh.w	r2, [r0, #82]	; 0x52
 800450e:	b292      	uxth	r2, r2
 8004510:	b90a      	cbnz	r2, 8004516 <UART_TxISR_16BIT+0x14>
 8004512:	f7ff bfcc 	b.w	80044ae <UART_TxISR_16BIT.part.0>
 8004516:	6cda      	ldr	r2, [r3, #76]	; 0x4c
 8004518:	6800      	ldr	r0, [r0, #0]
 800451a:	f832 1b02 	ldrh.w	r1, [r2], #2
 800451e:	f3c1 0108 	ubfx	r1, r1, #0, #9
 8004522:	6281      	str	r1, [r0, #40]	; 0x28
 8004524:	64da      	str	r2, [r3, #76]	; 0x4c
 8004526:	f8b3 2052 	ldrh.w	r2, [r3, #82]	; 0x52
 800452a:	3a01      	subs	r2, #1
 800452c:	b292      	uxth	r2, r2
 800452e:	f8a3 2052 	strh.w	r2, [r3, #82]	; 0x52
 8004532:	4770      	bx	lr

08004534 <HAL_UART_Transmit_IT>:
 8004534:	6fc3      	ldr	r3, [r0, #124]	; 0x7c
 8004536:	2b20      	cmp	r3, #32
 8004538:	d123      	bne.n	8004582 <HAL_UART_Transmit_IT+0x4e>
 800453a:	b321      	cbz	r1, 8004586 <HAL_UART_Transmit_IT+0x52>
 800453c:	b31a      	cbz	r2, 8004586 <HAL_UART_Transmit_IT+0x52>
 800453e:	2300      	movs	r3, #0
 8004540:	f8a0 2052 	strh.w	r2, [r0, #82]	; 0x52
 8004544:	64c1      	str	r1, [r0, #76]	; 0x4c
 8004546:	f8c0 3084 	str.w	r3, [r0, #132]	; 0x84
 800454a:	2321      	movs	r3, #33	; 0x21
 800454c:	f8a0 2050 	strh.w	r2, [r0, #80]	; 0x50
 8004550:	67c3      	str	r3, [r0, #124]	; 0x7c
 8004552:	6883      	ldr	r3, [r0, #8]
 8004554:	f5b3 5f80 	cmp.w	r3, #4096	; 0x1000
 8004558:	d111      	bne.n	800457e <HAL_UART_Transmit_IT+0x4a>
 800455a:	6901      	ldr	r1, [r0, #16]
 800455c:	4b0b      	ldr	r3, [pc, #44]	; (800458c <HAL_UART_Transmit_IT+0x58>)
 800455e:	4a0c      	ldr	r2, [pc, #48]	; (8004590 <HAL_UART_Transmit_IT+0x5c>)
 8004560:	2900      	cmp	r1, #0
 8004562:	bf08      	it	eq
 8004564:	4613      	moveq	r3, r2
 8004566:	66c3      	str	r3, [r0, #108]	; 0x6c
 8004568:	6801      	ldr	r1, [r0, #0]
 800456a:	e851 2f00 	ldrex	r2, [r1]
 800456e:	f042 0280 	orr.w	r2, r2, #128	; 0x80
 8004572:	e841 2300 	strex	r3, r2, [r1]
 8004576:	2b00      	cmp	r3, #0
 8004578:	d1f6      	bne.n	8004568 <HAL_UART_Transmit_IT+0x34>
 800457a:	4618      	mov	r0, r3
 800457c:	4770      	bx	lr
 800457e:	4b03      	ldr	r3, [pc, #12]	; (800458c <HAL_UART_Transmit_IT+0x58>)
 8004580:	e7f1      	b.n	8004566 <HAL_UART_Transmit_IT+0x32>
 8004582:	2002      	movs	r0, #2
 8004584:	4770      	bx	lr
 8004586:	2001      	movs	r0, #1
 8004588:	4770      	bx	lr
 800458a:	bf00      	nop
 800458c:	080044d5 	.word	0x080044d5
 8004590:	08004503 	.word	0x08004503

08004594 <HAL_UART_ErrorCallback>:
 8004594:	4770      	bx	lr

08004596 <UART_DMAAbortOnError>:
 8004596:	b508      	push	{r3, lr}
 8004598:	6b80      	ldr	r0, [r0, #56]	; 0x38
 800459a:	2300      	movs	r3, #0
 800459c:	f8a0 305a 	strh.w	r3, [r0, #90]	; 0x5a
 80045a0:	f7ff fff8 	bl	8004594 <HAL_UART_ErrorCallback>
 80045a4:	bd08      	pop	{r3, pc}

080045a6 <HAL_UARTEx_RxEventCallback>:
 80045a6:	4770      	bx	lr

080045a8 <HAL_UARTEx_WakeupCallback>:
 80045a8:	4770      	bx	lr
	...

080045ac <HAL_UART_IRQHandler>:
 80045ac:	6803      	ldr	r3, [r0, #0]
 80045ae:	b570      	push	{r4, r5, r6, lr}
 80045b0:	69da      	ldr	r2, [r3, #28]
 80045b2:	f640 060f 	movw	r6, #2063	; 0x80f
 80045b6:	6819      	ldr	r1, [r3, #0]
 80045b8:	4604      	mov	r4, r0
 80045ba:	4232      	tst	r2, r6
 80045bc:	689d      	ldr	r5, [r3, #8]
 80045be:	d10b      	bne.n	80045d8 <HAL_UART_IRQHandler+0x2c>
 80045c0:	0696      	lsls	r6, r2, #26
 80045c2:	f140 8088 	bpl.w	80046d6 <HAL_UART_IRQHandler+0x12a>
 80045c6:	068e      	lsls	r6, r1, #26
 80045c8:	f140 8085 	bpl.w	80046d6 <HAL_UART_IRQHandler+0x12a>
 80045cc:	6e83      	ldr	r3, [r0, #104]	; 0x68
 80045ce:	2b00      	cmp	r3, #0
 80045d0:	d07b      	beq.n	80046ca <HAL_UART_IRQHandler+0x11e>
 80045d2:	e8bd 4070 	ldmia.w	sp!, {r4, r5, r6, lr}
 80045d6:	4718      	bx	r3
 80045d8:	4e9c      	ldr	r6, [pc, #624]	; (800484c <HAL_UART_IRQHandler+0x2a0>)
 80045da:	f005 0001 	and.w	r0, r5, #1
 80045de:	400e      	ands	r6, r1
 80045e0:	4306      	orrs	r6, r0
 80045e2:	d078      	beq.n	80046d6 <HAL_UART_IRQHandler+0x12a>
 80045e4:	07d5      	lsls	r5, r2, #31
 80045e6:	d509      	bpl.n	80045fc <HAL_UART_IRQHandler+0x50>
 80045e8:	05ce      	lsls	r6, r1, #23
 80045ea:	d507      	bpl.n	80045fc <HAL_UART_IRQHandler+0x50>
 80045ec:	2501      	movs	r5, #1
 80045ee:	621d      	str	r5, [r3, #32]
 80045f0:	f8d4 5084 	ldr.w	r5, [r4, #132]	; 0x84
 80045f4:	f045 0501 	orr.w	r5, r5, #1
 80045f8:	f8c4 5084 	str.w	r5, [r4, #132]	; 0x84
 80045fc:	0795      	lsls	r5, r2, #30
 80045fe:	d508      	bpl.n	8004612 <HAL_UART_IRQHandler+0x66>
 8004600:	b138      	cbz	r0, 8004612 <HAL_UART_IRQHandler+0x66>
 8004602:	2502      	movs	r5, #2
 8004604:	621d      	str	r5, [r3, #32]
 8004606:	f8d4 5084 	ldr.w	r5, [r4, #132]	; 0x84
 800460a:	f045 0504 	orr.w	r5, r5, #4
 800460e:	f8c4 5084 	str.w	r5, [r4, #132]	; 0x84
 8004612:	0756      	lsls	r6, r2, #29
 8004614:	d508      	bpl.n	8004628 <HAL_UART_IRQHandler+0x7c>
 8004616:	b138      	cbz	r0, 8004628 <HAL_UART_IRQHandler+0x7c>
 8004618:	2504      	movs	r5, #4
 800461a:	621d      	str	r5, [r3, #32]
 800461c:	f8d4 5084 	ldr.w	r5, [r4, #132]	; 0x84
 8004620:	f045 0502 	orr.w	r5, r5, #2
 8004624:	f8c4 5084 	str.w	r5, [r4, #132]	; 0x84
 8004628:	0715      	lsls	r5, r2, #28
 800462a:	d50b      	bpl.n	8004644 <HAL_UART_IRQHandler+0x98>
 800462c:	f001 0520 	and.w	r5, r1, #32
 8004630:	4305      	orrs	r5, r0
 8004632:	d007      	beq.n	8004644 <HAL_UART_IRQHandler+0x98>
 8004634:	2008      	movs	r0, #8
 8004636:	6218      	str	r0, [r3, #32]
 8004638:	f8d4 0084 	ldr.w	r0, [r4, #132]	; 0x84
 800463c:	f040 0008 	orr.w	r0, r0, #8
 8004640:	f8c4 0084 	str.w	r0, [r4, #132]	; 0x84
 8004644:	0516      	lsls	r6, r2, #20
 8004646:	d50a      	bpl.n	800465e <HAL_UART_IRQHandler+0xb2>
 8004648:	014d      	lsls	r5, r1, #5
 800464a:	d508      	bpl.n	800465e <HAL_UART_IRQHandler+0xb2>
 800464c:	f44f 6000 	mov.w	r0, #2048	; 0x800
 8004650:	6218      	str	r0, [r3, #32]
 8004652:	f8d4 3084 	ldr.w	r3, [r4, #132]	; 0x84
 8004656:	f043 0320 	orr.w	r3, r3, #32
 800465a:	f8c4 3084 	str.w	r3, [r4, #132]	; 0x84
 800465e:	f8d4 3084 	ldr.w	r3, [r4, #132]	; 0x84
 8004662:	2b00      	cmp	r3, #0
 8004664:	d031      	beq.n	80046ca <HAL_UART_IRQHandler+0x11e>
 8004666:	0690      	lsls	r0, r2, #26
 8004668:	d505      	bpl.n	8004676 <HAL_UART_IRQHandler+0xca>
 800466a:	068a      	lsls	r2, r1, #26
 800466c:	d503      	bpl.n	8004676 <HAL_UART_IRQHandler+0xca>
 800466e:	6ea3      	ldr	r3, [r4, #104]	; 0x68
 8004670:	b10b      	cbz	r3, 8004676 <HAL_UART_IRQHandler+0xca>
 8004672:	4620      	mov	r0, r4
 8004674:	4798      	blx	r3
 8004676:	6826      	ldr	r6, [r4, #0]
 8004678:	4620      	mov	r0, r4
 800467a:	f8d4 2084 	ldr.w	r2, [r4, #132]	; 0x84
 800467e:	68b3      	ldr	r3, [r6, #8]
 8004680:	f002 0228 	and.w	r2, r2, #40	; 0x28
 8004684:	f003 0340 	and.w	r3, r3, #64	; 0x40
 8004688:	ea53 0502 	orrs.w	r5, r3, r2
 800468c:	d01e      	beq.n	80046cc <HAL_UART_IRQHandler+0x120>
 800468e:	f7ff fee6 	bl	800445e <UART_EndRxTransfer>
 8004692:	68b3      	ldr	r3, [r6, #8]
 8004694:	065b      	lsls	r3, r3, #25
 8004696:	d515      	bpl.n	80046c4 <HAL_UART_IRQHandler+0x118>
 8004698:	6822      	ldr	r2, [r4, #0]
 800469a:	f102 0308 	add.w	r3, r2, #8
 800469e:	e853 3f00 	ldrex	r3, [r3]
 80046a2:	f023 0340 	bic.w	r3, r3, #64	; 0x40
 80046a6:	3208      	adds	r2, #8
 80046a8:	e842 3100 	strex	r1, r3, [r2]
 80046ac:	2900      	cmp	r1, #0
 80046ae:	d1f3      	bne.n	8004698 <HAL_UART_IRQHandler+0xec>
 80046b0:	6f60      	ldr	r0, [r4, #116]	; 0x74
 80046b2:	b138      	cbz	r0, 80046c4 <HAL_UART_IRQHandler+0x118>
 80046b4:	4b66      	ldr	r3, [pc, #408]	; (8004850 <HAL_UART_IRQHandler+0x2a4>)
 80046b6:	6503      	str	r3, [r0, #80]	; 0x50
 80046b8:	f7fd ff72 	bl	80025a0 <HAL_DMA_Abort_IT>
 80046bc:	b128      	cbz	r0, 80046ca <HAL_UART_IRQHandler+0x11e>
 80046be:	6f60      	ldr	r0, [r4, #116]	; 0x74
 80046c0:	6d03      	ldr	r3, [r0, #80]	; 0x50
 80046c2:	e786      	b.n	80045d2 <HAL_UART_IRQHandler+0x26>
 80046c4:	4620      	mov	r0, r4
 80046c6:	f7ff ff65 	bl	8004594 <HAL_UART_ErrorCallback>
 80046ca:	bd70      	pop	{r4, r5, r6, pc}
 80046cc:	f7ff ff62 	bl	8004594 <HAL_UART_ErrorCallback>
 80046d0:	f8c4 5084 	str.w	r5, [r4, #132]	; 0x84
 80046d4:	e7f9      	b.n	80046ca <HAL_UART_IRQHandler+0x11e>
 80046d6:	6e20      	ldr	r0, [r4, #96]	; 0x60
 80046d8:	2801      	cmp	r0, #1
 80046da:	f040 808d 	bne.w	80047f8 <HAL_UART_IRQHandler+0x24c>
 80046de:	06d6      	lsls	r6, r2, #27
 80046e0:	f140 808a 	bpl.w	80047f8 <HAL_UART_IRQHandler+0x24c>
 80046e4:	06c8      	lsls	r0, r1, #27
 80046e6:	f140 8087 	bpl.w	80047f8 <HAL_UART_IRQHandler+0x24c>
 80046ea:	2210      	movs	r2, #16
 80046ec:	621a      	str	r2, [r3, #32]
 80046ee:	6899      	ldr	r1, [r3, #8]
 80046f0:	f8b4 2058 	ldrh.w	r2, [r4, #88]	; 0x58
 80046f4:	0649      	lsls	r1, r1, #25
 80046f6:	d551      	bpl.n	800479c <HAL_UART_IRQHandler+0x1f0>
 80046f8:	6f60      	ldr	r0, [r4, #116]	; 0x74
 80046fa:	6801      	ldr	r1, [r0, #0]
 80046fc:	6849      	ldr	r1, [r1, #4]
 80046fe:	b289      	uxth	r1, r1
 8004700:	2900      	cmp	r1, #0
 8004702:	d042      	beq.n	800478a <HAL_UART_IRQHandler+0x1de>
 8004704:	4291      	cmp	r1, r2
 8004706:	d240      	bcs.n	800478a <HAL_UART_IRQHandler+0x1de>
 8004708:	69c2      	ldr	r2, [r0, #28]
 800470a:	f8a4 105a 	strh.w	r1, [r4, #90]	; 0x5a
 800470e:	f5b2 7f80 	cmp.w	r2, #256	; 0x100
 8004712:	d02e      	beq.n	8004772 <HAL_UART_IRQHandler+0x1c6>
 8004714:	e853 2f00 	ldrex	r2, [r3]
 8004718:	f422 7280 	bic.w	r2, r2, #256	; 0x100
 800471c:	e843 2100 	strex	r1, r2, [r3]
 8004720:	2900      	cmp	r1, #0
 8004722:	d1f7      	bne.n	8004714 <HAL_UART_IRQHandler+0x168>
 8004724:	f103 0208 	add.w	r2, r3, #8
 8004728:	e852 2f00 	ldrex	r2, [r2]
 800472c:	f022 0201 	bic.w	r2, r2, #1
 8004730:	f103 0008 	add.w	r0, r3, #8
 8004734:	e840 2100 	strex	r1, r2, [r0]
 8004738:	2900      	cmp	r1, #0
 800473a:	d1f3      	bne.n	8004724 <HAL_UART_IRQHandler+0x178>
 800473c:	f103 0208 	add.w	r2, r3, #8
 8004740:	e852 2f00 	ldrex	r2, [r2]
 8004744:	f022 0240 	bic.w	r2, r2, #64	; 0x40
 8004748:	f103 0008 	add.w	r0, r3, #8
 800474c:	e840 2100 	strex	r1, r2, [r0]
 8004750:	2900      	cmp	r1, #0
 8004752:	d1f3      	bne.n	800473c <HAL_UART_IRQHandler+0x190>
 8004754:	2220      	movs	r2, #32
 8004756:	f8c4 2080 	str.w	r2, [r4, #128]	; 0x80
 800475a:	6621      	str	r1, [r4, #96]	; 0x60
 800475c:	e853 2f00 	ldrex	r2, [r3]
 8004760:	f022 0210 	bic.w	r2, r2, #16
 8004764:	e843 2100 	strex	r1, r2, [r3]
 8004768:	2900      	cmp	r1, #0
 800476a:	d1f7      	bne.n	800475c <HAL_UART_IRQHandler+0x1b0>
 800476c:	6f60      	ldr	r0, [r4, #116]	; 0x74
 800476e:	f7fd fed8 	bl	8002522 <HAL_DMA_Abort>
 8004772:	2302      	movs	r3, #2
 8004774:	f8b4 1058 	ldrh.w	r1, [r4, #88]	; 0x58
 8004778:	6663      	str	r3, [r4, #100]	; 0x64
 800477a:	f8b4 305a 	ldrh.w	r3, [r4, #90]	; 0x5a
 800477e:	1ac9      	subs	r1, r1, r3
 8004780:	b289      	uxth	r1, r1
 8004782:	4620      	mov	r0, r4
 8004784:	f7ff ff0f 	bl	80045a6 <HAL_UARTEx_RxEventCallback>
 8004788:	e79f      	b.n	80046ca <HAL_UART_IRQHandler+0x11e>
 800478a:	4291      	cmp	r1, r2
 800478c:	d19d      	bne.n	80046ca <HAL_UART_IRQHandler+0x11e>
 800478e:	69c3      	ldr	r3, [r0, #28]
 8004790:	f5b3 7f80 	cmp.w	r3, #256	; 0x100
 8004794:	d199      	bne.n	80046ca <HAL_UART_IRQHandler+0x11e>
 8004796:	2302      	movs	r3, #2
 8004798:	6663      	str	r3, [r4, #100]	; 0x64
 800479a:	e7f2      	b.n	8004782 <HAL_UART_IRQHandler+0x1d6>
 800479c:	f8b4 105a 	ldrh.w	r1, [r4, #90]	; 0x5a
 80047a0:	f8b4 005a 	ldrh.w	r0, [r4, #90]	; 0x5a
 80047a4:	b289      	uxth	r1, r1
 80047a6:	b280      	uxth	r0, r0
 80047a8:	2800      	cmp	r0, #0
 80047aa:	d08e      	beq.n	80046ca <HAL_UART_IRQHandler+0x11e>
 80047ac:	1a51      	subs	r1, r2, r1
 80047ae:	b289      	uxth	r1, r1
 80047b0:	2900      	cmp	r1, #0
 80047b2:	d08a      	beq.n	80046ca <HAL_UART_IRQHandler+0x11e>
 80047b4:	e853 2f00 	ldrex	r2, [r3]
 80047b8:	f422 7290 	bic.w	r2, r2, #288	; 0x120
 80047bc:	e843 2000 	strex	r0, r2, [r3]
 80047c0:	2800      	cmp	r0, #0
 80047c2:	d1f7      	bne.n	80047b4 <HAL_UART_IRQHandler+0x208>
 80047c4:	f103 0208 	add.w	r2, r3, #8
 80047c8:	e852 2f00 	ldrex	r2, [r2]
 80047cc:	f022 0201 	bic.w	r2, r2, #1
 80047d0:	f103 0508 	add.w	r5, r3, #8
 80047d4:	e845 2000 	strex	r0, r2, [r5]
 80047d8:	2800      	cmp	r0, #0
 80047da:	d1f3      	bne.n	80047c4 <HAL_UART_IRQHandler+0x218>
 80047dc:	2220      	movs	r2, #32
 80047de:	66a0      	str	r0, [r4, #104]	; 0x68
 80047e0:	f8c4 2080 	str.w	r2, [r4, #128]	; 0x80
 80047e4:	6620      	str	r0, [r4, #96]	; 0x60
 80047e6:	e853 2f00 	ldrex	r2, [r3]
 80047ea:	f022 0210 	bic.w	r2, r2, #16
 80047ee:	e843 2000 	strex	r0, r2, [r3]
 80047f2:	2800      	cmp	r0, #0
 80047f4:	d1f7      	bne.n	80047e6 <HAL_UART_IRQHandler+0x23a>
 80047f6:	e7ce      	b.n	8004796 <HAL_UART_IRQHandler+0x1ea>
 80047f8:	02d6      	lsls	r6, r2, #11
 80047fa:	d508      	bpl.n	800480e <HAL_UART_IRQHandler+0x262>
 80047fc:	0268      	lsls	r0, r5, #9
 80047fe:	d506      	bpl.n	800480e <HAL_UART_IRQHandler+0x262>
 8004800:	f44f 1280 	mov.w	r2, #1048576	; 0x100000
 8004804:	4620      	mov	r0, r4
 8004806:	621a      	str	r2, [r3, #32]
 8004808:	f7ff fece 	bl	80045a8 <HAL_UARTEx_WakeupCallback>
 800480c:	e75d      	b.n	80046ca <HAL_UART_IRQHandler+0x11e>
 800480e:	0616      	lsls	r6, r2, #24
 8004810:	d507      	bpl.n	8004822 <HAL_UART_IRQHandler+0x276>
 8004812:	060d      	lsls	r5, r1, #24
 8004814:	d505      	bpl.n	8004822 <HAL_UART_IRQHandler+0x276>
 8004816:	6ee3      	ldr	r3, [r4, #108]	; 0x6c
 8004818:	2b00      	cmp	r3, #0
 800481a:	f43f af56 	beq.w	80046ca <HAL_UART_IRQHandler+0x11e>
 800481e:	4620      	mov	r0, r4
 8004820:	e6d7      	b.n	80045d2 <HAL_UART_IRQHandler+0x26>
 8004822:	0650      	lsls	r0, r2, #25
 8004824:	f57f af51 	bpl.w	80046ca <HAL_UART_IRQHandler+0x11e>
 8004828:	064a      	lsls	r2, r1, #25
 800482a:	f57f af4e 	bpl.w	80046ca <HAL_UART_IRQHandler+0x11e>
 800482e:	e853 2f00 	ldrex	r2, [r3]
 8004832:	f022 0240 	bic.w	r2, r2, #64	; 0x40
 8004836:	e843 2100 	strex	r1, r2, [r3]
 800483a:	2900      	cmp	r1, #0
 800483c:	d1f7      	bne.n	800482e <HAL_UART_IRQHandler+0x282>
 800483e:	2320      	movs	r3, #32
 8004840:	4620      	mov	r0, r4
 8004842:	66e1      	str	r1, [r4, #108]	; 0x6c
 8004844:	67e3      	str	r3, [r4, #124]	; 0x7c
 8004846:	f7fd fa39 	bl	8001cbc <HAL_UART_TxCpltCallback>
 800484a:	e73e      	b.n	80046ca <HAL_UART_IRQHandler+0x11e>
 800484c:	04000120 	.word	0x04000120
 8004850:	08004597 	.word	0x08004597

08004854 <UART_SetConfig>:
 8004854:	b538      	push	{r3, r4, r5, lr}
 8004856:	4604      	mov	r4, r0
 8004858:	69c0      	ldr	r0, [r0, #28]
 800485a:	6921      	ldr	r1, [r4, #16]
 800485c:	68a2      	ldr	r2, [r4, #8]
 800485e:	6823      	ldr	r3, [r4, #0]
 8004860:	430a      	orrs	r2, r1
 8004862:	6961      	ldr	r1, [r4, #20]
 8004864:	681d      	ldr	r5, [r3, #0]
 8004866:	430a      	orrs	r2, r1
 8004868:	498e      	ldr	r1, [pc, #568]	; (8004aa4 <UART_SetConfig+0x250>)
 800486a:	4302      	orrs	r2, r0
 800486c:	4029      	ands	r1, r5
 800486e:	6a25      	ldr	r5, [r4, #32]
 8004870:	430a      	orrs	r2, r1
 8004872:	68e1      	ldr	r1, [r4, #12]
 8004874:	601a      	str	r2, [r3, #0]
 8004876:	685a      	ldr	r2, [r3, #4]
 8004878:	f422 5240 	bic.w	r2, r2, #12288	; 0x3000
 800487c:	430a      	orrs	r2, r1
 800487e:	605a      	str	r2, [r3, #4]
 8004880:	69a2      	ldr	r2, [r4, #24]
 8004882:	6899      	ldr	r1, [r3, #8]
 8004884:	432a      	orrs	r2, r5
 8004886:	f421 6130 	bic.w	r1, r1, #2816	; 0xb00
 800488a:	430a      	orrs	r2, r1
 800488c:	609a      	str	r2, [r3, #8]
 800488e:	4a86      	ldr	r2, [pc, #536]	; (8004aa8 <UART_SetConfig+0x254>)
 8004890:	4293      	cmp	r3, r2
 8004892:	d117      	bne.n	80048c4 <UART_SetConfig+0x70>
 8004894:	4b85      	ldr	r3, [pc, #532]	; (8004aac <UART_SetConfig+0x258>)
 8004896:	f8d3 3090 	ldr.w	r3, [r3, #144]	; 0x90
 800489a:	f003 0303 	and.w	r3, r3, #3
 800489e:	3b01      	subs	r3, #1
 80048a0:	2b02      	cmp	r3, #2
 80048a2:	f200 80e2 	bhi.w	8004a6a <UART_SetConfig+0x216>
 80048a6:	4a82      	ldr	r2, [pc, #520]	; (8004ab0 <UART_SetConfig+0x25c>)
 80048a8:	f5b0 4f00 	cmp.w	r0, #32768	; 0x8000
 80048ac:	5cd3      	ldrb	r3, [r2, r3]
 80048ae:	f040 80b3 	bne.w	8004a18 <UART_SetConfig+0x1c4>
 80048b2:	2b08      	cmp	r3, #8
 80048b4:	d822      	bhi.n	80048fc <UART_SetConfig+0xa8>
 80048b6:	e8df f003 	tbb	[pc, r3]
 80048ba:	db90      	.short	0xdb90
 80048bc:	21d52198 	.word	0x21d52198
 80048c0:	2121      	.short	0x2121
 80048c2:	99          	.byte	0x99
 80048c3:	00          	.byte	0x00
 80048c4:	4a7b      	ldr	r2, [pc, #492]	; (8004ab4 <UART_SetConfig+0x260>)
 80048c6:	4293      	cmp	r3, r2
 80048c8:	d106      	bne.n	80048d8 <UART_SetConfig+0x84>
 80048ca:	4b78      	ldr	r3, [pc, #480]	; (8004aac <UART_SetConfig+0x258>)
 80048cc:	4a7a      	ldr	r2, [pc, #488]	; (8004ab8 <UART_SetConfig+0x264>)
 80048ce:	f8d3 3090 	ldr.w	r3, [r3, #144]	; 0x90
 80048d2:	f003 030c 	and.w	r3, r3, #12
 80048d6:	e7e7      	b.n	80048a8 <UART_SetConfig+0x54>
 80048d8:	4a78      	ldr	r2, [pc, #480]	; (8004abc <UART_SetConfig+0x268>)
 80048da:	4293      	cmp	r3, r2
 80048dc:	d118      	bne.n	8004910 <UART_SetConfig+0xbc>
 80048de:	4b73      	ldr	r3, [pc, #460]	; (8004aac <UART_SetConfig+0x258>)
 80048e0:	f8d3 3090 	ldr.w	r3, [r3, #144]	; 0x90
 80048e4:	f003 0330 	and.w	r3, r3, #48	; 0x30
 80048e8:	2b20      	cmp	r3, #32
 80048ea:	f000 80b3 	beq.w	8004a54 <UART_SetConfig+0x200>
 80048ee:	d807      	bhi.n	8004900 <UART_SetConfig+0xac>
 80048f0:	2b00      	cmp	r3, #0
 80048f2:	f000 80c0 	beq.w	8004a76 <UART_SetConfig+0x222>
 80048f6:	2b10      	cmp	r3, #16
 80048f8:	f000 80b1 	beq.w	8004a5e <UART_SetConfig+0x20a>
 80048fc:	2001      	movs	r0, #1
 80048fe:	e070      	b.n	80049e2 <UART_SetConfig+0x18e>
 8004900:	2b30      	cmp	r3, #48	; 0x30
 8004902:	d1fb      	bne.n	80048fc <UART_SetConfig+0xa8>
 8004904:	f5b0 4f00 	cmp.w	r0, #32768	; 0x8000
 8004908:	d070      	beq.n	80049ec <UART_SetConfig+0x198>
 800490a:	f44f 4000 	mov.w	r0, #32768	; 0x8000
 800490e:	e0b9      	b.n	8004a84 <UART_SetConfig+0x230>
 8004910:	4a6b      	ldr	r2, [pc, #428]	; (8004ac0 <UART_SetConfig+0x26c>)
 8004912:	4293      	cmp	r3, r2
 8004914:	d10f      	bne.n	8004936 <UART_SetConfig+0xe2>
 8004916:	4b65      	ldr	r3, [pc, #404]	; (8004aac <UART_SetConfig+0x258>)
 8004918:	f8d3 3090 	ldr.w	r3, [r3, #144]	; 0x90
 800491c:	f003 03c0 	and.w	r3, r3, #192	; 0xc0
 8004920:	2b80      	cmp	r3, #128	; 0x80
 8004922:	f000 8097 	beq.w	8004a54 <UART_SetConfig+0x200>
 8004926:	d804      	bhi.n	8004932 <UART_SetConfig+0xde>
 8004928:	2b00      	cmp	r3, #0
 800492a:	f000 80a4 	beq.w	8004a76 <UART_SetConfig+0x222>
 800492e:	2b40      	cmp	r3, #64	; 0x40
 8004930:	e7e2      	b.n	80048f8 <UART_SetConfig+0xa4>
 8004932:	2bc0      	cmp	r3, #192	; 0xc0
 8004934:	e7e5      	b.n	8004902 <UART_SetConfig+0xae>
 8004936:	4a63      	ldr	r2, [pc, #396]	; (8004ac4 <UART_SetConfig+0x270>)
 8004938:	4293      	cmp	r3, r2
 800493a:	d112      	bne.n	8004962 <UART_SetConfig+0x10e>
 800493c:	4b5b      	ldr	r3, [pc, #364]	; (8004aac <UART_SetConfig+0x258>)
 800493e:	f8d3 3090 	ldr.w	r3, [r3, #144]	; 0x90
 8004942:	f403 7340 	and.w	r3, r3, #768	; 0x300
 8004946:	f5b3 7f00 	cmp.w	r3, #512	; 0x200
 800494a:	f000 8083 	beq.w	8004a54 <UART_SetConfig+0x200>
 800494e:	d805      	bhi.n	800495c <UART_SetConfig+0x108>
 8004950:	2b00      	cmp	r3, #0
 8004952:	f000 8090 	beq.w	8004a76 <UART_SetConfig+0x222>
 8004956:	f5b3 7f80 	cmp.w	r3, #256	; 0x100
 800495a:	e7cd      	b.n	80048f8 <UART_SetConfig+0xa4>
 800495c:	f5b3 7f40 	cmp.w	r3, #768	; 0x300
 8004960:	e7cf      	b.n	8004902 <UART_SetConfig+0xae>
 8004962:	4a59      	ldr	r2, [pc, #356]	; (8004ac8 <UART_SetConfig+0x274>)
 8004964:	4293      	cmp	r3, r2
 8004966:	d110      	bne.n	800498a <UART_SetConfig+0x136>
 8004968:	4b50      	ldr	r3, [pc, #320]	; (8004aac <UART_SetConfig+0x258>)
 800496a:	f8d3 3090 	ldr.w	r3, [r3, #144]	; 0x90
 800496e:	f403 6340 	and.w	r3, r3, #3072	; 0xc00
 8004972:	f5b3 6f00 	cmp.w	r3, #2048	; 0x800
 8004976:	d06d      	beq.n	8004a54 <UART_SetConfig+0x200>
 8004978:	d804      	bhi.n	8004984 <UART_SetConfig+0x130>
 800497a:	2b00      	cmp	r3, #0
 800497c:	d075      	beq.n	8004a6a <UART_SetConfig+0x216>
 800497e:	f5b3 6f80 	cmp.w	r3, #1024	; 0x400
 8004982:	e7b9      	b.n	80048f8 <UART_SetConfig+0xa4>
 8004984:	f5b3 6f40 	cmp.w	r3, #3072	; 0xc00
 8004988:	e7bb      	b.n	8004902 <UART_SetConfig+0xae>
 800498a:	4a50      	ldr	r2, [pc, #320]	; (8004acc <UART_SetConfig+0x278>)
 800498c:	4293      	cmp	r3, r2
 800498e:	d110      	bne.n	80049b2 <UART_SetConfig+0x15e>
 8004990:	4b46      	ldr	r3, [pc, #280]	; (8004aac <UART_SetConfig+0x258>)
 8004992:	f8d3 3090 	ldr.w	r3, [r3, #144]	; 0x90
 8004996:	f403 5340 	and.w	r3, r3, #12288	; 0x3000
 800499a:	f5b3 5f00 	cmp.w	r3, #8192	; 0x2000
 800499e:	d059      	beq.n	8004a54 <UART_SetConfig+0x200>
 80049a0:	d804      	bhi.n	80049ac <UART_SetConfig+0x158>
 80049a2:	2b00      	cmp	r3, #0
 80049a4:	d067      	beq.n	8004a76 <UART_SetConfig+0x222>
 80049a6:	f5b3 5f80 	cmp.w	r3, #4096	; 0x1000
 80049aa:	e7a5      	b.n	80048f8 <UART_SetConfig+0xa4>
 80049ac:	f5b3 5f40 	cmp.w	r3, #12288	; 0x3000
 80049b0:	e7a7      	b.n	8004902 <UART_SetConfig+0xae>
 80049b2:	4a47      	ldr	r2, [pc, #284]	; (8004ad0 <UART_SetConfig+0x27c>)
 80049b4:	4293      	cmp	r3, r2
 80049b6:	d1a1      	bne.n	80048fc <UART_SetConfig+0xa8>
 80049b8:	4b3c      	ldr	r3, [pc, #240]	; (8004aac <UART_SetConfig+0x258>)
 80049ba:	f8d3 3090 	ldr.w	r3, [r3, #144]	; 0x90
 80049be:	f403 4340 	and.w	r3, r3, #49152	; 0xc000
 80049c2:	f5b3 4f00 	cmp.w	r3, #32768	; 0x8000
 80049c6:	d045      	beq.n	8004a54 <UART_SetConfig+0x200>
 80049c8:	d804      	bhi.n	80049d4 <UART_SetConfig+0x180>
 80049ca:	2b00      	cmp	r3, #0
 80049cc:	d053      	beq.n	8004a76 <UART_SetConfig+0x222>
 80049ce:	f5b3 4f80 	cmp.w	r3, #16384	; 0x4000
 80049d2:	e791      	b.n	80048f8 <UART_SetConfig+0xa4>
 80049d4:	f5b3 4f40 	cmp.w	r3, #49152	; 0xc000
 80049d8:	e793      	b.n	8004902 <UART_SetConfig+0xae>
 80049da:	f7fe fb51 	bl	8003080 <HAL_RCC_GetPCLK1Freq>
 80049de:	b928      	cbnz	r0, 80049ec <UART_SetConfig+0x198>
 80049e0:	2000      	movs	r0, #0
 80049e2:	2300      	movs	r3, #0
 80049e4:	e9c4 331a 	strd	r3, r3, [r4, #104]	; 0x68
 80049e8:	bd38      	pop	{r3, r4, r5, pc}
 80049ea:	483a      	ldr	r0, [pc, #232]	; (8004ad4 <UART_SetConfig+0x280>)
 80049ec:	6862      	ldr	r2, [r4, #4]
 80049ee:	0853      	lsrs	r3, r2, #1
 80049f0:	eb03 0340 	add.w	r3, r3, r0, lsl #1
 80049f4:	fbb3 f3f2 	udiv	r3, r3, r2
 80049f8:	f64f 72ef 	movw	r2, #65519	; 0xffef
 80049fc:	f1a3 0110 	sub.w	r1, r3, #16
 8004a00:	4291      	cmp	r1, r2
 8004a02:	f63f af7b 	bhi.w	80048fc <UART_SetConfig+0xa8>
 8004a06:	f023 020f 	bic.w	r2, r3, #15
 8004a0a:	f3c3 0342 	ubfx	r3, r3, #1, #3
 8004a0e:	6821      	ldr	r1, [r4, #0]
 8004a10:	b292      	uxth	r2, r2
 8004a12:	4313      	orrs	r3, r2
 8004a14:	60cb      	str	r3, [r1, #12]
 8004a16:	e7e3      	b.n	80049e0 <UART_SetConfig+0x18c>
 8004a18:	2b08      	cmp	r3, #8
 8004a1a:	f63f af6f 	bhi.w	80048fc <UART_SetConfig+0xa8>
 8004a1e:	a201      	add	r2, pc, #4	; (adr r2, 8004a24 <UART_SetConfig+0x1d0>)
 8004a20:	f852 f023 	ldr.w	pc, [r2, r3, lsl #2]
 8004a24:	08004a7d 	.word	0x08004a7d
 8004a28:	08004a49 	.word	0x08004a49
 8004a2c:	08004a5b 	.word	0x08004a5b
 8004a30:	080048fd 	.word	0x080048fd
 8004a34:	08004a4f 	.word	0x08004a4f
 8004a38:	080048fd 	.word	0x080048fd
 8004a3c:	080048fd 	.word	0x080048fd
 8004a40:	080048fd 	.word	0x080048fd
 8004a44:	0800490b 	.word	0x0800490b
 8004a48:	f7fe fb2a 	bl	80030a0 <HAL_RCC_GetPCLK2Freq>
 8004a4c:	e018      	b.n	8004a80 <UART_SetConfig+0x22c>
 8004a4e:	f7fe fa4b 	bl	8002ee8 <HAL_RCC_GetSysClockFreq>
 8004a52:	e015      	b.n	8004a80 <UART_SetConfig+0x22c>
 8004a54:	f5b0 4f00 	cmp.w	r0, #32768	; 0x8000
 8004a58:	d0c7      	beq.n	80049ea <UART_SetConfig+0x196>
 8004a5a:	481e      	ldr	r0, [pc, #120]	; (8004ad4 <UART_SetConfig+0x280>)
 8004a5c:	e012      	b.n	8004a84 <UART_SetConfig+0x230>
 8004a5e:	f5b0 4f00 	cmp.w	r0, #32768	; 0x8000
 8004a62:	d1f4      	bne.n	8004a4e <UART_SetConfig+0x1fa>
 8004a64:	f7fe fa40 	bl	8002ee8 <HAL_RCC_GetSysClockFreq>
 8004a68:	e7b9      	b.n	80049de <UART_SetConfig+0x18a>
 8004a6a:	f5b0 4f00 	cmp.w	r0, #32768	; 0x8000
 8004a6e:	d1eb      	bne.n	8004a48 <UART_SetConfig+0x1f4>
 8004a70:	f7fe fb16 	bl	80030a0 <HAL_RCC_GetPCLK2Freq>
 8004a74:	e7b3      	b.n	80049de <UART_SetConfig+0x18a>
 8004a76:	f5b0 4f00 	cmp.w	r0, #32768	; 0x8000
 8004a7a:	d0ae      	beq.n	80049da <UART_SetConfig+0x186>
 8004a7c:	f7fe fb00 	bl	8003080 <HAL_RCC_GetPCLK1Freq>
 8004a80:	2800      	cmp	r0, #0
 8004a82:	d0ad      	beq.n	80049e0 <UART_SetConfig+0x18c>
 8004a84:	6862      	ldr	r2, [r4, #4]
 8004a86:	eb00 0352 	add.w	r3, r0, r2, lsr #1
 8004a8a:	fbb3 f3f2 	udiv	r3, r3, r2
 8004a8e:	f64f 72ef 	movw	r2, #65519	; 0xffef
 8004a92:	f1a3 0110 	sub.w	r1, r3, #16
 8004a96:	4291      	cmp	r1, r2
 8004a98:	f63f af30 	bhi.w	80048fc <UART_SetConfig+0xa8>
 8004a9c:	6822      	ldr	r2, [r4, #0]
 8004a9e:	60d3      	str	r3, [r2, #12]
 8004aa0:	e79e      	b.n	80049e0 <UART_SetConfig+0x18c>
 8004aa2:	bf00      	nop
 8004aa4:	efff69f3 	.word	0xefff69f3
 8004aa8:	40011000 	.word	0x40011000
 8004aac:	40023800 	.word	0x40023800
 8004ab0:	080094e8 	.word	0x080094e8
 8004ab4:	40004400 	.word	0x40004400
 8004ab8:	080094eb 	.word	0x080094eb
 8004abc:	40004800 	.word	0x40004800
 8004ac0:	40004c00 	.word	0x40004c00
 8004ac4:	40005000 	.word	0x40005000
 8004ac8:	40011400 	.word	0x40011400
 8004acc:	40007800 	.word	0x40007800
 8004ad0:	40007c00 	.word	0x40007c00
 8004ad4:	00f42400 	.word	0x00f42400

08004ad8 <UART_AdvFeatureConfig>:
 8004ad8:	6a43      	ldr	r3, [r0, #36]	; 0x24
 8004ada:	071a      	lsls	r2, r3, #28
 8004adc:	b510      	push	{r4, lr}
 8004ade:	d506      	bpl.n	8004aee <UART_AdvFeatureConfig+0x16>
 8004ae0:	6801      	ldr	r1, [r0, #0]
 8004ae2:	6b44      	ldr	r4, [r0, #52]	; 0x34
 8004ae4:	684a      	ldr	r2, [r1, #4]
 8004ae6:	f422 4200 	bic.w	r2, r2, #32768	; 0x8000
 8004aea:	4322      	orrs	r2, r4
 8004aec:	604a      	str	r2, [r1, #4]
 8004aee:	07dc      	lsls	r4, r3, #31
 8004af0:	d506      	bpl.n	8004b00 <UART_AdvFeatureConfig+0x28>
 8004af2:	6801      	ldr	r1, [r0, #0]
 8004af4:	6a84      	ldr	r4, [r0, #40]	; 0x28
 8004af6:	684a      	ldr	r2, [r1, #4]
 8004af8:	f422 3200 	bic.w	r2, r2, #131072	; 0x20000
 8004afc:	4322      	orrs	r2, r4
 8004afe:	604a      	str	r2, [r1, #4]
 8004b00:	0799      	lsls	r1, r3, #30
 8004b02:	d506      	bpl.n	8004b12 <UART_AdvFeatureConfig+0x3a>
 8004b04:	6801      	ldr	r1, [r0, #0]
 8004b06:	6ac4      	ldr	r4, [r0, #44]	; 0x2c
 8004b08:	684a      	ldr	r2, [r1, #4]
 8004b0a:	f422 3280 	bic.w	r2, r2, #65536	; 0x10000
 8004b0e:	4322      	orrs	r2, r4
 8004b10:	604a      	str	r2, [r1, #4]
 8004b12:	075a      	lsls	r2, r3, #29
 8004b14:	d506      	bpl.n	8004b24 <UART_AdvFeatureConfig+0x4c>
 8004b16:	6801      	ldr	r1, [r0, #0]
 8004b18:	6b04      	ldr	r4, [r0, #48]	; 0x30
 8004b1a:	684a      	ldr	r2, [r1, #4]
 8004b1c:	f422 2280 	bic.w	r2, r2, #262144	; 0x40000
 8004b20:	4322      	orrs	r2, r4
 8004b22:	604a      	str	r2, [r1, #4]
 8004b24:	06dc      	lsls	r4, r3, #27
 8004b26:	d506      	bpl.n	8004b36 <UART_AdvFeatureConfig+0x5e>
 8004b28:	6801      	ldr	r1, [r0, #0]
 8004b2a:	6b84      	ldr	r4, [r0, #56]	; 0x38
 8004b2c:	688a      	ldr	r2, [r1, #8]
 8004b2e:	f422 5280 	bic.w	r2, r2, #4096	; 0x1000
 8004b32:	4322      	orrs	r2, r4
 8004b34:	608a      	str	r2, [r1, #8]
 8004b36:	0699      	lsls	r1, r3, #26
 8004b38:	d506      	bpl.n	8004b48 <UART_AdvFeatureConfig+0x70>
 8004b3a:	6801      	ldr	r1, [r0, #0]
 8004b3c:	6bc4      	ldr	r4, [r0, #60]	; 0x3c
 8004b3e:	688a      	ldr	r2, [r1, #8]
 8004b40:	f422 5200 	bic.w	r2, r2, #8192	; 0x2000
 8004b44:	4322      	orrs	r2, r4
 8004b46:	608a      	str	r2, [r1, #8]
 8004b48:	065a      	lsls	r2, r3, #25
 8004b4a:	d510      	bpl.n	8004b6e <UART_AdvFeatureConfig+0x96>
 8004b4c:	6801      	ldr	r1, [r0, #0]
 8004b4e:	6c04      	ldr	r4, [r0, #64]	; 0x40
 8004b50:	684a      	ldr	r2, [r1, #4]
 8004b52:	f5b4 1f80 	cmp.w	r4, #1048576	; 0x100000
 8004b56:	f422 1280 	bic.w	r2, r2, #1048576	; 0x100000
 8004b5a:	ea42 0204 	orr.w	r2, r2, r4
 8004b5e:	604a      	str	r2, [r1, #4]
 8004b60:	d105      	bne.n	8004b6e <UART_AdvFeatureConfig+0x96>
 8004b62:	684a      	ldr	r2, [r1, #4]
 8004b64:	6c44      	ldr	r4, [r0, #68]	; 0x44
 8004b66:	f422 02c0 	bic.w	r2, r2, #6291456	; 0x600000
 8004b6a:	4322      	orrs	r2, r4
 8004b6c:	604a      	str	r2, [r1, #4]
 8004b6e:	061b      	lsls	r3, r3, #24
 8004b70:	d506      	bpl.n	8004b80 <UART_AdvFeatureConfig+0xa8>
 8004b72:	6802      	ldr	r2, [r0, #0]
 8004b74:	6c81      	ldr	r1, [r0, #72]	; 0x48
 8004b76:	6853      	ldr	r3, [r2, #4]
 8004b78:	f423 2300 	bic.w	r3, r3, #524288	; 0x80000
 8004b7c:	430b      	orrs	r3, r1
 8004b7e:	6053      	str	r3, [r2, #4]
 8004b80:	bd10      	pop	{r4, pc}

08004b82 <UART_WaitOnFlagUntilTimeout>:
 8004b82:	e92d 43f8 	stmdb	sp!, {r3, r4, r5, r6, r7, r8, r9, lr}
 8004b86:	f8dd 9020 	ldr.w	r9, [sp, #32]
 8004b8a:	4604      	mov	r4, r0
 8004b8c:	460d      	mov	r5, r1
 8004b8e:	4617      	mov	r7, r2
 8004b90:	4698      	mov	r8, r3
 8004b92:	6822      	ldr	r2, [r4, #0]
 8004b94:	69d3      	ldr	r3, [r2, #28]
 8004b96:	ea35 0303 	bics.w	r3, r5, r3
 8004b9a:	bf0c      	ite	eq
 8004b9c:	2301      	moveq	r3, #1
 8004b9e:	2300      	movne	r3, #0
 8004ba0:	42bb      	cmp	r3, r7
 8004ba2:	d001      	beq.n	8004ba8 <UART_WaitOnFlagUntilTimeout+0x26>
 8004ba4:	2000      	movs	r0, #0
 8004ba6:	e022      	b.n	8004bee <UART_WaitOnFlagUntilTimeout+0x6c>
 8004ba8:	f1b9 3fff 	cmp.w	r9, #4294967295
 8004bac:	d0f2      	beq.n	8004b94 <UART_WaitOnFlagUntilTimeout+0x12>
 8004bae:	f7fd f8ff 	bl	8001db0 <HAL_GetTick>
 8004bb2:	eba0 0008 	sub.w	r0, r0, r8
 8004bb6:	4548      	cmp	r0, r9
 8004bb8:	d829      	bhi.n	8004c0e <UART_WaitOnFlagUntilTimeout+0x8c>
 8004bba:	f1b9 0f00 	cmp.w	r9, #0
 8004bbe:	d026      	beq.n	8004c0e <UART_WaitOnFlagUntilTimeout+0x8c>
 8004bc0:	6821      	ldr	r1, [r4, #0]
 8004bc2:	680b      	ldr	r3, [r1, #0]
 8004bc4:	075a      	lsls	r2, r3, #29
 8004bc6:	d5e4      	bpl.n	8004b92 <UART_WaitOnFlagUntilTimeout+0x10>
 8004bc8:	2d80      	cmp	r5, #128	; 0x80
 8004bca:	d0e2      	beq.n	8004b92 <UART_WaitOnFlagUntilTimeout+0x10>
 8004bcc:	2d40      	cmp	r5, #64	; 0x40
 8004bce:	d0e0      	beq.n	8004b92 <UART_WaitOnFlagUntilTimeout+0x10>
 8004bd0:	69ce      	ldr	r6, [r1, #28]
 8004bd2:	f016 0608 	ands.w	r6, r6, #8
 8004bd6:	d00c      	beq.n	8004bf2 <UART_WaitOnFlagUntilTimeout+0x70>
 8004bd8:	2508      	movs	r5, #8
 8004bda:	4620      	mov	r0, r4
 8004bdc:	620d      	str	r5, [r1, #32]
 8004bde:	f7ff fc3e 	bl	800445e <UART_EndRxTransfer>
 8004be2:	2300      	movs	r3, #0
 8004be4:	2001      	movs	r0, #1
 8004be6:	f8c4 5084 	str.w	r5, [r4, #132]	; 0x84
 8004bea:	f884 3078 	strb.w	r3, [r4, #120]	; 0x78
 8004bee:	e8bd 83f8 	ldmia.w	sp!, {r3, r4, r5, r6, r7, r8, r9, pc}
 8004bf2:	69cb      	ldr	r3, [r1, #28]
 8004bf4:	051b      	lsls	r3, r3, #20
 8004bf6:	d5cc      	bpl.n	8004b92 <UART_WaitOnFlagUntilTimeout+0x10>
 8004bf8:	f44f 6300 	mov.w	r3, #2048	; 0x800
 8004bfc:	4620      	mov	r0, r4
 8004bfe:	620b      	str	r3, [r1, #32]
 8004c00:	f7ff fc2d 	bl	800445e <UART_EndRxTransfer>
 8004c04:	2320      	movs	r3, #32
 8004c06:	f884 6078 	strb.w	r6, [r4, #120]	; 0x78
 8004c0a:	f8c4 3084 	str.w	r3, [r4, #132]	; 0x84
 8004c0e:	2003      	movs	r0, #3
 8004c10:	e7ed      	b.n	8004bee <UART_WaitOnFlagUntilTimeout+0x6c>

08004c12 <UART_CheckIdleState>:
 8004c12:	b530      	push	{r4, r5, lr}
 8004c14:	2500      	movs	r5, #0
 8004c16:	4604      	mov	r4, r0
 8004c18:	b085      	sub	sp, #20
 8004c1a:	f8c0 5084 	str.w	r5, [r0, #132]	; 0x84
 8004c1e:	f7fd f8c7 	bl	8001db0 <HAL_GetTick>
 8004c22:	6822      	ldr	r2, [r4, #0]
 8004c24:	4603      	mov	r3, r0
 8004c26:	6812      	ldr	r2, [r2, #0]
 8004c28:	0711      	lsls	r1, r2, #28
 8004c2a:	d51c      	bpl.n	8004c66 <UART_CheckIdleState+0x54>
 8004c2c:	f06f 427e 	mvn.w	r2, #4261412864	; 0xfe000000
 8004c30:	9003      	str	r0, [sp, #12]
 8004c32:	f44f 1100 	mov.w	r1, #2097152	; 0x200000
 8004c36:	4620      	mov	r0, r4
 8004c38:	9200      	str	r2, [sp, #0]
 8004c3a:	462a      	mov	r2, r5
 8004c3c:	f7ff ffa1 	bl	8004b82 <UART_WaitOnFlagUntilTimeout>
 8004c40:	9b03      	ldr	r3, [sp, #12]
 8004c42:	b180      	cbz	r0, 8004c66 <UART_CheckIdleState+0x54>
 8004c44:	6822      	ldr	r2, [r4, #0]
 8004c46:	e852 3f00 	ldrex	r3, [r2]
 8004c4a:	f023 0380 	bic.w	r3, r3, #128	; 0x80
 8004c4e:	e842 3100 	strex	r1, r3, [r2]
 8004c52:	2900      	cmp	r1, #0
 8004c54:	d1f6      	bne.n	8004c44 <UART_CheckIdleState+0x32>
 8004c56:	2320      	movs	r3, #32
 8004c58:	67e3      	str	r3, [r4, #124]	; 0x7c
 8004c5a:	2003      	movs	r0, #3
 8004c5c:	2300      	movs	r3, #0
 8004c5e:	f884 3078 	strb.w	r3, [r4, #120]	; 0x78
 8004c62:	b005      	add	sp, #20
 8004c64:	bd30      	pop	{r4, r5, pc}
 8004c66:	6822      	ldr	r2, [r4, #0]
 8004c68:	6812      	ldr	r2, [r2, #0]
 8004c6a:	0752      	lsls	r2, r2, #29
 8004c6c:	d523      	bpl.n	8004cb6 <UART_CheckIdleState+0xa4>
 8004c6e:	f06f 427e 	mvn.w	r2, #4261412864	; 0xfe000000
 8004c72:	f44f 0180 	mov.w	r1, #4194304	; 0x400000
 8004c76:	4620      	mov	r0, r4
 8004c78:	9200      	str	r2, [sp, #0]
 8004c7a:	2200      	movs	r2, #0
 8004c7c:	f7ff ff81 	bl	8004b82 <UART_WaitOnFlagUntilTimeout>
 8004c80:	b1c8      	cbz	r0, 8004cb6 <UART_CheckIdleState+0xa4>
 8004c82:	6822      	ldr	r2, [r4, #0]
 8004c84:	e852 3f00 	ldrex	r3, [r2]
 8004c88:	f423 7390 	bic.w	r3, r3, #288	; 0x120
 8004c8c:	e842 3100 	strex	r1, r3, [r2]
 8004c90:	6822      	ldr	r2, [r4, #0]
 8004c92:	2900      	cmp	r1, #0
 8004c94:	d1f5      	bne.n	8004c82 <UART_CheckIdleState+0x70>
 8004c96:	f102 0308 	add.w	r3, r2, #8
 8004c9a:	e853 3f00 	ldrex	r3, [r3]
 8004c9e:	f023 0301 	bic.w	r3, r3, #1
 8004ca2:	f102 0008 	add.w	r0, r2, #8
 8004ca6:	e840 3100 	strex	r1, r3, [r0]
 8004caa:	2900      	cmp	r1, #0
 8004cac:	d1f3      	bne.n	8004c96 <UART_CheckIdleState+0x84>
 8004cae:	2320      	movs	r3, #32
 8004cb0:	f8c4 3080 	str.w	r3, [r4, #128]	; 0x80
 8004cb4:	e7d1      	b.n	8004c5a <UART_CheckIdleState+0x48>
 8004cb6:	2320      	movs	r3, #32
 8004cb8:	2000      	movs	r0, #0
 8004cba:	67e3      	str	r3, [r4, #124]	; 0x7c
 8004cbc:	f8c4 3080 	str.w	r3, [r4, #128]	; 0x80
 8004cc0:	6620      	str	r0, [r4, #96]	; 0x60
 8004cc2:	6660      	str	r0, [r4, #100]	; 0x64
 8004cc4:	e7ca      	b.n	8004c5c <UART_CheckIdleState+0x4a>

08004cc6 <HAL_UART_Init>:
 8004cc6:	b510      	push	{r4, lr}
 8004cc8:	4604      	mov	r4, r0
 8004cca:	b340      	cbz	r0, 8004d1e <HAL_UART_Init+0x58>
 8004ccc:	6fc3      	ldr	r3, [r0, #124]	; 0x7c
 8004cce:	b91b      	cbnz	r3, 8004cd8 <HAL_UART_Init+0x12>
 8004cd0:	f880 3078 	strb.w	r3, [r0, #120]	; 0x78
 8004cd4:	f7fc ff6c 	bl	8001bb0 <HAL_UART_MspInit>
 8004cd8:	2324      	movs	r3, #36	; 0x24
 8004cda:	6822      	ldr	r2, [r4, #0]
 8004cdc:	67e3      	str	r3, [r4, #124]	; 0x7c
 8004cde:	6813      	ldr	r3, [r2, #0]
 8004ce0:	f023 0301 	bic.w	r3, r3, #1
 8004ce4:	6013      	str	r3, [r2, #0]
 8004ce6:	6a63      	ldr	r3, [r4, #36]	; 0x24
 8004ce8:	b113      	cbz	r3, 8004cf0 <HAL_UART_Init+0x2a>
 8004cea:	4620      	mov	r0, r4
 8004cec:	f7ff fef4 	bl	8004ad8 <UART_AdvFeatureConfig>
 8004cf0:	4620      	mov	r0, r4
 8004cf2:	f7ff fdaf 	bl	8004854 <UART_SetConfig>
 8004cf6:	2801      	cmp	r0, #1
 8004cf8:	d011      	beq.n	8004d1e <HAL_UART_Init+0x58>
 8004cfa:	6823      	ldr	r3, [r4, #0]
 8004cfc:	4620      	mov	r0, r4
 8004cfe:	685a      	ldr	r2, [r3, #4]
 8004d00:	f422 4290 	bic.w	r2, r2, #18432	; 0x4800
 8004d04:	605a      	str	r2, [r3, #4]
 8004d06:	689a      	ldr	r2, [r3, #8]
 8004d08:	f022 022a 	bic.w	r2, r2, #42	; 0x2a
 8004d0c:	609a      	str	r2, [r3, #8]
 8004d0e:	681a      	ldr	r2, [r3, #0]
 8004d10:	f042 0201 	orr.w	r2, r2, #1
 8004d14:	e8bd 4010 	ldmia.w	sp!, {r4, lr}
 8004d18:	601a      	str	r2, [r3, #0]
 8004d1a:	f7ff bf7a 	b.w	8004c12 <UART_CheckIdleState>
 8004d1e:	2001      	movs	r0, #1
 8004d20:	bd10      	pop	{r4, pc}
	...

08004d24 <osKernelInitialize>:
 8004d24:	f3ef 8305 	mrs	r3, IPSR
 8004d28:	b113      	cbz	r3, 8004d30 <osKernelInitialize+0xc>
 8004d2a:	f06f 0005 	mvn.w	r0, #5
 8004d2e:	4770      	bx	lr
 8004d30:	f3ef 8210 	mrs	r2, PRIMASK
 8004d34:	4b07      	ldr	r3, [pc, #28]	; (8004d54 <osKernelInitialize+0x30>)
 8004d36:	b912      	cbnz	r2, 8004d3e <osKernelInitialize+0x1a>
 8004d38:	f3ef 8211 	mrs	r2, BASEPRI
 8004d3c:	b112      	cbz	r2, 8004d44 <osKernelInitialize+0x20>
 8004d3e:	681a      	ldr	r2, [r3, #0]
 8004d40:	2a02      	cmp	r2, #2
 8004d42:	d0f2      	beq.n	8004d2a <osKernelInitialize+0x6>
 8004d44:	6818      	ldr	r0, [r3, #0]
 8004d46:	b910      	cbnz	r0, 8004d4e <osKernelInitialize+0x2a>
 8004d48:	2201      	movs	r2, #1
 8004d4a:	601a      	str	r2, [r3, #0]
 8004d4c:	4770      	bx	lr
 8004d4e:	f04f 30ff 	mov.w	r0, #4294967295
 8004d52:	4770      	bx	lr
 8004d54:	20000ff4 	.word	0x20000ff4

08004d58 <osKernelStart>:
 8004d58:	b508      	push	{r3, lr}
 8004d5a:	f3ef 8305 	mrs	r3, IPSR
 8004d5e:	b113      	cbz	r3, 8004d66 <osKernelStart+0xe>
 8004d60:	f06f 0005 	mvn.w	r0, #5
 8004d64:	bd08      	pop	{r3, pc}
 8004d66:	f3ef 8210 	mrs	r2, PRIMASK
 8004d6a:	4b0a      	ldr	r3, [pc, #40]	; (8004d94 <osKernelStart+0x3c>)
 8004d6c:	b912      	cbnz	r2, 8004d74 <osKernelStart+0x1c>
 8004d6e:	f3ef 8211 	mrs	r2, BASEPRI
 8004d72:	b112      	cbz	r2, 8004d7a <osKernelStart+0x22>
 8004d74:	681a      	ldr	r2, [r3, #0]
 8004d76:	2a02      	cmp	r2, #2
 8004d78:	d0f2      	beq.n	8004d60 <osKernelStart+0x8>
 8004d7a:	681a      	ldr	r2, [r3, #0]
 8004d7c:	2a01      	cmp	r2, #1
 8004d7e:	d105      	bne.n	8004d8c <osKernelStart+0x34>
 8004d80:	2202      	movs	r2, #2
 8004d82:	601a      	str	r2, [r3, #0]
 8004d84:	f001 f8aa 	bl	8005edc <vTaskStartScheduler>
 8004d88:	2000      	movs	r0, #0
 8004d8a:	e7eb      	b.n	8004d64 <osKernelStart+0xc>
 8004d8c:	f04f 30ff 	mov.w	r0, #4294967295
 8004d90:	e7e8      	b.n	8004d64 <osKernelStart+0xc>
 8004d92:	bf00      	nop
 8004d94:	20000ff4 	.word	0x20000ff4

08004d98 <osThreadNew>:
 8004d98:	b5f0      	push	{r4, r5, r6, r7, lr}
 8004d9a:	4614      	mov	r4, r2
 8004d9c:	b087      	sub	sp, #28
 8004d9e:	2200      	movs	r2, #0
 8004da0:	460b      	mov	r3, r1
 8004da2:	9205      	str	r2, [sp, #20]
 8004da4:	f3ef 8205 	mrs	r2, IPSR
 8004da8:	bb1a      	cbnz	r2, 8004df2 <osThreadNew+0x5a>
 8004daa:	f3ef 8210 	mrs	r2, PRIMASK
 8004dae:	b912      	cbnz	r2, 8004db6 <osThreadNew+0x1e>
 8004db0:	f3ef 8211 	mrs	r2, BASEPRI
 8004db4:	b11a      	cbz	r2, 8004dbe <osThreadNew+0x26>
 8004db6:	4a21      	ldr	r2, [pc, #132]	; (8004e3c <osThreadNew+0xa4>)
 8004db8:	6812      	ldr	r2, [r2, #0]
 8004dba:	2a02      	cmp	r2, #2
 8004dbc:	d019      	beq.n	8004df2 <osThreadNew+0x5a>
 8004dbe:	b1c0      	cbz	r0, 8004df2 <osThreadNew+0x5a>
 8004dc0:	b36c      	cbz	r4, 8004e1e <osThreadNew+0x86>
 8004dc2:	69a5      	ldr	r5, [r4, #24]
 8004dc4:	2d00      	cmp	r5, #0
 8004dc6:	bf08      	it	eq
 8004dc8:	2518      	moveq	r5, #24
 8004dca:	1e6a      	subs	r2, r5, #1
 8004dcc:	46ac      	mov	ip, r5
 8004dce:	2a37      	cmp	r2, #55	; 0x37
 8004dd0:	d82a      	bhi.n	8004e28 <osThreadNew+0x90>
 8004dd2:	6862      	ldr	r2, [r4, #4]
 8004dd4:	07d2      	lsls	r2, r2, #31
 8004dd6:	d427      	bmi.n	8004e28 <osThreadNew+0x90>
 8004dd8:	6966      	ldr	r6, [r4, #20]
 8004dda:	b16e      	cbz	r6, 8004df8 <osThreadNew+0x60>
 8004ddc:	08b2      	lsrs	r2, r6, #2
 8004dde:	6821      	ldr	r1, [r4, #0]
 8004de0:	e9d4 7e02 	ldrd	r7, lr, [r4, #8]
 8004de4:	b157      	cbz	r7, 8004dfc <osThreadNew+0x64>
 8004de6:	f1be 0faf 	cmp.w	lr, #175	; 0xaf
 8004dea:	d902      	bls.n	8004df2 <osThreadNew+0x5a>
 8004dec:	6924      	ldr	r4, [r4, #16]
 8004dee:	b104      	cbz	r4, 8004df2 <osThreadNew+0x5a>
 8004df0:	b9e6      	cbnz	r6, 8004e2c <osThreadNew+0x94>
 8004df2:	9805      	ldr	r0, [sp, #20]
 8004df4:	b007      	add	sp, #28
 8004df6:	bdf0      	pop	{r4, r5, r6, r7, pc}
 8004df8:	2280      	movs	r2, #128	; 0x80
 8004dfa:	e7f0      	b.n	8004dde <osThreadNew+0x46>
 8004dfc:	f1be 0f00 	cmp.w	lr, #0
 8004e00:	d1f7      	bne.n	8004df2 <osThreadNew+0x5a>
 8004e02:	6924      	ldr	r4, [r4, #16]
 8004e04:	2c00      	cmp	r4, #0
 8004e06:	d1f4      	bne.n	8004df2 <osThreadNew+0x5a>
 8004e08:	ac05      	add	r4, sp, #20
 8004e0a:	b292      	uxth	r2, r2
 8004e0c:	e9cd c400 	strd	ip, r4, [sp]
 8004e10:	f001 f836 	bl	8005e80 <xTaskCreate>
 8004e14:	2801      	cmp	r0, #1
 8004e16:	bf1c      	itt	ne
 8004e18:	2300      	movne	r3, #0
 8004e1a:	9305      	strne	r3, [sp, #20]
 8004e1c:	e7e9      	b.n	8004df2 <osThreadNew+0x5a>
 8004e1e:	4621      	mov	r1, r4
 8004e20:	f04f 0c18 	mov.w	ip, #24
 8004e24:	2280      	movs	r2, #128	; 0x80
 8004e26:	e7ef      	b.n	8004e08 <osThreadNew+0x70>
 8004e28:	2000      	movs	r0, #0
 8004e2a:	e7e3      	b.n	8004df4 <osThreadNew+0x5c>
 8004e2c:	e9cd 4701 	strd	r4, r7, [sp, #4]
 8004e30:	9500      	str	r5, [sp, #0]
 8004e32:	f000 ffe7 	bl	8005e04 <xTaskCreateStatic>
 8004e36:	9005      	str	r0, [sp, #20]
 8004e38:	e7db      	b.n	8004df2 <osThreadNew+0x5a>
 8004e3a:	bf00      	nop
 8004e3c:	20000ff4 	.word	0x20000ff4

08004e40 <osSemaphoreNew>:
 8004e40:	b573      	push	{r0, r1, r4, r5, r6, lr}
 8004e42:	460e      	mov	r6, r1
 8004e44:	4615      	mov	r5, r2
 8004e46:	f3ef 8305 	mrs	r3, IPSR
 8004e4a:	b11b      	cbz	r3, 8004e54 <osSemaphoreNew+0x14>
 8004e4c:	2400      	movs	r4, #0
 8004e4e:	4620      	mov	r0, r4
 8004e50:	b002      	add	sp, #8
 8004e52:	bd70      	pop	{r4, r5, r6, pc}
 8004e54:	f3ef 8310 	mrs	r3, PRIMASK
 8004e58:	b913      	cbnz	r3, 8004e60 <osSemaphoreNew+0x20>
 8004e5a:	f3ef 8311 	mrs	r3, BASEPRI
 8004e5e:	b11b      	cbz	r3, 8004e68 <osSemaphoreNew+0x28>
 8004e60:	4b21      	ldr	r3, [pc, #132]	; (8004ee8 <osSemaphoreNew+0xa8>)
 8004e62:	681b      	ldr	r3, [r3, #0]
 8004e64:	2b02      	cmp	r3, #2
 8004e66:	d0f1      	beq.n	8004e4c <osSemaphoreNew+0xc>
 8004e68:	2800      	cmp	r0, #0
 8004e6a:	d0ef      	beq.n	8004e4c <osSemaphoreNew+0xc>
 8004e6c:	42b0      	cmp	r0, r6
 8004e6e:	d3ed      	bcc.n	8004e4c <osSemaphoreNew+0xc>
 8004e70:	b1ed      	cbz	r5, 8004eae <osSemaphoreNew+0x6e>
 8004e72:	e9d5 3202 	ldrd	r3, r2, [r5, #8]
 8004e76:	b1c3      	cbz	r3, 8004eaa <osSemaphoreNew+0x6a>
 8004e78:	2a4f      	cmp	r2, #79	; 0x4f
 8004e7a:	d9e7      	bls.n	8004e4c <osSemaphoreNew+0xc>
 8004e7c:	2801      	cmp	r0, #1
 8004e7e:	d129      	bne.n	8004ed4 <osSemaphoreNew+0x94>
 8004e80:	2203      	movs	r2, #3
 8004e82:	9200      	str	r2, [sp, #0]
 8004e84:	2200      	movs	r2, #0
 8004e86:	4611      	mov	r1, r2
 8004e88:	f000 fa13 	bl	80052b2 <xQueueGenericCreateStatic>
 8004e8c:	4604      	mov	r4, r0
 8004e8e:	2800      	cmp	r0, #0
 8004e90:	d0dc      	beq.n	8004e4c <osSemaphoreNew+0xc>
 8004e92:	b1ce      	cbz	r6, 8004ec8 <osSemaphoreNew+0x88>
 8004e94:	2300      	movs	r3, #0
 8004e96:	461a      	mov	r2, r3
 8004e98:	4619      	mov	r1, r3
 8004e9a:	f000 fa8f 	bl	80053bc <xQueueGenericSend>
 8004e9e:	2801      	cmp	r0, #1
 8004ea0:	d012      	beq.n	8004ec8 <osSemaphoreNew+0x88>
 8004ea2:	4620      	mov	r0, r4
 8004ea4:	f000 fdf6 	bl	8005a94 <vQueueDelete>
 8004ea8:	e7d0      	b.n	8004e4c <osSemaphoreNew+0xc>
 8004eaa:	2a00      	cmp	r2, #0
 8004eac:	d1ce      	bne.n	8004e4c <osSemaphoreNew+0xc>
 8004eae:	2801      	cmp	r0, #1
 8004eb0:	d104      	bne.n	8004ebc <osSemaphoreNew+0x7c>
 8004eb2:	2203      	movs	r2, #3
 8004eb4:	2100      	movs	r1, #0
 8004eb6:	f000 fa10 	bl	80052da <xQueueGenericCreate>
 8004eba:	e7e7      	b.n	8004e8c <osSemaphoreNew+0x4c>
 8004ebc:	4631      	mov	r1, r6
 8004ebe:	f000 fa5b 	bl	8005378 <xQueueCreateCountingSemaphore>
 8004ec2:	4604      	mov	r4, r0
 8004ec4:	2800      	cmp	r0, #0
 8004ec6:	d0c1      	beq.n	8004e4c <osSemaphoreNew+0xc>
 8004ec8:	b95d      	cbnz	r5, 8004ee2 <osSemaphoreNew+0xa2>
 8004eca:	4629      	mov	r1, r5
 8004ecc:	4620      	mov	r0, r4
 8004ece:	f000 fdbb 	bl	8005a48 <vQueueAddToRegistry>
 8004ed2:	e7bc      	b.n	8004e4e <osSemaphoreNew+0xe>
 8004ed4:	461a      	mov	r2, r3
 8004ed6:	4631      	mov	r1, r6
 8004ed8:	f000 fa28 	bl	800532c <xQueueCreateCountingSemaphoreStatic>
 8004edc:	4604      	mov	r4, r0
 8004ede:	2800      	cmp	r0, #0
 8004ee0:	d0b4      	beq.n	8004e4c <osSemaphoreNew+0xc>
 8004ee2:	682d      	ldr	r5, [r5, #0]
 8004ee4:	e7f1      	b.n	8004eca <osSemaphoreNew+0x8a>
 8004ee6:	bf00      	nop
 8004ee8:	20000ff4 	.word	0x20000ff4

08004eec <osSemaphoreAcquire>:
 8004eec:	b513      	push	{r0, r1, r4, lr}
 8004eee:	460c      	mov	r4, r1
 8004ef0:	b918      	cbnz	r0, 8004efa <osSemaphoreAcquire+0xe>
 8004ef2:	f06f 0003 	mvn.w	r0, #3
 8004ef6:	b002      	add	sp, #8
 8004ef8:	bd10      	pop	{r4, pc}
 8004efa:	f3ef 8305 	mrs	r3, IPSR
 8004efe:	b163      	cbz	r3, 8004f1a <osSemaphoreAcquire+0x2e>
 8004f00:	2c00      	cmp	r4, #0
 8004f02:	d1f6      	bne.n	8004ef2 <osSemaphoreAcquire+0x6>
 8004f04:	aa01      	add	r2, sp, #4
 8004f06:	4621      	mov	r1, r4
 8004f08:	9401      	str	r4, [sp, #4]
 8004f0a:	f000 fd47 	bl	800599c <xQueueReceiveFromISR>
 8004f0e:	2801      	cmp	r0, #1
 8004f10:	d113      	bne.n	8004f3a <osSemaphoreAcquire+0x4e>
 8004f12:	9b01      	ldr	r3, [sp, #4]
 8004f14:	b9a3      	cbnz	r3, 8004f40 <osSemaphoreAcquire+0x54>
 8004f16:	2000      	movs	r0, #0
 8004f18:	e7ed      	b.n	8004ef6 <osSemaphoreAcquire+0xa>
 8004f1a:	f3ef 8310 	mrs	r3, PRIMASK
 8004f1e:	b913      	cbnz	r3, 8004f26 <osSemaphoreAcquire+0x3a>
 8004f20:	f3ef 8311 	mrs	r3, BASEPRI
 8004f24:	b11b      	cbz	r3, 8004f2e <osSemaphoreAcquire+0x42>
 8004f26:	4b0d      	ldr	r3, [pc, #52]	; (8004f5c <osSemaphoreAcquire+0x70>)
 8004f28:	681b      	ldr	r3, [r3, #0]
 8004f2a:	2b02      	cmp	r3, #2
 8004f2c:	d0e8      	beq.n	8004f00 <osSemaphoreAcquire+0x14>
 8004f2e:	4621      	mov	r1, r4
 8004f30:	f000 fc69 	bl	8005806 <xQueueSemaphoreTake>
 8004f34:	2801      	cmp	r0, #1
 8004f36:	d0ee      	beq.n	8004f16 <osSemaphoreAcquire+0x2a>
 8004f38:	b96c      	cbnz	r4, 8004f56 <osSemaphoreAcquire+0x6a>
 8004f3a:	f06f 0002 	mvn.w	r0, #2
 8004f3e:	e7da      	b.n	8004ef6 <osSemaphoreAcquire+0xa>
 8004f40:	f04f 23e0 	mov.w	r3, #3758153728	; 0xe000e000
 8004f44:	f04f 5280 	mov.w	r2, #268435456	; 0x10000000
 8004f48:	f8c3 2d04 	str.w	r2, [r3, #3332]	; 0xd04
 8004f4c:	f3bf 8f4f 	dsb	sy
 8004f50:	f3bf 8f6f 	isb	sy
 8004f54:	e7df      	b.n	8004f16 <osSemaphoreAcquire+0x2a>
 8004f56:	f06f 0001 	mvn.w	r0, #1
 8004f5a:	e7cc      	b.n	8004ef6 <osSemaphoreAcquire+0xa>
 8004f5c:	20000ff4 	.word	0x20000ff4

08004f60 <osSemaphoreRelease>:
 8004f60:	b513      	push	{r0, r1, r4, lr}
 8004f62:	b370      	cbz	r0, 8004fc2 <osSemaphoreRelease+0x62>
 8004f64:	f3ef 8305 	mrs	r3, IPSR
 8004f68:	b14b      	cbz	r3, 8004f7e <osSemaphoreRelease+0x1e>
 8004f6a:	2400      	movs	r4, #0
 8004f6c:	a901      	add	r1, sp, #4
 8004f6e:	9401      	str	r4, [sp, #4]
 8004f70:	f000 fb48 	bl	8005604 <xQueueGiveFromISR>
 8004f74:	2801      	cmp	r0, #1
 8004f76:	d014      	beq.n	8004fa2 <osSemaphoreRelease+0x42>
 8004f78:	f06f 0002 	mvn.w	r0, #2
 8004f7c:	e014      	b.n	8004fa8 <osSemaphoreRelease+0x48>
 8004f7e:	f3ef 8310 	mrs	r3, PRIMASK
 8004f82:	b913      	cbnz	r3, 8004f8a <osSemaphoreRelease+0x2a>
 8004f84:	f3ef 8311 	mrs	r3, BASEPRI
 8004f88:	b11b      	cbz	r3, 8004f92 <osSemaphoreRelease+0x32>
 8004f8a:	4b0f      	ldr	r3, [pc, #60]	; (8004fc8 <osSemaphoreRelease+0x68>)
 8004f8c:	681b      	ldr	r3, [r3, #0]
 8004f8e:	2b02      	cmp	r3, #2
 8004f90:	d0eb      	beq.n	8004f6a <osSemaphoreRelease+0xa>
 8004f92:	2300      	movs	r3, #0
 8004f94:	461a      	mov	r2, r3
 8004f96:	4619      	mov	r1, r3
 8004f98:	f000 fa10 	bl	80053bc <xQueueGenericSend>
 8004f9c:	2801      	cmp	r0, #1
 8004f9e:	d002      	beq.n	8004fa6 <osSemaphoreRelease+0x46>
 8004fa0:	e7ea      	b.n	8004f78 <osSemaphoreRelease+0x18>
 8004fa2:	9b01      	ldr	r3, [sp, #4]
 8004fa4:	b913      	cbnz	r3, 8004fac <osSemaphoreRelease+0x4c>
 8004fa6:	2000      	movs	r0, #0
 8004fa8:	b002      	add	sp, #8
 8004faa:	bd10      	pop	{r4, pc}
 8004fac:	f04f 23e0 	mov.w	r3, #3758153728	; 0xe000e000
 8004fb0:	f04f 5280 	mov.w	r2, #268435456	; 0x10000000
 8004fb4:	f8c3 2d04 	str.w	r2, [r3, #3332]	; 0xd04
 8004fb8:	f3bf 8f4f 	dsb	sy
 8004fbc:	f3bf 8f6f 	isb	sy
 8004fc0:	e7f1      	b.n	8004fa6 <osSemaphoreRelease+0x46>
 8004fc2:	f06f 0003 	mvn.w	r0, #3
 8004fc6:	e7ef      	b.n	8004fa8 <osSemaphoreRelease+0x48>
 8004fc8:	20000ff4 	.word	0x20000ff4

08004fcc <vApplicationGetIdleTaskMemory>:
 8004fcc:	4b03      	ldr	r3, [pc, #12]	; (8004fdc <vApplicationGetIdleTaskMemory+0x10>)
 8004fce:	6003      	str	r3, [r0, #0]
 8004fd0:	4b03      	ldr	r3, [pc, #12]	; (8004fe0 <vApplicationGetIdleTaskMemory+0x14>)
 8004fd2:	600b      	str	r3, [r1, #0]
 8004fd4:	2380      	movs	r3, #128	; 0x80
 8004fd6:	6013      	str	r3, [r2, #0]
 8004fd8:	4770      	bx	lr
 8004fda:	bf00      	nop
 8004fdc:	20000f44 	.word	0x20000f44
 8004fe0:	20000d44 	.word	0x20000d44

08004fe4 <vApplicationGetTimerTaskMemory>:
 8004fe4:	4b03      	ldr	r3, [pc, #12]	; (8004ff4 <vApplicationGetTimerTaskMemory+0x10>)
 8004fe6:	6003      	str	r3, [r0, #0]
 8004fe8:	4b03      	ldr	r3, [pc, #12]	; (8004ff8 <vApplicationGetTimerTaskMemory+0x14>)
 8004fea:	600b      	str	r3, [r1, #0]
 8004fec:	f44f 7380 	mov.w	r3, #256	; 0x100
 8004ff0:	6013      	str	r3, [r2, #0]
 8004ff2:	4770      	bx	lr
 8004ff4:	200013f8 	.word	0x200013f8
 8004ff8:	20000ff8 	.word	0x20000ff8

08004ffc <vListInitialise>:
 8004ffc:	f100 0308 	add.w	r3, r0, #8
 8005000:	f04f 32ff 	mov.w	r2, #4294967295
 8005004:	6043      	str	r3, [r0, #4]
 8005006:	6103      	str	r3, [r0, #16]
 8005008:	e9c0 2302 	strd	r2, r3, [r0, #8]
 800500c:	2300      	movs	r3, #0
 800500e:	6003      	str	r3, [r0, #0]
 8005010:	4770      	bx	lr

08005012 <vListInitialiseItem>:
 8005012:	2300      	movs	r3, #0
 8005014:	6103      	str	r3, [r0, #16]
 8005016:	4770      	bx	lr

08005018 <vListInsertEnd>:
 8005018:	6843      	ldr	r3, [r0, #4]
 800501a:	689a      	ldr	r2, [r3, #8]
 800501c:	604b      	str	r3, [r1, #4]
 800501e:	608a      	str	r2, [r1, #8]
 8005020:	689a      	ldr	r2, [r3, #8]
 8005022:	6051      	str	r1, [r2, #4]
 8005024:	6099      	str	r1, [r3, #8]
 8005026:	6803      	ldr	r3, [r0, #0]
 8005028:	6108      	str	r0, [r1, #16]
 800502a:	3301      	adds	r3, #1
 800502c:	6003      	str	r3, [r0, #0]
 800502e:	4770      	bx	lr

08005030 <vListInsert>:
 8005030:	b530      	push	{r4, r5, lr}
 8005032:	680c      	ldr	r4, [r1, #0]
 8005034:	1c63      	adds	r3, r4, #1
 8005036:	d10a      	bne.n	800504e <vListInsert+0x1e>
 8005038:	6903      	ldr	r3, [r0, #16]
 800503a:	685a      	ldr	r2, [r3, #4]
 800503c:	604a      	str	r2, [r1, #4]
 800503e:	6091      	str	r1, [r2, #8]
 8005040:	608b      	str	r3, [r1, #8]
 8005042:	6059      	str	r1, [r3, #4]
 8005044:	6803      	ldr	r3, [r0, #0]
 8005046:	6108      	str	r0, [r1, #16]
 8005048:	3301      	adds	r3, #1
 800504a:	6003      	str	r3, [r0, #0]
 800504c:	bd30      	pop	{r4, r5, pc}
 800504e:	f100 0208 	add.w	r2, r0, #8
 8005052:	4613      	mov	r3, r2
 8005054:	6852      	ldr	r2, [r2, #4]
 8005056:	6815      	ldr	r5, [r2, #0]
 8005058:	42a5      	cmp	r5, r4
 800505a:	d9fa      	bls.n	8005052 <vListInsert+0x22>
 800505c:	e7ed      	b.n	800503a <vListInsert+0xa>

0800505e <uxListRemove>:
 800505e:	6903      	ldr	r3, [r0, #16]
 8005060:	e9d0 1201 	ldrd	r1, r2, [r0, #4]
 8005064:	608a      	str	r2, [r1, #8]
 8005066:	6051      	str	r1, [r2, #4]
 8005068:	6859      	ldr	r1, [r3, #4]
 800506a:	4281      	cmp	r1, r0
 800506c:	bf08      	it	eq
 800506e:	605a      	streq	r2, [r3, #4]
 8005070:	2200      	movs	r2, #0
 8005072:	6102      	str	r2, [r0, #16]
 8005074:	681a      	ldr	r2, [r3, #0]
 8005076:	3a01      	subs	r2, #1
 8005078:	601a      	str	r2, [r3, #0]
 800507a:	6818      	ldr	r0, [r3, #0]
 800507c:	4770      	bx	lr

0800507e <prvIsQueueEmpty>:
 800507e:	b510      	push	{r4, lr}
 8005080:	4604      	mov	r4, r0
 8005082:	f001 fd87 	bl	8006b94 <vPortEnterCritical>
 8005086:	6ba4      	ldr	r4, [r4, #56]	; 0x38
 8005088:	f001 fda8 	bl	8006bdc <vPortExitCritical>
 800508c:	fab4 f084 	clz	r0, r4
 8005090:	0940      	lsrs	r0, r0, #5
 8005092:	bd10      	pop	{r4, pc}

08005094 <prvCopyDataToQueue>:
 8005094:	b5f8      	push	{r3, r4, r5, r6, r7, lr}
 8005096:	4615      	mov	r5, r2
 8005098:	6c02      	ldr	r2, [r0, #64]	; 0x40
 800509a:	4604      	mov	r4, r0
 800509c:	6b86      	ldr	r6, [r0, #56]	; 0x38
 800509e:	b952      	cbnz	r2, 80050b6 <prvCopyDataToQueue+0x22>
 80050a0:	6807      	ldr	r7, [r0, #0]
 80050a2:	bb47      	cbnz	r7, 80050f6 <prvCopyDataToQueue+0x62>
 80050a4:	6880      	ldr	r0, [r0, #8]
 80050a6:	f001 fa6d 	bl	8006584 <xTaskPriorityDisinherit>
 80050aa:	4605      	mov	r5, r0
 80050ac:	60a7      	str	r7, [r4, #8]
 80050ae:	3601      	adds	r6, #1
 80050b0:	4628      	mov	r0, r5
 80050b2:	63a6      	str	r6, [r4, #56]	; 0x38
 80050b4:	bdf8      	pop	{r3, r4, r5, r6, r7, pc}
 80050b6:	b965      	cbnz	r5, 80050d2 <prvCopyDataToQueue+0x3e>
 80050b8:	6840      	ldr	r0, [r0, #4]
 80050ba:	f003 fa42 	bl	8008542 <memcpy>
 80050be:	6863      	ldr	r3, [r4, #4]
 80050c0:	6c22      	ldr	r2, [r4, #64]	; 0x40
 80050c2:	4413      	add	r3, r2
 80050c4:	68a2      	ldr	r2, [r4, #8]
 80050c6:	4293      	cmp	r3, r2
 80050c8:	6063      	str	r3, [r4, #4]
 80050ca:	d3f0      	bcc.n	80050ae <prvCopyDataToQueue+0x1a>
 80050cc:	6823      	ldr	r3, [r4, #0]
 80050ce:	6063      	str	r3, [r4, #4]
 80050d0:	e7ed      	b.n	80050ae <prvCopyDataToQueue+0x1a>
 80050d2:	68c0      	ldr	r0, [r0, #12]
 80050d4:	f003 fa35 	bl	8008542 <memcpy>
 80050d8:	6c22      	ldr	r2, [r4, #64]	; 0x40
 80050da:	68e3      	ldr	r3, [r4, #12]
 80050dc:	4251      	negs	r1, r2
 80050de:	1a9b      	subs	r3, r3, r2
 80050e0:	6822      	ldr	r2, [r4, #0]
 80050e2:	4293      	cmp	r3, r2
 80050e4:	60e3      	str	r3, [r4, #12]
 80050e6:	bf3e      	ittt	cc
 80050e8:	68a3      	ldrcc	r3, [r4, #8]
 80050ea:	185b      	addcc	r3, r3, r1
 80050ec:	60e3      	strcc	r3, [r4, #12]
 80050ee:	2d02      	cmp	r5, #2
 80050f0:	d101      	bne.n	80050f6 <prvCopyDataToQueue+0x62>
 80050f2:	b116      	cbz	r6, 80050fa <prvCopyDataToQueue+0x66>
 80050f4:	3e01      	subs	r6, #1
 80050f6:	2500      	movs	r5, #0
 80050f8:	e7d9      	b.n	80050ae <prvCopyDataToQueue+0x1a>
 80050fa:	4635      	mov	r5, r6
 80050fc:	e7d7      	b.n	80050ae <prvCopyDataToQueue+0x1a>

080050fe <prvCopyDataFromQueue>:
 80050fe:	4603      	mov	r3, r0
 8005100:	4608      	mov	r0, r1
 8005102:	6c1a      	ldr	r2, [r3, #64]	; 0x40
 8005104:	b410      	push	{r4}
 8005106:	b162      	cbz	r2, 8005122 <prvCopyDataFromQueue+0x24>
 8005108:	68dc      	ldr	r4, [r3, #12]
 800510a:	6899      	ldr	r1, [r3, #8]
 800510c:	4414      	add	r4, r2
 800510e:	428c      	cmp	r4, r1
 8005110:	60dc      	str	r4, [r3, #12]
 8005112:	f85d 4b04 	ldr.w	r4, [sp], #4
 8005116:	bf24      	itt	cs
 8005118:	6819      	ldrcs	r1, [r3, #0]
 800511a:	60d9      	strcs	r1, [r3, #12]
 800511c:	68d9      	ldr	r1, [r3, #12]
 800511e:	f003 ba10 	b.w	8008542 <memcpy>
 8005122:	f85d 4b04 	ldr.w	r4, [sp], #4
 8005126:	4770      	bx	lr

08005128 <prvUnlockQueue>:
 8005128:	b570      	push	{r4, r5, r6, lr}
 800512a:	4604      	mov	r4, r0
 800512c:	f001 fd32 	bl	8006b94 <vPortEnterCritical>
 8005130:	f894 5045 	ldrb.w	r5, [r4, #69]	; 0x45
 8005134:	f104 0624 	add.w	r6, r4, #36	; 0x24
 8005138:	b26d      	sxtb	r5, r5
 800513a:	2d00      	cmp	r5, #0
 800513c:	dc14      	bgt.n	8005168 <prvUnlockQueue+0x40>
 800513e:	23ff      	movs	r3, #255	; 0xff
 8005140:	f104 0610 	add.w	r6, r4, #16
 8005144:	f884 3045 	strb.w	r3, [r4, #69]	; 0x45
 8005148:	f001 fd48 	bl	8006bdc <vPortExitCritical>
 800514c:	f001 fd22 	bl	8006b94 <vPortEnterCritical>
 8005150:	f894 5044 	ldrb.w	r5, [r4, #68]	; 0x44
 8005154:	b26d      	sxtb	r5, r5
 8005156:	2d00      	cmp	r5, #0
 8005158:	dc12      	bgt.n	8005180 <prvUnlockQueue+0x58>
 800515a:	23ff      	movs	r3, #255	; 0xff
 800515c:	f884 3044 	strb.w	r3, [r4, #68]	; 0x44
 8005160:	e8bd 4070 	ldmia.w	sp!, {r4, r5, r6, lr}
 8005164:	f001 bd3a 	b.w	8006bdc <vPortExitCritical>
 8005168:	6a63      	ldr	r3, [r4, #36]	; 0x24
 800516a:	2b00      	cmp	r3, #0
 800516c:	d0e7      	beq.n	800513e <prvUnlockQueue+0x16>
 800516e:	4630      	mov	r0, r6
 8005170:	f001 f920 	bl	80063b4 <xTaskRemoveFromEventList>
 8005174:	b108      	cbz	r0, 800517a <prvUnlockQueue+0x52>
 8005176:	f001 f9af 	bl	80064d8 <vTaskMissedYield>
 800517a:	3d01      	subs	r5, #1
 800517c:	b26d      	sxtb	r5, r5
 800517e:	e7dc      	b.n	800513a <prvUnlockQueue+0x12>
 8005180:	6923      	ldr	r3, [r4, #16]
 8005182:	2b00      	cmp	r3, #0
 8005184:	d0e9      	beq.n	800515a <prvUnlockQueue+0x32>
 8005186:	4630      	mov	r0, r6
 8005188:	f001 f914 	bl	80063b4 <xTaskRemoveFromEventList>
 800518c:	b108      	cbz	r0, 8005192 <prvUnlockQueue+0x6a>
 800518e:	f001 f9a3 	bl	80064d8 <vTaskMissedYield>
 8005192:	3d01      	subs	r5, #1
 8005194:	b26d      	sxtb	r5, r5
 8005196:	e7de      	b.n	8005156 <prvUnlockQueue+0x2e>

08005198 <xQueueGenericReset>:
 8005198:	b538      	push	{r3, r4, r5, lr}
 800519a:	460d      	mov	r5, r1
 800519c:	4604      	mov	r4, r0
 800519e:	b950      	cbnz	r0, 80051b6 <xQueueGenericReset+0x1e>
 80051a0:	f04f 0350 	mov.w	r3, #80	; 0x50
 80051a4:	b672      	cpsid	i
 80051a6:	f383 8811 	msr	BASEPRI, r3
 80051aa:	f3bf 8f6f 	isb	sy
 80051ae:	f3bf 8f4f 	dsb	sy
 80051b2:	b662      	cpsie	i
 80051b4:	e7fe      	b.n	80051b4 <xQueueGenericReset+0x1c>
 80051b6:	f001 fced 	bl	8006b94 <vPortEnterCritical>
 80051ba:	6822      	ldr	r2, [r4, #0]
 80051bc:	e9d4 310f 	ldrd	r3, r1, [r4, #60]	; 0x3c
 80051c0:	6062      	str	r2, [r4, #4]
 80051c2:	434b      	muls	r3, r1
 80051c4:	18d0      	adds	r0, r2, r3
 80051c6:	1a5b      	subs	r3, r3, r1
 80051c8:	60a0      	str	r0, [r4, #8]
 80051ca:	441a      	add	r2, r3
 80051cc:	2000      	movs	r0, #0
 80051ce:	23ff      	movs	r3, #255	; 0xff
 80051d0:	60e2      	str	r2, [r4, #12]
 80051d2:	63a0      	str	r0, [r4, #56]	; 0x38
 80051d4:	f884 3044 	strb.w	r3, [r4, #68]	; 0x44
 80051d8:	f884 3045 	strb.w	r3, [r4, #69]	; 0x45
 80051dc:	b9a5      	cbnz	r5, 8005208 <xQueueGenericReset+0x70>
 80051de:	6923      	ldr	r3, [r4, #16]
 80051e0:	b173      	cbz	r3, 8005200 <xQueueGenericReset+0x68>
 80051e2:	f104 0010 	add.w	r0, r4, #16
 80051e6:	f001 f8e5 	bl	80063b4 <xTaskRemoveFromEventList>
 80051ea:	b148      	cbz	r0, 8005200 <xQueueGenericReset+0x68>
 80051ec:	f04f 23e0 	mov.w	r3, #3758153728	; 0xe000e000
 80051f0:	f04f 5280 	mov.w	r2, #268435456	; 0x10000000
 80051f4:	f8c3 2d04 	str.w	r2, [r3, #3332]	; 0xd04
 80051f8:	f3bf 8f4f 	dsb	sy
 80051fc:	f3bf 8f6f 	isb	sy
 8005200:	f001 fcec 	bl	8006bdc <vPortExitCritical>
 8005204:	2001      	movs	r0, #1
 8005206:	bd38      	pop	{r3, r4, r5, pc}
 8005208:	f104 0010 	add.w	r0, r4, #16
 800520c:	f7ff fef6 	bl	8004ffc <vListInitialise>
 8005210:	f104 0024 	add.w	r0, r4, #36	; 0x24
 8005214:	f7ff fef2 	bl	8004ffc <vListInitialise>
 8005218:	e7f2      	b.n	8005200 <xQueueGenericReset+0x68>

0800521a <xQueueGenericCreateStatic.part.0>:
 800521a:	b513      	push	{r0, r1, r4, lr}
 800521c:	461c      	mov	r4, r3
 800521e:	b953      	cbnz	r3, 8005236 <xQueueGenericCreateStatic.part.0+0x1c>
 8005220:	f04f 0350 	mov.w	r3, #80	; 0x50
 8005224:	b672      	cpsid	i
 8005226:	f383 8811 	msr	BASEPRI, r3
 800522a:	f3bf 8f6f 	isb	sy
 800522e:	f3bf 8f4f 	dsb	sy
 8005232:	b662      	cpsie	i
 8005234:	e7fe      	b.n	8005234 <xQueueGenericCreateStatic.part.0+0x1a>
 8005236:	b15a      	cbz	r2, 8005250 <xQueueGenericCreateStatic.part.0+0x36>
 8005238:	b9b1      	cbnz	r1, 8005268 <xQueueGenericCreateStatic.part.0+0x4e>
 800523a:	f04f 0350 	mov.w	r3, #80	; 0x50
 800523e:	b672      	cpsid	i
 8005240:	f383 8811 	msr	BASEPRI, r3
 8005244:	f3bf 8f6f 	isb	sy
 8005248:	f3bf 8f4f 	dsb	sy
 800524c:	b662      	cpsie	i
 800524e:	e7fe      	b.n	800524e <xQueueGenericCreateStatic.part.0+0x34>
 8005250:	b151      	cbz	r1, 8005268 <xQueueGenericCreateStatic.part.0+0x4e>
 8005252:	f04f 0350 	mov.w	r3, #80	; 0x50
 8005256:	b672      	cpsid	i
 8005258:	f383 8811 	msr	BASEPRI, r3
 800525c:	f3bf 8f6f 	isb	sy
 8005260:	f3bf 8f4f 	dsb	sy
 8005264:	b662      	cpsie	i
 8005266:	e7fe      	b.n	8005266 <xQueueGenericCreateStatic.part.0+0x4c>
 8005268:	2350      	movs	r3, #80	; 0x50
 800526a:	9301      	str	r3, [sp, #4]
 800526c:	9b01      	ldr	r3, [sp, #4]
 800526e:	2b50      	cmp	r3, #80	; 0x50
 8005270:	d00a      	beq.n	8005288 <xQueueGenericCreateStatic.part.0+0x6e>
 8005272:	f04f 0350 	mov.w	r3, #80	; 0x50
 8005276:	b672      	cpsid	i
 8005278:	f383 8811 	msr	BASEPRI, r3
 800527c:	f3bf 8f6f 	isb	sy
 8005280:	f3bf 8f4f 	dsb	sy
 8005284:	b662      	cpsie	i
 8005286:	e7fe      	b.n	8005286 <xQueueGenericCreateStatic.part.0+0x6c>
 8005288:	2900      	cmp	r1, #0
 800528a:	bf08      	it	eq
 800528c:	4622      	moveq	r2, r4
 800528e:	9b01      	ldr	r3, [sp, #4]
 8005290:	2301      	movs	r3, #1
 8005292:	6022      	str	r2, [r4, #0]
 8005294:	f884 3046 	strb.w	r3, [r4, #70]	; 0x46
 8005298:	e9c4 010f 	strd	r0, r1, [r4, #60]	; 0x3c
 800529c:	4619      	mov	r1, r3
 800529e:	4620      	mov	r0, r4
 80052a0:	f7ff ff7a 	bl	8005198 <xQueueGenericReset>
 80052a4:	f89d 3010 	ldrb.w	r3, [sp, #16]
 80052a8:	4620      	mov	r0, r4
 80052aa:	f884 304c 	strb.w	r3, [r4, #76]	; 0x4c
 80052ae:	b002      	add	sp, #8
 80052b0:	bd10      	pop	{r4, pc}

080052b2 <xQueueGenericCreateStatic>:
 80052b2:	b410      	push	{r4}
 80052b4:	f89d 4004 	ldrb.w	r4, [sp, #4]
 80052b8:	b950      	cbnz	r0, 80052d0 <xQueueGenericCreateStatic+0x1e>
 80052ba:	f04f 0350 	mov.w	r3, #80	; 0x50
 80052be:	b672      	cpsid	i
 80052c0:	f383 8811 	msr	BASEPRI, r3
 80052c4:	f3bf 8f6f 	isb	sy
 80052c8:	f3bf 8f4f 	dsb	sy
 80052cc:	b662      	cpsie	i
 80052ce:	e7fe      	b.n	80052ce <xQueueGenericCreateStatic+0x1c>
 80052d0:	9401      	str	r4, [sp, #4]
 80052d2:	f85d 4b04 	ldr.w	r4, [sp], #4
 80052d6:	f7ff bfa0 	b.w	800521a <xQueueGenericCreateStatic.part.0>

080052da <xQueueGenericCreate>:
 80052da:	b5f8      	push	{r3, r4, r5, r6, r7, lr}
 80052dc:	460d      	mov	r5, r1
 80052de:	4617      	mov	r7, r2
 80052e0:	4606      	mov	r6, r0
 80052e2:	b950      	cbnz	r0, 80052fa <xQueueGenericCreate+0x20>
 80052e4:	f04f 0350 	mov.w	r3, #80	; 0x50
 80052e8:	b672      	cpsid	i
 80052ea:	f383 8811 	msr	BASEPRI, r3
 80052ee:	f3bf 8f6f 	isb	sy
 80052f2:	f3bf 8f4f 	dsb	sy
 80052f6:	b662      	cpsie	i
 80052f8:	e7fe      	b.n	80052f8 <xQueueGenericCreate+0x1e>
 80052fa:	4348      	muls	r0, r1
 80052fc:	3050      	adds	r0, #80	; 0x50
 80052fe:	f001 fda1 	bl	8006e44 <pvPortMalloc>
 8005302:	4604      	mov	r4, r0
 8005304:	b170      	cbz	r0, 8005324 <xQueueGenericCreate+0x4a>
 8005306:	2300      	movs	r3, #0
 8005308:	f880 3046 	strb.w	r3, [r0, #70]	; 0x46
 800530c:	b165      	cbz	r5, 8005328 <xQueueGenericCreate+0x4e>
 800530e:	f100 0350 	add.w	r3, r0, #80	; 0x50
 8005312:	2101      	movs	r1, #1
 8005314:	4620      	mov	r0, r4
 8005316:	6023      	str	r3, [r4, #0]
 8005318:	e9c4 650f 	strd	r6, r5, [r4, #60]	; 0x3c
 800531c:	f7ff ff3c 	bl	8005198 <xQueueGenericReset>
 8005320:	f884 704c 	strb.w	r7, [r4, #76]	; 0x4c
 8005324:	4620      	mov	r0, r4
 8005326:	bdf8      	pop	{r3, r4, r5, r6, r7, pc}
 8005328:	4603      	mov	r3, r0
 800532a:	e7f2      	b.n	8005312 <xQueueGenericCreate+0x38>

0800532c <xQueueCreateCountingSemaphoreStatic>:
 800532c:	b513      	push	{r0, r1, r4, lr}
 800532e:	4613      	mov	r3, r2
 8005330:	460c      	mov	r4, r1
 8005332:	b950      	cbnz	r0, 800534a <xQueueCreateCountingSemaphoreStatic+0x1e>
 8005334:	f04f 0350 	mov.w	r3, #80	; 0x50
 8005338:	b672      	cpsid	i
 800533a:	f383 8811 	msr	BASEPRI, r3
 800533e:	f3bf 8f6f 	isb	sy
 8005342:	f3bf 8f4f 	dsb	sy
 8005346:	b662      	cpsie	i
 8005348:	e7fe      	b.n	8005348 <xQueueCreateCountingSemaphoreStatic+0x1c>
 800534a:	4288      	cmp	r0, r1
 800534c:	d20a      	bcs.n	8005364 <xQueueCreateCountingSemaphoreStatic+0x38>
 800534e:	f04f 0350 	mov.w	r3, #80	; 0x50
 8005352:	b672      	cpsid	i
 8005354:	f383 8811 	msr	BASEPRI, r3
 8005358:	f3bf 8f6f 	isb	sy
 800535c:	f3bf 8f4f 	dsb	sy
 8005360:	b662      	cpsie	i
 8005362:	e7fe      	b.n	8005362 <xQueueCreateCountingSemaphoreStatic+0x36>
 8005364:	2202      	movs	r2, #2
 8005366:	9200      	str	r2, [sp, #0]
 8005368:	2200      	movs	r2, #0
 800536a:	4611      	mov	r1, r2
 800536c:	f7ff ffa1 	bl	80052b2 <xQueueGenericCreateStatic>
 8005370:	b100      	cbz	r0, 8005374 <xQueueCreateCountingSemaphoreStatic+0x48>
 8005372:	6384      	str	r4, [r0, #56]	; 0x38
 8005374:	b002      	add	sp, #8
 8005376:	bd10      	pop	{r4, pc}

08005378 <xQueueCreateCountingSemaphore>:
 8005378:	b510      	push	{r4, lr}
 800537a:	460c      	mov	r4, r1
 800537c:	b950      	cbnz	r0, 8005394 <xQueueCreateCountingSemaphore+0x1c>
 800537e:	f04f 0350 	mov.w	r3, #80	; 0x50
 8005382:	b672      	cpsid	i
 8005384:	f383 8811 	msr	BASEPRI, r3
 8005388:	f3bf 8f6f 	isb	sy
 800538c:	f3bf 8f4f 	dsb	sy
 8005390:	b662      	cpsie	i
 8005392:	e7fe      	b.n	8005392 <xQueueCreateCountingSemaphore+0x1a>
 8005394:	4288      	cmp	r0, r1
 8005396:	d20a      	bcs.n	80053ae <xQueueCreateCountingSemaphore+0x36>
 8005398:	f04f 0350 	mov.w	r3, #80	; 0x50
 800539c:	b672      	cpsid	i
 800539e:	f383 8811 	msr	BASEPRI, r3
 80053a2:	f3bf 8f6f 	isb	sy
 80053a6:	f3bf 8f4f 	dsb	sy
 80053aa:	b662      	cpsie	i
 80053ac:	e7fe      	b.n	80053ac <xQueueCreateCountingSemaphore+0x34>
 80053ae:	2202      	movs	r2, #2
 80053b0:	2100      	movs	r1, #0
 80053b2:	f7ff ff92 	bl	80052da <xQueueGenericCreate>
 80053b6:	b100      	cbz	r0, 80053ba <xQueueCreateCountingSemaphore+0x42>
 80053b8:	6384      	str	r4, [r0, #56]	; 0x38
 80053ba:	bd10      	pop	{r4, pc}

080053bc <xQueueGenericSend>:
 80053bc:	e92d 43f0 	stmdb	sp!, {r4, r5, r6, r7, r8, r9, lr}
 80053c0:	b085      	sub	sp, #20
 80053c2:	4688      	mov	r8, r1
 80053c4:	461f      	mov	r7, r3
 80053c6:	4604      	mov	r4, r0
 80053c8:	9201      	str	r2, [sp, #4]
 80053ca:	b950      	cbnz	r0, 80053e2 <xQueueGenericSend+0x26>
 80053cc:	f04f 0350 	mov.w	r3, #80	; 0x50
 80053d0:	b672      	cpsid	i
 80053d2:	f383 8811 	msr	BASEPRI, r3
 80053d6:	f3bf 8f6f 	isb	sy
 80053da:	f3bf 8f4f 	dsb	sy
 80053de:	b662      	cpsie	i
 80053e0:	e7fe      	b.n	80053e0 <xQueueGenericSend+0x24>
 80053e2:	b961      	cbnz	r1, 80053fe <xQueueGenericSend+0x42>
 80053e4:	6c03      	ldr	r3, [r0, #64]	; 0x40
 80053e6:	b153      	cbz	r3, 80053fe <xQueueGenericSend+0x42>
 80053e8:	f04f 0350 	mov.w	r3, #80	; 0x50
 80053ec:	b672      	cpsid	i
 80053ee:	f383 8811 	msr	BASEPRI, r3
 80053f2:	f3bf 8f6f 	isb	sy
 80053f6:	f3bf 8f4f 	dsb	sy
 80053fa:	b662      	cpsie	i
 80053fc:	e7fe      	b.n	80053fc <xQueueGenericSend+0x40>
 80053fe:	2f02      	cmp	r7, #2
 8005400:	d10d      	bne.n	800541e <xQueueGenericSend+0x62>
 8005402:	6be3      	ldr	r3, [r4, #60]	; 0x3c
 8005404:	2b01      	cmp	r3, #1
 8005406:	d00a      	beq.n	800541e <xQueueGenericSend+0x62>
 8005408:	f04f 0350 	mov.w	r3, #80	; 0x50
 800540c:	b672      	cpsid	i
 800540e:	f383 8811 	msr	BASEPRI, r3
 8005412:	f3bf 8f6f 	isb	sy
 8005416:	f3bf 8f4f 	dsb	sy
 800541a:	b662      	cpsie	i
 800541c:	e7fe      	b.n	800541c <xQueueGenericSend+0x60>
 800541e:	f001 f861 	bl	80064e4 <xTaskGetSchedulerState>
 8005422:	4606      	mov	r6, r0
 8005424:	b960      	cbnz	r0, 8005440 <xQueueGenericSend+0x84>
 8005426:	9b01      	ldr	r3, [sp, #4]
 8005428:	b15b      	cbz	r3, 8005442 <xQueueGenericSend+0x86>
 800542a:	f04f 0350 	mov.w	r3, #80	; 0x50
 800542e:	b672      	cpsid	i
 8005430:	f383 8811 	msr	BASEPRI, r3
 8005434:	f3bf 8f6f 	isb	sy
 8005438:	f3bf 8f4f 	dsb	sy
 800543c:	b662      	cpsie	i
 800543e:	e7fe      	b.n	800543e <xQueueGenericSend+0x82>
 8005440:	2600      	movs	r6, #0
 8005442:	f04f 0900 	mov.w	r9, #0
 8005446:	e037      	b.n	80054b8 <xQueueGenericSend+0xfc>
 8005448:	9d01      	ldr	r5, [sp, #4]
 800544a:	b91d      	cbnz	r5, 8005454 <xQueueGenericSend+0x98>
 800544c:	f001 fbc6 	bl	8006bdc <vPortExitCritical>
 8005450:	2000      	movs	r0, #0
 8005452:	e052      	b.n	80054fa <xQueueGenericSend+0x13e>
 8005454:	b916      	cbnz	r6, 800545c <xQueueGenericSend+0xa0>
 8005456:	a802      	add	r0, sp, #8
 8005458:	f000 fff2 	bl	8006440 <vTaskInternalSetTimeOutState>
 800545c:	f001 fbbe 	bl	8006bdc <vPortExitCritical>
 8005460:	f000 fd92 	bl	8005f88 <vTaskSuspendAll>
 8005464:	f001 fb96 	bl	8006b94 <vPortEnterCritical>
 8005468:	f894 3044 	ldrb.w	r3, [r4, #68]	; 0x44
 800546c:	2bff      	cmp	r3, #255	; 0xff
 800546e:	d101      	bne.n	8005474 <xQueueGenericSend+0xb8>
 8005470:	f884 9044 	strb.w	r9, [r4, #68]	; 0x44
 8005474:	f894 3045 	ldrb.w	r3, [r4, #69]	; 0x45
 8005478:	2bff      	cmp	r3, #255	; 0xff
 800547a:	d101      	bne.n	8005480 <xQueueGenericSend+0xc4>
 800547c:	f884 9045 	strb.w	r9, [r4, #69]	; 0x45
 8005480:	f001 fbac 	bl	8006bdc <vPortExitCritical>
 8005484:	a901      	add	r1, sp, #4
 8005486:	a802      	add	r0, sp, #8
 8005488:	f000 ffe6 	bl	8006458 <xTaskCheckForTimeOut>
 800548c:	2800      	cmp	r0, #0
 800548e:	d14a      	bne.n	8005526 <xQueueGenericSend+0x16a>
 8005490:	f001 fb80 	bl	8006b94 <vPortEnterCritical>
 8005494:	6ba2      	ldr	r2, [r4, #56]	; 0x38
 8005496:	6be3      	ldr	r3, [r4, #60]	; 0x3c
 8005498:	429a      	cmp	r2, r3
 800549a:	d131      	bne.n	8005500 <xQueueGenericSend+0x144>
 800549c:	f001 fb9e 	bl	8006bdc <vPortExitCritical>
 80054a0:	9901      	ldr	r1, [sp, #4]
 80054a2:	f104 0010 	add.w	r0, r4, #16
 80054a6:	f000 ff49 	bl	800633c <vTaskPlaceOnEventList>
 80054aa:	4620      	mov	r0, r4
 80054ac:	f7ff fe3c 	bl	8005128 <prvUnlockQueue>
 80054b0:	f000 fe16 	bl	80060e0 <xTaskResumeAll>
 80054b4:	b360      	cbz	r0, 8005510 <xQueueGenericSend+0x154>
 80054b6:	2601      	movs	r6, #1
 80054b8:	f001 fb6c 	bl	8006b94 <vPortEnterCritical>
 80054bc:	6ba2      	ldr	r2, [r4, #56]	; 0x38
 80054be:	6be3      	ldr	r3, [r4, #60]	; 0x3c
 80054c0:	429a      	cmp	r2, r3
 80054c2:	d301      	bcc.n	80054c8 <xQueueGenericSend+0x10c>
 80054c4:	2f02      	cmp	r7, #2
 80054c6:	d1bf      	bne.n	8005448 <xQueueGenericSend+0x8c>
 80054c8:	463a      	mov	r2, r7
 80054ca:	4641      	mov	r1, r8
 80054cc:	4620      	mov	r0, r4
 80054ce:	f7ff fde1 	bl	8005094 <prvCopyDataToQueue>
 80054d2:	6a63      	ldr	r3, [r4, #36]	; 0x24
 80054d4:	b11b      	cbz	r3, 80054de <xQueueGenericSend+0x122>
 80054d6:	f104 0024 	add.w	r0, r4, #36	; 0x24
 80054da:	f000 ff6b 	bl	80063b4 <xTaskRemoveFromEventList>
 80054de:	b148      	cbz	r0, 80054f4 <xQueueGenericSend+0x138>
 80054e0:	f04f 23e0 	mov.w	r3, #3758153728	; 0xe000e000
 80054e4:	f04f 5280 	mov.w	r2, #268435456	; 0x10000000
 80054e8:	f8c3 2d04 	str.w	r2, [r3, #3332]	; 0xd04
 80054ec:	f3bf 8f4f 	dsb	sy
 80054f0:	f3bf 8f6f 	isb	sy
 80054f4:	f001 fb72 	bl	8006bdc <vPortExitCritical>
 80054f8:	2001      	movs	r0, #1
 80054fa:	b005      	add	sp, #20
 80054fc:	e8bd 83f0 	ldmia.w	sp!, {r4, r5, r6, r7, r8, r9, pc}
 8005500:	f001 fb6c 	bl	8006bdc <vPortExitCritical>
 8005504:	4620      	mov	r0, r4
 8005506:	f7ff fe0f 	bl	8005128 <prvUnlockQueue>
 800550a:	f000 fde9 	bl	80060e0 <xTaskResumeAll>
 800550e:	e7d2      	b.n	80054b6 <xQueueGenericSend+0xfa>
 8005510:	f04f 23e0 	mov.w	r3, #3758153728	; 0xe000e000
 8005514:	f04f 5280 	mov.w	r2, #268435456	; 0x10000000
 8005518:	f8c3 2d04 	str.w	r2, [r3, #3332]	; 0xd04
 800551c:	f3bf 8f4f 	dsb	sy
 8005520:	f3bf 8f6f 	isb	sy
 8005524:	e7c7      	b.n	80054b6 <xQueueGenericSend+0xfa>
 8005526:	4620      	mov	r0, r4
 8005528:	f7ff fdfe 	bl	8005128 <prvUnlockQueue>
 800552c:	f000 fdd8 	bl	80060e0 <xTaskResumeAll>
 8005530:	e78e      	b.n	8005450 <xQueueGenericSend+0x94>

08005532 <xQueueGenericSendFromISR>:
 8005532:	e92d 43f8 	stmdb	sp!, {r3, r4, r5, r6, r7, r8, r9, lr}
 8005536:	4689      	mov	r9, r1
 8005538:	4690      	mov	r8, r2
 800553a:	461f      	mov	r7, r3
 800553c:	4604      	mov	r4, r0
 800553e:	b950      	cbnz	r0, 8005556 <xQueueGenericSendFromISR+0x24>
 8005540:	f04f 0350 	mov.w	r3, #80	; 0x50
 8005544:	b672      	cpsid	i
 8005546:	f383 8811 	msr	BASEPRI, r3
 800554a:	f3bf 8f6f 	isb	sy
 800554e:	f3bf 8f4f 	dsb	sy
 8005552:	b662      	cpsie	i
 8005554:	e7fe      	b.n	8005554 <xQueueGenericSendFromISR+0x22>
 8005556:	b961      	cbnz	r1, 8005572 <xQueueGenericSendFromISR+0x40>
 8005558:	6c03      	ldr	r3, [r0, #64]	; 0x40
 800555a:	b153      	cbz	r3, 8005572 <xQueueGenericSendFromISR+0x40>
 800555c:	f04f 0350 	mov.w	r3, #80	; 0x50
 8005560:	b672      	cpsid	i
 8005562:	f383 8811 	msr	BASEPRI, r3
 8005566:	f3bf 8f6f 	isb	sy
 800556a:	f3bf 8f4f 	dsb	sy
 800556e:	b662      	cpsie	i
 8005570:	e7fe      	b.n	8005570 <xQueueGenericSendFromISR+0x3e>
 8005572:	2f02      	cmp	r7, #2
 8005574:	d10d      	bne.n	8005592 <xQueueGenericSendFromISR+0x60>
 8005576:	6be3      	ldr	r3, [r4, #60]	; 0x3c
 8005578:	2b01      	cmp	r3, #1
 800557a:	d00a      	beq.n	8005592 <xQueueGenericSendFromISR+0x60>
 800557c:	f04f 0350 	mov.w	r3, #80	; 0x50
 8005580:	b672      	cpsid	i
 8005582:	f383 8811 	msr	BASEPRI, r3
 8005586:	f3bf 8f6f 	isb	sy
 800558a:	f3bf 8f4f 	dsb	sy
 800558e:	b662      	cpsie	i
 8005590:	e7fe      	b.n	8005590 <xQueueGenericSendFromISR+0x5e>
 8005592:	f001 fbff 	bl	8006d94 <vPortValidateInterruptPriority>
 8005596:	f3ef 8611 	mrs	r6, BASEPRI
 800559a:	f04f 0350 	mov.w	r3, #80	; 0x50
 800559e:	b672      	cpsid	i
 80055a0:	f383 8811 	msr	BASEPRI, r3
 80055a4:	f3bf 8f6f 	isb	sy
 80055a8:	f3bf 8f4f 	dsb	sy
 80055ac:	b662      	cpsie	i
 80055ae:	6ba2      	ldr	r2, [r4, #56]	; 0x38
 80055b0:	6be3      	ldr	r3, [r4, #60]	; 0x3c
 80055b2:	429a      	cmp	r2, r3
 80055b4:	d301      	bcc.n	80055ba <xQueueGenericSendFromISR+0x88>
 80055b6:	2f02      	cmp	r7, #2
 80055b8:	d122      	bne.n	8005600 <xQueueGenericSendFromISR+0xce>
 80055ba:	f894 5045 	ldrb.w	r5, [r4, #69]	; 0x45
 80055be:	463a      	mov	r2, r7
 80055c0:	4649      	mov	r1, r9
 80055c2:	4620      	mov	r0, r4
 80055c4:	b26d      	sxtb	r5, r5
 80055c6:	f7ff fd65 	bl	8005094 <prvCopyDataToQueue>
 80055ca:	1c6b      	adds	r3, r5, #1
 80055cc:	d113      	bne.n	80055f6 <xQueueGenericSendFromISR+0xc4>
 80055ce:	6a63      	ldr	r3, [r4, #36]	; 0x24
 80055d0:	b90b      	cbnz	r3, 80055d6 <xQueueGenericSendFromISR+0xa4>
 80055d2:	2001      	movs	r0, #1
 80055d4:	e00b      	b.n	80055ee <xQueueGenericSendFromISR+0xbc>
 80055d6:	f104 0024 	add.w	r0, r4, #36	; 0x24
 80055da:	f000 feeb 	bl	80063b4 <xTaskRemoveFromEventList>
 80055de:	2800      	cmp	r0, #0
 80055e0:	d0f7      	beq.n	80055d2 <xQueueGenericSendFromISR+0xa0>
 80055e2:	f1b8 0f00 	cmp.w	r8, #0
 80055e6:	d0f4      	beq.n	80055d2 <xQueueGenericSendFromISR+0xa0>
 80055e8:	2001      	movs	r0, #1
 80055ea:	f8c8 0000 	str.w	r0, [r8]
 80055ee:	f386 8811 	msr	BASEPRI, r6
 80055f2:	e8bd 83f8 	ldmia.w	sp!, {r3, r4, r5, r6, r7, r8, r9, pc}
 80055f6:	3501      	adds	r5, #1
 80055f8:	b26d      	sxtb	r5, r5
 80055fa:	f884 5045 	strb.w	r5, [r4, #69]	; 0x45
 80055fe:	e7e8      	b.n	80055d2 <xQueueGenericSendFromISR+0xa0>
 8005600:	2000      	movs	r0, #0
 8005602:	e7f4      	b.n	80055ee <xQueueGenericSendFromISR+0xbc>

08005604 <xQueueGiveFromISR>:
 8005604:	b570      	push	{r4, r5, r6, lr}
 8005606:	460d      	mov	r5, r1
 8005608:	4604      	mov	r4, r0
 800560a:	b950      	cbnz	r0, 8005622 <xQueueGiveFromISR+0x1e>
 800560c:	f04f 0350 	mov.w	r3, #80	; 0x50
 8005610:	b672      	cpsid	i
 8005612:	f383 8811 	msr	BASEPRI, r3
 8005616:	f3bf 8f6f 	isb	sy
 800561a:	f3bf 8f4f 	dsb	sy
 800561e:	b662      	cpsie	i
 8005620:	e7fe      	b.n	8005620 <xQueueGiveFromISR+0x1c>
 8005622:	6c03      	ldr	r3, [r0, #64]	; 0x40
 8005624:	b153      	cbz	r3, 800563c <xQueueGiveFromISR+0x38>
 8005626:	f04f 0350 	mov.w	r3, #80	; 0x50
 800562a:	b672      	cpsid	i
 800562c:	f383 8811 	msr	BASEPRI, r3
 8005630:	f3bf 8f6f 	isb	sy
 8005634:	f3bf 8f4f 	dsb	sy
 8005638:	b662      	cpsie	i
 800563a:	e7fe      	b.n	800563a <xQueueGiveFromISR+0x36>
 800563c:	6803      	ldr	r3, [r0, #0]
 800563e:	b963      	cbnz	r3, 800565a <xQueueGiveFromISR+0x56>
 8005640:	6883      	ldr	r3, [r0, #8]
 8005642:	b153      	cbz	r3, 800565a <xQueueGiveFromISR+0x56>
 8005644:	f04f 0350 	mov.w	r3, #80	; 0x50
 8005648:	b672      	cpsid	i
 800564a:	f383 8811 	msr	BASEPRI, r3
 800564e:	f3bf 8f6f 	isb	sy
 8005652:	f3bf 8f4f 	dsb	sy
 8005656:	b662      	cpsie	i
 8005658:	e7fe      	b.n	8005658 <xQueueGiveFromISR+0x54>
 800565a:	f001 fb9b 	bl	8006d94 <vPortValidateInterruptPriority>
 800565e:	f3ef 8611 	mrs	r6, BASEPRI
 8005662:	f04f 0350 	mov.w	r3, #80	; 0x50
 8005666:	b672      	cpsid	i
 8005668:	f383 8811 	msr	BASEPRI, r3
 800566c:	f3bf 8f6f 	isb	sy
 8005670:	f3bf 8f4f 	dsb	sy
 8005674:	b662      	cpsie	i
 8005676:	6ba2      	ldr	r2, [r4, #56]	; 0x38
 8005678:	6be3      	ldr	r3, [r4, #60]	; 0x3c
 800567a:	4293      	cmp	r3, r2
 800567c:	d91c      	bls.n	80056b8 <xQueueGiveFromISR+0xb4>
 800567e:	f894 1045 	ldrb.w	r1, [r4, #69]	; 0x45
 8005682:	3201      	adds	r2, #1
 8005684:	29ff      	cmp	r1, #255	; 0xff
 8005686:	b24b      	sxtb	r3, r1
 8005688:	63a2      	str	r2, [r4, #56]	; 0x38
 800568a:	d110      	bne.n	80056ae <xQueueGiveFromISR+0xaa>
 800568c:	6a63      	ldr	r3, [r4, #36]	; 0x24
 800568e:	b90b      	cbnz	r3, 8005694 <xQueueGiveFromISR+0x90>
 8005690:	2001      	movs	r0, #1
 8005692:	e009      	b.n	80056a8 <xQueueGiveFromISR+0xa4>
 8005694:	f104 0024 	add.w	r0, r4, #36	; 0x24
 8005698:	f000 fe8c 	bl	80063b4 <xTaskRemoveFromEventList>
 800569c:	2800      	cmp	r0, #0
 800569e:	d0f7      	beq.n	8005690 <xQueueGiveFromISR+0x8c>
 80056a0:	2d00      	cmp	r5, #0
 80056a2:	d0f5      	beq.n	8005690 <xQueueGiveFromISR+0x8c>
 80056a4:	2001      	movs	r0, #1
 80056a6:	6028      	str	r0, [r5, #0]
 80056a8:	f386 8811 	msr	BASEPRI, r6
 80056ac:	bd70      	pop	{r4, r5, r6, pc}
 80056ae:	3301      	adds	r3, #1
 80056b0:	b25b      	sxtb	r3, r3
 80056b2:	f884 3045 	strb.w	r3, [r4, #69]	; 0x45
 80056b6:	e7eb      	b.n	8005690 <xQueueGiveFromISR+0x8c>
 80056b8:	2000      	movs	r0, #0
 80056ba:	e7f5      	b.n	80056a8 <xQueueGiveFromISR+0xa4>

080056bc <xQueueReceive>:
 80056bc:	e92d 41ff 	stmdb	sp!, {r0, r1, r2, r3, r4, r5, r6, r7, r8, lr}
 80056c0:	460f      	mov	r7, r1
 80056c2:	4604      	mov	r4, r0
 80056c4:	9201      	str	r2, [sp, #4]
 80056c6:	b950      	cbnz	r0, 80056de <xQueueReceive+0x22>
 80056c8:	f04f 0350 	mov.w	r3, #80	; 0x50
 80056cc:	b672      	cpsid	i
 80056ce:	f383 8811 	msr	BASEPRI, r3
 80056d2:	f3bf 8f6f 	isb	sy
 80056d6:	f3bf 8f4f 	dsb	sy
 80056da:	b662      	cpsie	i
 80056dc:	e7fe      	b.n	80056dc <xQueueReceive+0x20>
 80056de:	b961      	cbnz	r1, 80056fa <xQueueReceive+0x3e>
 80056e0:	6c03      	ldr	r3, [r0, #64]	; 0x40
 80056e2:	b153      	cbz	r3, 80056fa <xQueueReceive+0x3e>
 80056e4:	f04f 0350 	mov.w	r3, #80	; 0x50
 80056e8:	b672      	cpsid	i
 80056ea:	f383 8811 	msr	BASEPRI, r3
 80056ee:	f3bf 8f6f 	isb	sy
 80056f2:	f3bf 8f4f 	dsb	sy
 80056f6:	b662      	cpsie	i
 80056f8:	e7fe      	b.n	80056f8 <xQueueReceive+0x3c>
 80056fa:	f000 fef3 	bl	80064e4 <xTaskGetSchedulerState>
 80056fe:	4606      	mov	r6, r0
 8005700:	b960      	cbnz	r0, 800571c <xQueueReceive+0x60>
 8005702:	9b01      	ldr	r3, [sp, #4]
 8005704:	b15b      	cbz	r3, 800571e <xQueueReceive+0x62>
 8005706:	f04f 0350 	mov.w	r3, #80	; 0x50
 800570a:	b672      	cpsid	i
 800570c:	f383 8811 	msr	BASEPRI, r3
 8005710:	f3bf 8f6f 	isb	sy
 8005714:	f3bf 8f4f 	dsb	sy
 8005718:	b662      	cpsie	i
 800571a:	e7fe      	b.n	800571a <xQueueReceive+0x5e>
 800571c:	2600      	movs	r6, #0
 800571e:	f04f 0800 	mov.w	r8, #0
 8005722:	e03d      	b.n	80057a0 <xQueueReceive+0xe4>
 8005724:	9d01      	ldr	r5, [sp, #4]
 8005726:	b91d      	cbnz	r5, 8005730 <xQueueReceive+0x74>
 8005728:	f001 fa58 	bl	8006bdc <vPortExitCritical>
 800572c:	2000      	movs	r0, #0
 800572e:	e056      	b.n	80057de <xQueueReceive+0x122>
 8005730:	b916      	cbnz	r6, 8005738 <xQueueReceive+0x7c>
 8005732:	a802      	add	r0, sp, #8
 8005734:	f000 fe84 	bl	8006440 <vTaskInternalSetTimeOutState>
 8005738:	f001 fa50 	bl	8006bdc <vPortExitCritical>
 800573c:	f000 fc24 	bl	8005f88 <vTaskSuspendAll>
 8005740:	f001 fa28 	bl	8006b94 <vPortEnterCritical>
 8005744:	f894 3044 	ldrb.w	r3, [r4, #68]	; 0x44
 8005748:	2bff      	cmp	r3, #255	; 0xff
 800574a:	d101      	bne.n	8005750 <xQueueReceive+0x94>
 800574c:	f884 8044 	strb.w	r8, [r4, #68]	; 0x44
 8005750:	f894 3045 	ldrb.w	r3, [r4, #69]	; 0x45
 8005754:	2bff      	cmp	r3, #255	; 0xff
 8005756:	d101      	bne.n	800575c <xQueueReceive+0xa0>
 8005758:	f884 8045 	strb.w	r8, [r4, #69]	; 0x45
 800575c:	f001 fa3e 	bl	8006bdc <vPortExitCritical>
 8005760:	a901      	add	r1, sp, #4
 8005762:	a802      	add	r0, sp, #8
 8005764:	f000 fe78 	bl	8006458 <xTaskCheckForTimeOut>
 8005768:	2800      	cmp	r0, #0
 800576a:	d141      	bne.n	80057f0 <xQueueReceive+0x134>
 800576c:	4620      	mov	r0, r4
 800576e:	f7ff fc86 	bl	800507e <prvIsQueueEmpty>
 8005772:	b3b8      	cbz	r0, 80057e4 <xQueueReceive+0x128>
 8005774:	9901      	ldr	r1, [sp, #4]
 8005776:	f104 0024 	add.w	r0, r4, #36	; 0x24
 800577a:	f000 fddf 	bl	800633c <vTaskPlaceOnEventList>
 800577e:	4620      	mov	r0, r4
 8005780:	f7ff fcd2 	bl	8005128 <prvUnlockQueue>
 8005784:	f000 fcac 	bl	80060e0 <xTaskResumeAll>
 8005788:	b948      	cbnz	r0, 800579e <xQueueReceive+0xe2>
 800578a:	f04f 23e0 	mov.w	r3, #3758153728	; 0xe000e000
 800578e:	f04f 5280 	mov.w	r2, #268435456	; 0x10000000
 8005792:	f8c3 2d04 	str.w	r2, [r3, #3332]	; 0xd04
 8005796:	f3bf 8f4f 	dsb	sy
 800579a:	f3bf 8f6f 	isb	sy
 800579e:	2601      	movs	r6, #1
 80057a0:	f001 f9f8 	bl	8006b94 <vPortEnterCritical>
 80057a4:	6ba5      	ldr	r5, [r4, #56]	; 0x38
 80057a6:	2d00      	cmp	r5, #0
 80057a8:	d0bc      	beq.n	8005724 <xQueueReceive+0x68>
 80057aa:	3d01      	subs	r5, #1
 80057ac:	4639      	mov	r1, r7
 80057ae:	4620      	mov	r0, r4
 80057b0:	f7ff fca5 	bl	80050fe <prvCopyDataFromQueue>
 80057b4:	63a5      	str	r5, [r4, #56]	; 0x38
 80057b6:	6923      	ldr	r3, [r4, #16]
 80057b8:	b173      	cbz	r3, 80057d8 <xQueueReceive+0x11c>
 80057ba:	f104 0010 	add.w	r0, r4, #16
 80057be:	f000 fdf9 	bl	80063b4 <xTaskRemoveFromEventList>
 80057c2:	b148      	cbz	r0, 80057d8 <xQueueReceive+0x11c>
 80057c4:	f04f 23e0 	mov.w	r3, #3758153728	; 0xe000e000
 80057c8:	f04f 5280 	mov.w	r2, #268435456	; 0x10000000
 80057cc:	f8c3 2d04 	str.w	r2, [r3, #3332]	; 0xd04
 80057d0:	f3bf 8f4f 	dsb	sy
 80057d4:	f3bf 8f6f 	isb	sy
 80057d8:	f001 fa00 	bl	8006bdc <vPortExitCritical>
 80057dc:	2001      	movs	r0, #1
 80057de:	b004      	add	sp, #16
 80057e0:	e8bd 81f0 	ldmia.w	sp!, {r4, r5, r6, r7, r8, pc}
 80057e4:	4620      	mov	r0, r4
 80057e6:	f7ff fc9f 	bl	8005128 <prvUnlockQueue>
 80057ea:	f000 fc79 	bl	80060e0 <xTaskResumeAll>
 80057ee:	e7d6      	b.n	800579e <xQueueReceive+0xe2>
 80057f0:	4620      	mov	r0, r4
 80057f2:	f7ff fc99 	bl	8005128 <prvUnlockQueue>
 80057f6:	f000 fc73 	bl	80060e0 <xTaskResumeAll>
 80057fa:	4620      	mov	r0, r4
 80057fc:	f7ff fc3f 	bl	800507e <prvIsQueueEmpty>
 8005800:	2800      	cmp	r0, #0
 8005802:	d0cc      	beq.n	800579e <xQueueReceive+0xe2>
 8005804:	e792      	b.n	800572c <xQueueReceive+0x70>

08005806 <xQueueSemaphoreTake>:
 8005806:	b5f0      	push	{r4, r5, r6, r7, lr}
 8005808:	b085      	sub	sp, #20
 800580a:	4604      	mov	r4, r0
 800580c:	9101      	str	r1, [sp, #4]
 800580e:	b950      	cbnz	r0, 8005826 <xQueueSemaphoreTake+0x20>
 8005810:	f04f 0350 	mov.w	r3, #80	; 0x50
 8005814:	b672      	cpsid	i
 8005816:	f383 8811 	msr	BASEPRI, r3
 800581a:	f3bf 8f6f 	isb	sy
 800581e:	f3bf 8f4f 	dsb	sy
 8005822:	b662      	cpsie	i
 8005824:	e7fe      	b.n	8005824 <xQueueSemaphoreTake+0x1e>
 8005826:	6c05      	ldr	r5, [r0, #64]	; 0x40
 8005828:	b155      	cbz	r5, 8005840 <xQueueSemaphoreTake+0x3a>
 800582a:	f04f 0350 	mov.w	r3, #80	; 0x50
 800582e:	b672      	cpsid	i
 8005830:	f383 8811 	msr	BASEPRI, r3
 8005834:	f3bf 8f6f 	isb	sy
 8005838:	f3bf 8f4f 	dsb	sy
 800583c:	b662      	cpsie	i
 800583e:	e7fe      	b.n	800583e <xQueueSemaphoreTake+0x38>
 8005840:	f000 fe50 	bl	80064e4 <xTaskGetSchedulerState>
 8005844:	4606      	mov	r6, r0
 8005846:	b960      	cbnz	r0, 8005862 <xQueueSemaphoreTake+0x5c>
 8005848:	9b01      	ldr	r3, [sp, #4]
 800584a:	b16b      	cbz	r3, 8005868 <xQueueSemaphoreTake+0x62>
 800584c:	f04f 0350 	mov.w	r3, #80	; 0x50
 8005850:	b672      	cpsid	i
 8005852:	f383 8811 	msr	BASEPRI, r3
 8005856:	f3bf 8f6f 	isb	sy
 800585a:	f3bf 8f4f 	dsb	sy
 800585e:	b662      	cpsie	i
 8005860:	e7fe      	b.n	8005860 <xQueueSemaphoreTake+0x5a>
 8005862:	462e      	mov	r6, r5
 8005864:	2700      	movs	r7, #0
 8005866:	e055      	b.n	8005914 <xQueueSemaphoreTake+0x10e>
 8005868:	4605      	mov	r5, r0
 800586a:	e7fb      	b.n	8005864 <xQueueSemaphoreTake+0x5e>
 800586c:	9b01      	ldr	r3, [sp, #4]
 800586e:	b973      	cbnz	r3, 800588e <xQueueSemaphoreTake+0x88>
 8005870:	b155      	cbz	r5, 8005888 <xQueueSemaphoreTake+0x82>
 8005872:	f04f 0350 	mov.w	r3, #80	; 0x50
 8005876:	b672      	cpsid	i
 8005878:	f383 8811 	msr	BASEPRI, r3
 800587c:	f3bf 8f6f 	isb	sy
 8005880:	f3bf 8f4f 	dsb	sy
 8005884:	b662      	cpsie	i
 8005886:	e7fe      	b.n	8005886 <xQueueSemaphoreTake+0x80>
 8005888:	f001 f9a8 	bl	8006bdc <vPortExitCritical>
 800588c:	e062      	b.n	8005954 <xQueueSemaphoreTake+0x14e>
 800588e:	b916      	cbnz	r6, 8005896 <xQueueSemaphoreTake+0x90>
 8005890:	a802      	add	r0, sp, #8
 8005892:	f000 fdd5 	bl	8006440 <vTaskInternalSetTimeOutState>
 8005896:	f001 f9a1 	bl	8006bdc <vPortExitCritical>
 800589a:	f000 fb75 	bl	8005f88 <vTaskSuspendAll>
 800589e:	f001 f979 	bl	8006b94 <vPortEnterCritical>
 80058a2:	f894 3044 	ldrb.w	r3, [r4, #68]	; 0x44
 80058a6:	2bff      	cmp	r3, #255	; 0xff
 80058a8:	d101      	bne.n	80058ae <xQueueSemaphoreTake+0xa8>
 80058aa:	f884 7044 	strb.w	r7, [r4, #68]	; 0x44
 80058ae:	f894 3045 	ldrb.w	r3, [r4, #69]	; 0x45
 80058b2:	2bff      	cmp	r3, #255	; 0xff
 80058b4:	d101      	bne.n	80058ba <xQueueSemaphoreTake+0xb4>
 80058b6:	f884 7045 	strb.w	r7, [r4, #69]	; 0x45
 80058ba:	f001 f98f 	bl	8006bdc <vPortExitCritical>
 80058be:	a901      	add	r1, sp, #4
 80058c0:	a802      	add	r0, sp, #8
 80058c2:	f000 fdc9 	bl	8006458 <xTaskCheckForTimeOut>
 80058c6:	2800      	cmp	r0, #0
 80058c8:	d14d      	bne.n	8005966 <xQueueSemaphoreTake+0x160>
 80058ca:	4620      	mov	r0, r4
 80058cc:	f7ff fbd7 	bl	800507e <prvIsQueueEmpty>
 80058d0:	2800      	cmp	r0, #0
 80058d2:	d042      	beq.n	800595a <xQueueSemaphoreTake+0x154>
 80058d4:	6823      	ldr	r3, [r4, #0]
 80058d6:	b93b      	cbnz	r3, 80058e8 <xQueueSemaphoreTake+0xe2>
 80058d8:	f001 f95c 	bl	8006b94 <vPortEnterCritical>
 80058dc:	68a0      	ldr	r0, [r4, #8]
 80058de:	f000 fe11 	bl	8006504 <xTaskPriorityInherit>
 80058e2:	4605      	mov	r5, r0
 80058e4:	f001 f97a 	bl	8006bdc <vPortExitCritical>
 80058e8:	9901      	ldr	r1, [sp, #4]
 80058ea:	f104 0024 	add.w	r0, r4, #36	; 0x24
 80058ee:	f000 fd25 	bl	800633c <vTaskPlaceOnEventList>
 80058f2:	4620      	mov	r0, r4
 80058f4:	f7ff fc18 	bl	8005128 <prvUnlockQueue>
 80058f8:	f000 fbf2 	bl	80060e0 <xTaskResumeAll>
 80058fc:	b948      	cbnz	r0, 8005912 <xQueueSemaphoreTake+0x10c>
 80058fe:	f04f 23e0 	mov.w	r3, #3758153728	; 0xe000e000
 8005902:	f04f 5280 	mov.w	r2, #268435456	; 0x10000000
 8005906:	f8c3 2d04 	str.w	r2, [r3, #3332]	; 0xd04
 800590a:	f3bf 8f4f 	dsb	sy
 800590e:	f3bf 8f6f 	isb	sy
 8005912:	2601      	movs	r6, #1
 8005914:	f001 f93e 	bl	8006b94 <vPortEnterCritical>
 8005918:	6ba3      	ldr	r3, [r4, #56]	; 0x38
 800591a:	2b00      	cmp	r3, #0
 800591c:	d0a6      	beq.n	800586c <xQueueSemaphoreTake+0x66>
 800591e:	3b01      	subs	r3, #1
 8005920:	63a3      	str	r3, [r4, #56]	; 0x38
 8005922:	6823      	ldr	r3, [r4, #0]
 8005924:	b913      	cbnz	r3, 800592c <xQueueSemaphoreTake+0x126>
 8005926:	f000 fecb 	bl	80066c0 <pvTaskIncrementMutexHeldCount>
 800592a:	60a0      	str	r0, [r4, #8]
 800592c:	6923      	ldr	r3, [r4, #16]
 800592e:	b173      	cbz	r3, 800594e <xQueueSemaphoreTake+0x148>
 8005930:	f104 0010 	add.w	r0, r4, #16
 8005934:	f000 fd3e 	bl	80063b4 <xTaskRemoveFromEventList>
 8005938:	b148      	cbz	r0, 800594e <xQueueSemaphoreTake+0x148>
 800593a:	f04f 23e0 	mov.w	r3, #3758153728	; 0xe000e000
 800593e:	f04f 5280 	mov.w	r2, #268435456	; 0x10000000
 8005942:	f8c3 2d04 	str.w	r2, [r3, #3332]	; 0xd04
 8005946:	f3bf 8f4f 	dsb	sy
 800594a:	f3bf 8f6f 	isb	sy
 800594e:	2501      	movs	r5, #1
 8005950:	f001 f944 	bl	8006bdc <vPortExitCritical>
 8005954:	4628      	mov	r0, r5
 8005956:	b005      	add	sp, #20
 8005958:	bdf0      	pop	{r4, r5, r6, r7, pc}
 800595a:	4620      	mov	r0, r4
 800595c:	f7ff fbe4 	bl	8005128 <prvUnlockQueue>
 8005960:	f000 fbbe 	bl	80060e0 <xTaskResumeAll>
 8005964:	e7d5      	b.n	8005912 <xQueueSemaphoreTake+0x10c>
 8005966:	4620      	mov	r0, r4
 8005968:	f7ff fbde 	bl	8005128 <prvUnlockQueue>
 800596c:	f000 fbb8 	bl	80060e0 <xTaskResumeAll>
 8005970:	4620      	mov	r0, r4
 8005972:	f7ff fb84 	bl	800507e <prvIsQueueEmpty>
 8005976:	2800      	cmp	r0, #0
 8005978:	d0cb      	beq.n	8005912 <xQueueSemaphoreTake+0x10c>
 800597a:	2d00      	cmp	r5, #0
 800597c:	d0ea      	beq.n	8005954 <xQueueSemaphoreTake+0x14e>
 800597e:	f001 f909 	bl	8006b94 <vPortEnterCritical>
 8005982:	6a61      	ldr	r1, [r4, #36]	; 0x24
 8005984:	b119      	cbz	r1, 800598e <xQueueSemaphoreTake+0x188>
 8005986:	6b23      	ldr	r3, [r4, #48]	; 0x30
 8005988:	6819      	ldr	r1, [r3, #0]
 800598a:	f1c1 0138 	rsb	r1, r1, #56	; 0x38
 800598e:	68a0      	ldr	r0, [r4, #8]
 8005990:	2500      	movs	r5, #0
 8005992:	f000 fe3f 	bl	8006614 <vTaskPriorityDisinheritAfterTimeout>
 8005996:	f001 f921 	bl	8006bdc <vPortExitCritical>
 800599a:	e7db      	b.n	8005954 <xQueueSemaphoreTake+0x14e>

0800599c <xQueueReceiveFromISR>:
 800599c:	e92d 43f8 	stmdb	sp!, {r3, r4, r5, r6, r7, r8, r9, lr}
 80059a0:	4689      	mov	r9, r1
 80059a2:	4690      	mov	r8, r2
 80059a4:	4605      	mov	r5, r0
 80059a6:	b950      	cbnz	r0, 80059be <xQueueReceiveFromISR+0x22>
 80059a8:	f04f 0350 	mov.w	r3, #80	; 0x50
 80059ac:	b672      	cpsid	i
 80059ae:	f383 8811 	msr	BASEPRI, r3
 80059b2:	f3bf 8f6f 	isb	sy
 80059b6:	f3bf 8f4f 	dsb	sy
 80059ba:	b662      	cpsie	i
 80059bc:	e7fe      	b.n	80059bc <xQueueReceiveFromISR+0x20>
 80059be:	b961      	cbnz	r1, 80059da <xQueueReceiveFromISR+0x3e>
 80059c0:	6c03      	ldr	r3, [r0, #64]	; 0x40
 80059c2:	b153      	cbz	r3, 80059da <xQueueReceiveFromISR+0x3e>
 80059c4:	f04f 0350 	mov.w	r3, #80	; 0x50
 80059c8:	b672      	cpsid	i
 80059ca:	f383 8811 	msr	BASEPRI, r3
 80059ce:	f3bf 8f6f 	isb	sy
 80059d2:	f3bf 8f4f 	dsb	sy
 80059d6:	b662      	cpsie	i
 80059d8:	e7fe      	b.n	80059d8 <xQueueReceiveFromISR+0x3c>
 80059da:	f001 f9db 	bl	8006d94 <vPortValidateInterruptPriority>
 80059de:	f3ef 8711 	mrs	r7, BASEPRI
 80059e2:	f04f 0350 	mov.w	r3, #80	; 0x50
 80059e6:	b672      	cpsid	i
 80059e8:	f383 8811 	msr	BASEPRI, r3
 80059ec:	f3bf 8f6f 	isb	sy
 80059f0:	f3bf 8f4f 	dsb	sy
 80059f4:	b662      	cpsie	i
 80059f6:	6bac      	ldr	r4, [r5, #56]	; 0x38
 80059f8:	b31c      	cbz	r4, 8005a42 <xQueueReceiveFromISR+0xa6>
 80059fa:	f895 6044 	ldrb.w	r6, [r5, #68]	; 0x44
 80059fe:	4649      	mov	r1, r9
 8005a00:	4628      	mov	r0, r5
 8005a02:	3c01      	subs	r4, #1
 8005a04:	b276      	sxtb	r6, r6
 8005a06:	f7ff fb7a 	bl	80050fe <prvCopyDataFromQueue>
 8005a0a:	63ac      	str	r4, [r5, #56]	; 0x38
 8005a0c:	1c73      	adds	r3, r6, #1
 8005a0e:	d113      	bne.n	8005a38 <xQueueReceiveFromISR+0x9c>
 8005a10:	692b      	ldr	r3, [r5, #16]
 8005a12:	b90b      	cbnz	r3, 8005a18 <xQueueReceiveFromISR+0x7c>
 8005a14:	2001      	movs	r0, #1
 8005a16:	e00b      	b.n	8005a30 <xQueueReceiveFromISR+0x94>
 8005a18:	f105 0010 	add.w	r0, r5, #16
 8005a1c:	f000 fcca 	bl	80063b4 <xTaskRemoveFromEventList>
 8005a20:	2800      	cmp	r0, #0
 8005a22:	d0f7      	beq.n	8005a14 <xQueueReceiveFromISR+0x78>
 8005a24:	f1b8 0f00 	cmp.w	r8, #0
 8005a28:	d0f4      	beq.n	8005a14 <xQueueReceiveFromISR+0x78>
 8005a2a:	2001      	movs	r0, #1
 8005a2c:	f8c8 0000 	str.w	r0, [r8]
 8005a30:	f387 8811 	msr	BASEPRI, r7
 8005a34:	e8bd 83f8 	ldmia.w	sp!, {r3, r4, r5, r6, r7, r8, r9, pc}
 8005a38:	3601      	adds	r6, #1
 8005a3a:	b276      	sxtb	r6, r6
 8005a3c:	f885 6044 	strb.w	r6, [r5, #68]	; 0x44
 8005a40:	e7e8      	b.n	8005a14 <xQueueReceiveFromISR+0x78>
 8005a42:	4620      	mov	r0, r4
 8005a44:	e7f4      	b.n	8005a30 <xQueueReceiveFromISR+0x94>
	...

08005a48 <vQueueAddToRegistry>:
 8005a48:	2300      	movs	r3, #0
 8005a4a:	4a07      	ldr	r2, [pc, #28]	; (8005a68 <vQueueAddToRegistry+0x20>)
 8005a4c:	b510      	push	{r4, lr}
 8005a4e:	f852 4033 	ldr.w	r4, [r2, r3, lsl #3]
 8005a52:	b92c      	cbnz	r4, 8005a60 <vQueueAddToRegistry+0x18>
 8005a54:	f842 1033 	str.w	r1, [r2, r3, lsl #3]
 8005a58:	eb02 02c3 	add.w	r2, r2, r3, lsl #3
 8005a5c:	6050      	str	r0, [r2, #4]
 8005a5e:	bd10      	pop	{r4, pc}
 8005a60:	3301      	adds	r3, #1
 8005a62:	2b08      	cmp	r3, #8
 8005a64:	d1f3      	bne.n	8005a4e <vQueueAddToRegistry+0x6>
 8005a66:	e7fa      	b.n	8005a5e <vQueueAddToRegistry+0x16>
 8005a68:	200014a8 	.word	0x200014a8

08005a6c <vQueueUnregisterQueue>:
 8005a6c:	2300      	movs	r3, #0
 8005a6e:	4a08      	ldr	r2, [pc, #32]	; (8005a90 <vQueueUnregisterQueue+0x24>)
 8005a70:	b510      	push	{r4, lr}
 8005a72:	eb02 01c3 	add.w	r1, r2, r3, lsl #3
 8005a76:	684c      	ldr	r4, [r1, #4]
 8005a78:	4284      	cmp	r4, r0
 8005a7a:	d104      	bne.n	8005a86 <vQueueUnregisterQueue+0x1a>
 8005a7c:	2000      	movs	r0, #0
 8005a7e:	f842 0033 	str.w	r0, [r2, r3, lsl #3]
 8005a82:	6048      	str	r0, [r1, #4]
 8005a84:	bd10      	pop	{r4, pc}
 8005a86:	3301      	adds	r3, #1
 8005a88:	2b08      	cmp	r3, #8
 8005a8a:	d1f2      	bne.n	8005a72 <vQueueUnregisterQueue+0x6>
 8005a8c:	e7fa      	b.n	8005a84 <vQueueUnregisterQueue+0x18>
 8005a8e:	bf00      	nop
 8005a90:	200014a8 	.word	0x200014a8

08005a94 <vQueueDelete>:
 8005a94:	b510      	push	{r4, lr}
 8005a96:	4604      	mov	r4, r0
 8005a98:	b950      	cbnz	r0, 8005ab0 <vQueueDelete+0x1c>
 8005a9a:	f04f 0350 	mov.w	r3, #80	; 0x50
 8005a9e:	b672      	cpsid	i
 8005aa0:	f383 8811 	msr	BASEPRI, r3
 8005aa4:	f3bf 8f6f 	isb	sy
 8005aa8:	f3bf 8f4f 	dsb	sy
 8005aac:	b662      	cpsie	i
 8005aae:	e7fe      	b.n	8005aae <vQueueDelete+0x1a>
 8005ab0:	f7ff ffdc 	bl	8005a6c <vQueueUnregisterQueue>
 8005ab4:	f894 3046 	ldrb.w	r3, [r4, #70]	; 0x46
 8005ab8:	b923      	cbnz	r3, 8005ac4 <vQueueDelete+0x30>
 8005aba:	4620      	mov	r0, r4
 8005abc:	e8bd 4010 	ldmia.w	sp!, {r4, lr}
 8005ac0:	f001 ba54 	b.w	8006f6c <vPortFree>
 8005ac4:	bd10      	pop	{r4, pc}

08005ac6 <vQueueWaitForMessageRestricted>:
 8005ac6:	b570      	push	{r4, r5, r6, lr}
 8005ac8:	4604      	mov	r4, r0
 8005aca:	460d      	mov	r5, r1
 8005acc:	4616      	mov	r6, r2
 8005ace:	f001 f861 	bl	8006b94 <vPortEnterCritical>
 8005ad2:	f894 3044 	ldrb.w	r3, [r4, #68]	; 0x44
 8005ad6:	2bff      	cmp	r3, #255	; 0xff
 8005ad8:	d102      	bne.n	8005ae0 <vQueueWaitForMessageRestricted+0x1a>
 8005ada:	2300      	movs	r3, #0
 8005adc:	f884 3044 	strb.w	r3, [r4, #68]	; 0x44
 8005ae0:	f894 3045 	ldrb.w	r3, [r4, #69]	; 0x45
 8005ae4:	2bff      	cmp	r3, #255	; 0xff
 8005ae6:	d102      	bne.n	8005aee <vQueueWaitForMessageRestricted+0x28>
 8005ae8:	2300      	movs	r3, #0
 8005aea:	f884 3045 	strb.w	r3, [r4, #69]	; 0x45
 8005aee:	f001 f875 	bl	8006bdc <vPortExitCritical>
 8005af2:	6ba3      	ldr	r3, [r4, #56]	; 0x38
 8005af4:	b92b      	cbnz	r3, 8005b02 <vQueueWaitForMessageRestricted+0x3c>
 8005af6:	4632      	mov	r2, r6
 8005af8:	4629      	mov	r1, r5
 8005afa:	f104 0024 	add.w	r0, r4, #36	; 0x24
 8005afe:	f000 fc39 	bl	8006374 <vTaskPlaceOnEventListRestricted>
 8005b02:	4620      	mov	r0, r4
 8005b04:	e8bd 4070 	ldmia.w	sp!, {r4, r5, r6, lr}
 8005b08:	f7ff bb0e 	b.w	8005128 <prvUnlockQueue>

08005b0c <prvAddNewTaskToReadyList>:
 8005b0c:	e92d 41f0 	stmdb	sp!, {r4, r5, r6, r7, r8, lr}
 8005b10:	4604      	mov	r4, r0
 8005b12:	f001 f83f 	bl	8006b94 <vPortEnterCritical>
 8005b16:	4b2f      	ldr	r3, [pc, #188]	; (8005bd4 <prvAddNewTaskToReadyList+0xc8>)
 8005b18:	4e2f      	ldr	r6, [pc, #188]	; (8005bd8 <prvAddNewTaskToReadyList+0xcc>)
 8005b1a:	681a      	ldr	r2, [r3, #0]
 8005b1c:	4f2f      	ldr	r7, [pc, #188]	; (8005bdc <prvAddNewTaskToReadyList+0xd0>)
 8005b1e:	3201      	adds	r2, #1
 8005b20:	601a      	str	r2, [r3, #0]
 8005b22:	6835      	ldr	r5, [r6, #0]
 8005b24:	2d00      	cmp	r5, #0
 8005b26:	d14a      	bne.n	8005bbe <prvAddNewTaskToReadyList+0xb2>
 8005b28:	6034      	str	r4, [r6, #0]
 8005b2a:	681b      	ldr	r3, [r3, #0]
 8005b2c:	2b01      	cmp	r3, #1
 8005b2e:	d11f      	bne.n	8005b70 <prvAddNewTaskToReadyList+0x64>
 8005b30:	46b8      	mov	r8, r7
 8005b32:	3501      	adds	r5, #1
 8005b34:	4640      	mov	r0, r8
 8005b36:	f7ff fa61 	bl	8004ffc <vListInitialise>
 8005b3a:	f108 0814 	add.w	r8, r8, #20
 8005b3e:	2d38      	cmp	r5, #56	; 0x38
 8005b40:	d1f7      	bne.n	8005b32 <prvAddNewTaskToReadyList+0x26>
 8005b42:	f8df 80c0 	ldr.w	r8, [pc, #192]	; 8005c04 <prvAddNewTaskToReadyList+0xf8>
 8005b46:	4d26      	ldr	r5, [pc, #152]	; (8005be0 <prvAddNewTaskToReadyList+0xd4>)
 8005b48:	4640      	mov	r0, r8
 8005b4a:	f7ff fa57 	bl	8004ffc <vListInitialise>
 8005b4e:	4628      	mov	r0, r5
 8005b50:	f7ff fa54 	bl	8004ffc <vListInitialise>
 8005b54:	4823      	ldr	r0, [pc, #140]	; (8005be4 <prvAddNewTaskToReadyList+0xd8>)
 8005b56:	f7ff fa51 	bl	8004ffc <vListInitialise>
 8005b5a:	4823      	ldr	r0, [pc, #140]	; (8005be8 <prvAddNewTaskToReadyList+0xdc>)
 8005b5c:	f7ff fa4e 	bl	8004ffc <vListInitialise>
 8005b60:	4822      	ldr	r0, [pc, #136]	; (8005bec <prvAddNewTaskToReadyList+0xe0>)
 8005b62:	f7ff fa4b 	bl	8004ffc <vListInitialise>
 8005b66:	4b22      	ldr	r3, [pc, #136]	; (8005bf0 <prvAddNewTaskToReadyList+0xe4>)
 8005b68:	f8c3 8000 	str.w	r8, [r3]
 8005b6c:	4b21      	ldr	r3, [pc, #132]	; (8005bf4 <prvAddNewTaskToReadyList+0xe8>)
 8005b6e:	601d      	str	r5, [r3, #0]
 8005b70:	4a21      	ldr	r2, [pc, #132]	; (8005bf8 <prvAddNewTaskToReadyList+0xec>)
 8005b72:	6813      	ldr	r3, [r2, #0]
 8005b74:	3301      	adds	r3, #1
 8005b76:	6013      	str	r3, [r2, #0]
 8005b78:	4a20      	ldr	r2, [pc, #128]	; (8005bfc <prvAddNewTaskToReadyList+0xf0>)
 8005b7a:	64a3      	str	r3, [r4, #72]	; 0x48
 8005b7c:	6811      	ldr	r1, [r2, #0]
 8005b7e:	6ae3      	ldr	r3, [r4, #44]	; 0x2c
 8005b80:	428b      	cmp	r3, r1
 8005b82:	d900      	bls.n	8005b86 <prvAddNewTaskToReadyList+0x7a>
 8005b84:	6013      	str	r3, [r2, #0]
 8005b86:	2014      	movs	r0, #20
 8005b88:	1d21      	adds	r1, r4, #4
 8005b8a:	fb00 7003 	mla	r0, r0, r3, r7
 8005b8e:	f7ff fa43 	bl	8005018 <vListInsertEnd>
 8005b92:	f001 f823 	bl	8006bdc <vPortExitCritical>
 8005b96:	4b1a      	ldr	r3, [pc, #104]	; (8005c00 <prvAddNewTaskToReadyList+0xf4>)
 8005b98:	681b      	ldr	r3, [r3, #0]
 8005b9a:	b173      	cbz	r3, 8005bba <prvAddNewTaskToReadyList+0xae>
 8005b9c:	6833      	ldr	r3, [r6, #0]
 8005b9e:	6ada      	ldr	r2, [r3, #44]	; 0x2c
 8005ba0:	6ae3      	ldr	r3, [r4, #44]	; 0x2c
 8005ba2:	429a      	cmp	r2, r3
 8005ba4:	d209      	bcs.n	8005bba <prvAddNewTaskToReadyList+0xae>
 8005ba6:	f04f 23e0 	mov.w	r3, #3758153728	; 0xe000e000
 8005baa:	f04f 5280 	mov.w	r2, #268435456	; 0x10000000
 8005bae:	f8c3 2d04 	str.w	r2, [r3, #3332]	; 0xd04
 8005bb2:	f3bf 8f4f 	dsb	sy
 8005bb6:	f3bf 8f6f 	isb	sy
 8005bba:	e8bd 81f0 	ldmia.w	sp!, {r4, r5, r6, r7, r8, pc}
 8005bbe:	4b10      	ldr	r3, [pc, #64]	; (8005c00 <prvAddNewTaskToReadyList+0xf4>)
 8005bc0:	681a      	ldr	r2, [r3, #0]
 8005bc2:	6ae3      	ldr	r3, [r4, #44]	; 0x2c
 8005bc4:	2a00      	cmp	r2, #0
 8005bc6:	d1d3      	bne.n	8005b70 <prvAddNewTaskToReadyList+0x64>
 8005bc8:	6832      	ldr	r2, [r6, #0]
 8005bca:	6ad2      	ldr	r2, [r2, #44]	; 0x2c
 8005bcc:	429a      	cmp	r2, r3
 8005bce:	d8cf      	bhi.n	8005b70 <prvAddNewTaskToReadyList+0x64>
 8005bd0:	6034      	str	r4, [r6, #0]
 8005bd2:	e7cd      	b.n	8005b70 <prvAddNewTaskToReadyList+0x64>
 8005bd4:	20001958 	.word	0x20001958
 8005bd8:	200014e8 	.word	0x200014e8
 8005bdc:	200014f4 	.word	0x200014f4
 8005be0:	20001984 	.word	0x20001984
 8005be4:	200019a0 	.word	0x200019a0
 8005be8:	200019cc 	.word	0x200019cc
 8005bec:	200019b8 	.word	0x200019b8
 8005bf0:	200014ec 	.word	0x200014ec
 8005bf4:	200014f0 	.word	0x200014f0
 8005bf8:	20001968 	.word	0x20001968
 8005bfc:	2000196c 	.word	0x2000196c
 8005c00:	200019b4 	.word	0x200019b4
 8005c04:	20001970 	.word	0x20001970

08005c08 <prvAddCurrentTaskToDelayedList>:
 8005c08:	b5f8      	push	{r3, r4, r5, r6, r7, lr}
 8005c0a:	4b15      	ldr	r3, [pc, #84]	; (8005c60 <prvAddCurrentTaskToDelayedList+0x58>)
 8005c0c:	4606      	mov	r6, r0
 8005c0e:	4d15      	ldr	r5, [pc, #84]	; (8005c64 <prvAddCurrentTaskToDelayedList+0x5c>)
 8005c10:	460f      	mov	r7, r1
 8005c12:	681c      	ldr	r4, [r3, #0]
 8005c14:	6828      	ldr	r0, [r5, #0]
 8005c16:	3004      	adds	r0, #4
 8005c18:	f7ff fa21 	bl	800505e <uxListRemove>
 8005c1c:	1c73      	adds	r3, r6, #1
 8005c1e:	d107      	bne.n	8005c30 <prvAddCurrentTaskToDelayedList+0x28>
 8005c20:	b137      	cbz	r7, 8005c30 <prvAddCurrentTaskToDelayedList+0x28>
 8005c22:	6829      	ldr	r1, [r5, #0]
 8005c24:	4810      	ldr	r0, [pc, #64]	; (8005c68 <prvAddCurrentTaskToDelayedList+0x60>)
 8005c26:	3104      	adds	r1, #4
 8005c28:	e8bd 40f8 	ldmia.w	sp!, {r3, r4, r5, r6, r7, lr}
 8005c2c:	f7ff b9f4 	b.w	8005018 <vListInsertEnd>
 8005c30:	19a4      	adds	r4, r4, r6
 8005c32:	682b      	ldr	r3, [r5, #0]
 8005c34:	605c      	str	r4, [r3, #4]
 8005c36:	d307      	bcc.n	8005c48 <prvAddCurrentTaskToDelayedList+0x40>
 8005c38:	4b0c      	ldr	r3, [pc, #48]	; (8005c6c <prvAddCurrentTaskToDelayedList+0x64>)
 8005c3a:	6818      	ldr	r0, [r3, #0]
 8005c3c:	6829      	ldr	r1, [r5, #0]
 8005c3e:	e8bd 40f8 	ldmia.w	sp!, {r3, r4, r5, r6, r7, lr}
 8005c42:	3104      	adds	r1, #4
 8005c44:	f7ff b9f4 	b.w	8005030 <vListInsert>
 8005c48:	4b09      	ldr	r3, [pc, #36]	; (8005c70 <prvAddCurrentTaskToDelayedList+0x68>)
 8005c4a:	6818      	ldr	r0, [r3, #0]
 8005c4c:	6829      	ldr	r1, [r5, #0]
 8005c4e:	3104      	adds	r1, #4
 8005c50:	f7ff f9ee 	bl	8005030 <vListInsert>
 8005c54:	4b07      	ldr	r3, [pc, #28]	; (8005c74 <prvAddCurrentTaskToDelayedList+0x6c>)
 8005c56:	681a      	ldr	r2, [r3, #0]
 8005c58:	42a2      	cmp	r2, r4
 8005c5a:	d900      	bls.n	8005c5e <prvAddCurrentTaskToDelayedList+0x56>
 8005c5c:	601c      	str	r4, [r3, #0]
 8005c5e:	bdf8      	pop	{r3, r4, r5, r6, r7, pc}
 8005c60:	200019e0 	.word	0x200019e0
 8005c64:	200014e8 	.word	0x200014e8
 8005c68:	200019b8 	.word	0x200019b8
 8005c6c:	200014f0 	.word	0x200014f0
 8005c70:	200014ec 	.word	0x200014ec
 8005c74:	20001998 	.word	0x20001998

08005c78 <prvResetNextTaskUnblockTime>:
 8005c78:	4a06      	ldr	r2, [pc, #24]	; (8005c94 <prvResetNextTaskUnblockTime+0x1c>)
 8005c7a:	6813      	ldr	r3, [r2, #0]
 8005c7c:	6819      	ldr	r1, [r3, #0]
 8005c7e:	4b06      	ldr	r3, [pc, #24]	; (8005c98 <prvResetNextTaskUnblockTime+0x20>)
 8005c80:	b919      	cbnz	r1, 8005c8a <prvResetNextTaskUnblockTime+0x12>
 8005c82:	f04f 32ff 	mov.w	r2, #4294967295
 8005c86:	601a      	str	r2, [r3, #0]
 8005c88:	4770      	bx	lr
 8005c8a:	6812      	ldr	r2, [r2, #0]
 8005c8c:	68d2      	ldr	r2, [r2, #12]
 8005c8e:	68d2      	ldr	r2, [r2, #12]
 8005c90:	6852      	ldr	r2, [r2, #4]
 8005c92:	e7f8      	b.n	8005c86 <prvResetNextTaskUnblockTime+0xe>
 8005c94:	200014ec 	.word	0x200014ec
 8005c98:	20001998 	.word	0x20001998

08005c9c <prvDeleteTCB>:
 8005c9c:	b510      	push	{r4, lr}
 8005c9e:	4604      	mov	r4, r0
 8005ca0:	305c      	adds	r0, #92	; 0x5c
 8005ca2:	f002 fb95 	bl	80083d0 <_reclaim_reent>
 8005ca6:	f894 30ad 	ldrb.w	r3, [r4, #173]	; 0xad
 8005caa:	b93b      	cbnz	r3, 8005cbc <prvDeleteTCB+0x20>
 8005cac:	6b20      	ldr	r0, [r4, #48]	; 0x30
 8005cae:	f001 f95d 	bl	8006f6c <vPortFree>
 8005cb2:	4620      	mov	r0, r4
 8005cb4:	e8bd 4010 	ldmia.w	sp!, {r4, lr}
 8005cb8:	f001 b958 	b.w	8006f6c <vPortFree>
 8005cbc:	2b01      	cmp	r3, #1
 8005cbe:	d0f8      	beq.n	8005cb2 <prvDeleteTCB+0x16>
 8005cc0:	2b02      	cmp	r3, #2
 8005cc2:	d00a      	beq.n	8005cda <prvDeleteTCB+0x3e>
 8005cc4:	f04f 0350 	mov.w	r3, #80	; 0x50
 8005cc8:	b672      	cpsid	i
 8005cca:	f383 8811 	msr	BASEPRI, r3
 8005cce:	f3bf 8f6f 	isb	sy
 8005cd2:	f3bf 8f4f 	dsb	sy
 8005cd6:	b662      	cpsie	i
 8005cd8:	e7fe      	b.n	8005cd8 <prvDeleteTCB+0x3c>
 8005cda:	bd10      	pop	{r4, pc}

08005cdc <prvIdleTask>:
 8005cdc:	b580      	push	{r7, lr}
 8005cde:	4c14      	ldr	r4, [pc, #80]	; (8005d30 <prvIdleTask+0x54>)
 8005ce0:	4f14      	ldr	r7, [pc, #80]	; (8005d34 <prvIdleTask+0x58>)
 8005ce2:	4d15      	ldr	r5, [pc, #84]	; (8005d38 <prvIdleTask+0x5c>)
 8005ce4:	6823      	ldr	r3, [r4, #0]
 8005ce6:	b983      	cbnz	r3, 8005d0a <prvIdleTask+0x2e>
 8005ce8:	4b14      	ldr	r3, [pc, #80]	; (8005d3c <prvIdleTask+0x60>)
 8005cea:	681b      	ldr	r3, [r3, #0]
 8005cec:	2b01      	cmp	r3, #1
 8005cee:	d909      	bls.n	8005d04 <prvIdleTask+0x28>
 8005cf0:	f04f 23e0 	mov.w	r3, #3758153728	; 0xe000e000
 8005cf4:	f04f 5280 	mov.w	r2, #268435456	; 0x10000000
 8005cf8:	f8c3 2d04 	str.w	r2, [r3, #3332]	; 0xd04
 8005cfc:	f3bf 8f4f 	dsb	sy
 8005d00:	f3bf 8f6f 	isb	sy
 8005d04:	f7fa fe06 	bl	8000914 <vApplicationIdleHook>
 8005d08:	e7eb      	b.n	8005ce2 <prvIdleTask+0x6>
 8005d0a:	f000 ff43 	bl	8006b94 <vPortEnterCritical>
 8005d0e:	68fb      	ldr	r3, [r7, #12]
 8005d10:	68de      	ldr	r6, [r3, #12]
 8005d12:	1d30      	adds	r0, r6, #4
 8005d14:	f7ff f9a3 	bl	800505e <uxListRemove>
 8005d18:	682b      	ldr	r3, [r5, #0]
 8005d1a:	3b01      	subs	r3, #1
 8005d1c:	602b      	str	r3, [r5, #0]
 8005d1e:	6823      	ldr	r3, [r4, #0]
 8005d20:	3b01      	subs	r3, #1
 8005d22:	6023      	str	r3, [r4, #0]
 8005d24:	f000 ff5a 	bl	8006bdc <vPortExitCritical>
 8005d28:	4630      	mov	r0, r6
 8005d2a:	f7ff ffb7 	bl	8005c9c <prvDeleteTCB>
 8005d2e:	e7d9      	b.n	8005ce4 <prvIdleTask+0x8>
 8005d30:	2000195c 	.word	0x2000195c
 8005d34:	200019cc 	.word	0x200019cc
 8005d38:	20001958 	.word	0x20001958
 8005d3c:	200014f4 	.word	0x200014f4

08005d40 <prvInitialiseNewTask.constprop.0>:
 8005d40:	e92d 47f0 	stmdb	sp!, {r4, r5, r6, r7, r8, r9, sl, lr}
 8005d44:	ea4f 0982 	mov.w	r9, r2, lsl #2
 8005d48:	4606      	mov	r6, r0
 8005d4a:	460d      	mov	r5, r1
 8005d4c:	21a5      	movs	r1, #165	; 0xa5
 8005d4e:	464a      	mov	r2, r9
 8005d50:	461f      	mov	r7, r3
 8005d52:	f1a9 0904 	sub.w	r9, r9, #4
 8005d56:	e9dd 8409 	ldrd	r8, r4, [sp, #36]	; 0x24
 8005d5a:	6b20      	ldr	r0, [r4, #48]	; 0x30
 8005d5c:	f002 fb20 	bl	80083a0 <memset>
 8005d60:	6b23      	ldr	r3, [r4, #48]	; 0x30
 8005d62:	444b      	add	r3, r9
 8005d64:	f023 0907 	bic.w	r9, r3, #7
 8005d68:	f8c4 9044 	str.w	r9, [r4, #68]	; 0x44
 8005d6c:	2d00      	cmp	r5, #0
 8005d6e:	d043      	beq.n	8005df8 <prvInitialiseNewTask.constprop.0+0xb8>
 8005d70:	1e6b      	subs	r3, r5, #1
 8005d72:	f104 0233 	add.w	r2, r4, #51	; 0x33
 8005d76:	350f      	adds	r5, #15
 8005d78:	f813 1f01 	ldrb.w	r1, [r3, #1]!
 8005d7c:	f802 1f01 	strb.w	r1, [r2, #1]!
 8005d80:	b109      	cbz	r1, 8005d86 <prvInitialiseNewTask.constprop.0+0x46>
 8005d82:	42ab      	cmp	r3, r5
 8005d84:	d1f8      	bne.n	8005d78 <prvInitialiseNewTask.constprop.0+0x38>
 8005d86:	2300      	movs	r3, #0
 8005d88:	f884 3043 	strb.w	r3, [r4, #67]	; 0x43
 8005d8c:	9d08      	ldr	r5, [sp, #32]
 8005d8e:	f04f 0a00 	mov.w	sl, #0
 8005d92:	1d20      	adds	r0, r4, #4
 8005d94:	2d37      	cmp	r5, #55	; 0x37
 8005d96:	f8c4 a054 	str.w	sl, [r4, #84]	; 0x54
 8005d9a:	bf28      	it	cs
 8005d9c:	2537      	movcs	r5, #55	; 0x37
 8005d9e:	62e5      	str	r5, [r4, #44]	; 0x2c
 8005da0:	6525      	str	r5, [r4, #80]	; 0x50
 8005da2:	f1c5 0538 	rsb	r5, r5, #56	; 0x38
 8005da6:	f7ff f934 	bl	8005012 <vListInitialiseItem>
 8005daa:	f104 0018 	add.w	r0, r4, #24
 8005dae:	f7ff f930 	bl	8005012 <vListInitialiseItem>
 8005db2:	224c      	movs	r2, #76	; 0x4c
 8005db4:	4651      	mov	r1, sl
 8005db6:	f8c4 a0a8 	str.w	sl, [r4, #168]	; 0xa8
 8005dba:	f104 005c 	add.w	r0, r4, #92	; 0x5c
 8005dbe:	6124      	str	r4, [r4, #16]
 8005dc0:	61a5      	str	r5, [r4, #24]
 8005dc2:	6264      	str	r4, [r4, #36]	; 0x24
 8005dc4:	f8c4 a058 	str.w	sl, [r4, #88]	; 0x58
 8005dc8:	f884 a0ac 	strb.w	sl, [r4, #172]	; 0xac
 8005dcc:	f002 fae8 	bl	80083a0 <memset>
 8005dd0:	4b0b      	ldr	r3, [pc, #44]	; (8005e00 <prvInitialiseNewTask.constprop.0+0xc0>)
 8005dd2:	4631      	mov	r1, r6
 8005dd4:	4648      	mov	r0, r9
 8005dd6:	f103 0268 	add.w	r2, r3, #104	; 0x68
 8005dda:	6623      	str	r3, [r4, #96]	; 0x60
 8005ddc:	33d0      	adds	r3, #208	; 0xd0
 8005dde:	6662      	str	r2, [r4, #100]	; 0x64
 8005de0:	463a      	mov	r2, r7
 8005de2:	66a3      	str	r3, [r4, #104]	; 0x68
 8005de4:	f000 feb0 	bl	8006b48 <pxPortInitialiseStack>
 8005de8:	6020      	str	r0, [r4, #0]
 8005dea:	f1b8 0f00 	cmp.w	r8, #0
 8005dee:	d001      	beq.n	8005df4 <prvInitialiseNewTask.constprop.0+0xb4>
 8005df0:	f8c8 4000 	str.w	r4, [r8]
 8005df4:	e8bd 87f0 	ldmia.w	sp!, {r4, r5, r6, r7, r8, r9, sl, pc}
 8005df8:	f884 5034 	strb.w	r5, [r4, #52]	; 0x34
 8005dfc:	e7c6      	b.n	8005d8c <prvInitialiseNewTask.constprop.0+0x4c>
 8005dfe:	bf00      	nop
 8005e00:	200061e8 	.word	0x200061e8

08005e04 <xTaskCreateStatic>:
 8005e04:	b570      	push	{r4, r5, r6, lr}
 8005e06:	b086      	sub	sp, #24
 8005e08:	e9dd 540b 	ldrd	r5, r4, [sp, #44]	; 0x2c
 8005e0c:	b955      	cbnz	r5, 8005e24 <xTaskCreateStatic+0x20>
 8005e0e:	f04f 0350 	mov.w	r3, #80	; 0x50
 8005e12:	b672      	cpsid	i
 8005e14:	f383 8811 	msr	BASEPRI, r3
 8005e18:	f3bf 8f6f 	isb	sy
 8005e1c:	f3bf 8f4f 	dsb	sy
 8005e20:	b662      	cpsie	i
 8005e22:	e7fe      	b.n	8005e22 <xTaskCreateStatic+0x1e>
 8005e24:	b954      	cbnz	r4, 8005e3c <xTaskCreateStatic+0x38>
 8005e26:	f04f 0350 	mov.w	r3, #80	; 0x50
 8005e2a:	b672      	cpsid	i
 8005e2c:	f383 8811 	msr	BASEPRI, r3
 8005e30:	f3bf 8f6f 	isb	sy
 8005e34:	f3bf 8f4f 	dsb	sy
 8005e38:	b662      	cpsie	i
 8005e3a:	e7fe      	b.n	8005e3a <xTaskCreateStatic+0x36>
 8005e3c:	26b0      	movs	r6, #176	; 0xb0
 8005e3e:	9605      	str	r6, [sp, #20]
 8005e40:	9e05      	ldr	r6, [sp, #20]
 8005e42:	2eb0      	cmp	r6, #176	; 0xb0
 8005e44:	d00a      	beq.n	8005e5c <xTaskCreateStatic+0x58>
 8005e46:	f04f 0350 	mov.w	r3, #80	; 0x50
 8005e4a:	b672      	cpsid	i
 8005e4c:	f383 8811 	msr	BASEPRI, r3
 8005e50:	f3bf 8f6f 	isb	sy
 8005e54:	f3bf 8f4f 	dsb	sy
 8005e58:	b662      	cpsie	i
 8005e5a:	e7fe      	b.n	8005e5a <xTaskCreateStatic+0x56>
 8005e5c:	6325      	str	r5, [r4, #48]	; 0x30
 8005e5e:	2502      	movs	r5, #2
 8005e60:	9e05      	ldr	r6, [sp, #20]
 8005e62:	f884 50ad 	strb.w	r5, [r4, #173]	; 0xad
 8005e66:	ad04      	add	r5, sp, #16
 8005e68:	9402      	str	r4, [sp, #8]
 8005e6a:	9501      	str	r5, [sp, #4]
 8005e6c:	9d0a      	ldr	r5, [sp, #40]	; 0x28
 8005e6e:	9500      	str	r5, [sp, #0]
 8005e70:	f7ff ff66 	bl	8005d40 <prvInitialiseNewTask.constprop.0>
 8005e74:	4620      	mov	r0, r4
 8005e76:	f7ff fe49 	bl	8005b0c <prvAddNewTaskToReadyList>
 8005e7a:	9804      	ldr	r0, [sp, #16]
 8005e7c:	b006      	add	sp, #24
 8005e7e:	bd70      	pop	{r4, r5, r6, pc}

08005e80 <xTaskCreate>:
 8005e80:	e92d 43f0 	stmdb	sp!, {r4, r5, r6, r7, r8, r9, lr}
 8005e84:	4607      	mov	r7, r0
 8005e86:	b085      	sub	sp, #20
 8005e88:	0090      	lsls	r0, r2, #2
 8005e8a:	4688      	mov	r8, r1
 8005e8c:	4616      	mov	r6, r2
 8005e8e:	4699      	mov	r9, r3
 8005e90:	f000 ffd8 	bl	8006e44 <pvPortMalloc>
 8005e94:	4605      	mov	r5, r0
 8005e96:	b1e8      	cbz	r0, 8005ed4 <xTaskCreate+0x54>
 8005e98:	20b0      	movs	r0, #176	; 0xb0
 8005e9a:	f000 ffd3 	bl	8006e44 <pvPortMalloc>
 8005e9e:	4604      	mov	r4, r0
 8005ea0:	b1a8      	cbz	r0, 8005ece <xTaskCreate+0x4e>
 8005ea2:	2300      	movs	r3, #0
 8005ea4:	6305      	str	r5, [r0, #48]	; 0x30
 8005ea6:	4632      	mov	r2, r6
 8005ea8:	4641      	mov	r1, r8
 8005eaa:	f880 30ad 	strb.w	r3, [r0, #173]	; 0xad
 8005eae:	9b0d      	ldr	r3, [sp, #52]	; 0x34
 8005eb0:	9002      	str	r0, [sp, #8]
 8005eb2:	4638      	mov	r0, r7
 8005eb4:	9301      	str	r3, [sp, #4]
 8005eb6:	9b0c      	ldr	r3, [sp, #48]	; 0x30
 8005eb8:	9300      	str	r3, [sp, #0]
 8005eba:	464b      	mov	r3, r9
 8005ebc:	f7ff ff40 	bl	8005d40 <prvInitialiseNewTask.constprop.0>
 8005ec0:	4620      	mov	r0, r4
 8005ec2:	f7ff fe23 	bl	8005b0c <prvAddNewTaskToReadyList>
 8005ec6:	2001      	movs	r0, #1
 8005ec8:	b005      	add	sp, #20
 8005eca:	e8bd 83f0 	ldmia.w	sp!, {r4, r5, r6, r7, r8, r9, pc}
 8005ece:	4628      	mov	r0, r5
 8005ed0:	f001 f84c 	bl	8006f6c <vPortFree>
 8005ed4:	f04f 30ff 	mov.w	r0, #4294967295
 8005ed8:	e7f6      	b.n	8005ec8 <xTaskCreate+0x48>
	...

08005edc <vTaskStartScheduler>:
 8005edc:	b510      	push	{r4, lr}
 8005ede:	b088      	sub	sp, #32
 8005ee0:	2400      	movs	r4, #0
 8005ee2:	aa07      	add	r2, sp, #28
 8005ee4:	a906      	add	r1, sp, #24
 8005ee6:	a805      	add	r0, sp, #20
 8005ee8:	e9cd 4405 	strd	r4, r4, [sp, #20]
 8005eec:	f7ff f86e 	bl	8004fcc <vApplicationGetIdleTaskMemory>
 8005ef0:	9b05      	ldr	r3, [sp, #20]
 8005ef2:	9a07      	ldr	r2, [sp, #28]
 8005ef4:	9302      	str	r3, [sp, #8]
 8005ef6:	9b06      	ldr	r3, [sp, #24]
 8005ef8:	491c      	ldr	r1, [pc, #112]	; (8005f6c <vTaskStartScheduler+0x90>)
 8005efa:	481d      	ldr	r0, [pc, #116]	; (8005f70 <vTaskStartScheduler+0x94>)
 8005efc:	e9cd 4300 	strd	r4, r3, [sp]
 8005f00:	4623      	mov	r3, r4
 8005f02:	f7ff ff7f 	bl	8005e04 <xTaskCreateStatic>
 8005f06:	2800      	cmp	r0, #0
 8005f08:	d02e      	beq.n	8005f68 <vTaskStartScheduler+0x8c>
 8005f0a:	f000 fc37 	bl	800677c <xTimerCreateTimerTask>
 8005f0e:	2801      	cmp	r0, #1
 8005f10:	d11d      	bne.n	8005f4e <vTaskStartScheduler+0x72>
 8005f12:	f04f 0350 	mov.w	r3, #80	; 0x50
 8005f16:	b672      	cpsid	i
 8005f18:	f383 8811 	msr	BASEPRI, r3
 8005f1c:	f3bf 8f6f 	isb	sy
 8005f20:	f3bf 8f4f 	dsb	sy
 8005f24:	b662      	cpsie	i
 8005f26:	4b13      	ldr	r3, [pc, #76]	; (8005f74 <vTaskStartScheduler+0x98>)
 8005f28:	4a13      	ldr	r2, [pc, #76]	; (8005f78 <vTaskStartScheduler+0x9c>)
 8005f2a:	681b      	ldr	r3, [r3, #0]
 8005f2c:	335c      	adds	r3, #92	; 0x5c
 8005f2e:	6013      	str	r3, [r2, #0]
 8005f30:	f04f 32ff 	mov.w	r2, #4294967295
 8005f34:	4b11      	ldr	r3, [pc, #68]	; (8005f7c <vTaskStartScheduler+0xa0>)
 8005f36:	601a      	str	r2, [r3, #0]
 8005f38:	4b11      	ldr	r3, [pc, #68]	; (8005f80 <vTaskStartScheduler+0xa4>)
 8005f3a:	6018      	str	r0, [r3, #0]
 8005f3c:	4b11      	ldr	r3, [pc, #68]	; (8005f84 <vTaskStartScheduler+0xa8>)
 8005f3e:	601c      	str	r4, [r3, #0]
 8005f40:	f7fa fce4 	bl	800090c <configureTimerForRunTimeStats>
 8005f44:	b008      	add	sp, #32
 8005f46:	e8bd 4010 	ldmia.w	sp!, {r4, lr}
 8005f4a:	f000 bebd 	b.w	8006cc8 <xPortStartScheduler>
 8005f4e:	3001      	adds	r0, #1
 8005f50:	d10a      	bne.n	8005f68 <vTaskStartScheduler+0x8c>
 8005f52:	f04f 0350 	mov.w	r3, #80	; 0x50
 8005f56:	b672      	cpsid	i
 8005f58:	f383 8811 	msr	BASEPRI, r3
 8005f5c:	f3bf 8f6f 	isb	sy
 8005f60:	f3bf 8f4f 	dsb	sy
 8005f64:	b662      	cpsie	i
 8005f66:	e7fe      	b.n	8005f66 <vTaskStartScheduler+0x8a>
 8005f68:	b008      	add	sp, #32
 8005f6a:	bd10      	pop	{r4, pc}
 8005f6c:	080094f8 	.word	0x080094f8
 8005f70:	08005cdd 	.word	0x08005cdd
 8005f74:	200014e8 	.word	0x200014e8
 8005f78:	20000148 	.word	0x20000148
 8005f7c:	20001998 	.word	0x20001998
 8005f80:	200019b4 	.word	0x200019b4
 8005f84:	200019e0 	.word	0x200019e0

08005f88 <vTaskSuspendAll>:
 8005f88:	4a02      	ldr	r2, [pc, #8]	; (8005f94 <vTaskSuspendAll+0xc>)
 8005f8a:	6813      	ldr	r3, [r2, #0]
 8005f8c:	3301      	adds	r3, #1
 8005f8e:	6013      	str	r3, [r2, #0]
 8005f90:	4770      	bx	lr
 8005f92:	bf00      	nop
 8005f94:	20001964 	.word	0x20001964

08005f98 <xTaskGetTickCount>:
 8005f98:	4b01      	ldr	r3, [pc, #4]	; (8005fa0 <xTaskGetTickCount+0x8>)
 8005f9a:	6818      	ldr	r0, [r3, #0]
 8005f9c:	4770      	bx	lr
 8005f9e:	bf00      	nop
 8005fa0:	200019e0 	.word	0x200019e0

08005fa4 <xTaskIncrementTick>:
 8005fa4:	4b43      	ldr	r3, [pc, #268]	; (80060b4 <xTaskIncrementTick+0x110>)
 8005fa6:	681b      	ldr	r3, [r3, #0]
 8005fa8:	e92d 4ff7 	stmdb	sp!, {r0, r1, r2, r4, r5, r6, r7, r8, r9, sl, fp, lr}
 8005fac:	2b00      	cmp	r3, #0
 8005fae:	d179      	bne.n	80060a4 <xTaskIncrementTick+0x100>
 8005fb0:	4b41      	ldr	r3, [pc, #260]	; (80060b8 <xTaskIncrementTick+0x114>)
 8005fb2:	681d      	ldr	r5, [r3, #0]
 8005fb4:	3501      	adds	r5, #1
 8005fb6:	601d      	str	r5, [r3, #0]
 8005fb8:	b9cd      	cbnz	r5, 8005fee <xTaskIncrementTick+0x4a>
 8005fba:	4b40      	ldr	r3, [pc, #256]	; (80060bc <xTaskIncrementTick+0x118>)
 8005fbc:	681a      	ldr	r2, [r3, #0]
 8005fbe:	6812      	ldr	r2, [r2, #0]
 8005fc0:	b152      	cbz	r2, 8005fd8 <xTaskIncrementTick+0x34>
 8005fc2:	f04f 0350 	mov.w	r3, #80	; 0x50
 8005fc6:	b672      	cpsid	i
 8005fc8:	f383 8811 	msr	BASEPRI, r3
 8005fcc:	f3bf 8f6f 	isb	sy
 8005fd0:	f3bf 8f4f 	dsb	sy
 8005fd4:	b662      	cpsie	i
 8005fd6:	e7fe      	b.n	8005fd6 <xTaskIncrementTick+0x32>
 8005fd8:	4a39      	ldr	r2, [pc, #228]	; (80060c0 <xTaskIncrementTick+0x11c>)
 8005fda:	6819      	ldr	r1, [r3, #0]
 8005fdc:	6810      	ldr	r0, [r2, #0]
 8005fde:	6018      	str	r0, [r3, #0]
 8005fe0:	6011      	str	r1, [r2, #0]
 8005fe2:	4a38      	ldr	r2, [pc, #224]	; (80060c4 <xTaskIncrementTick+0x120>)
 8005fe4:	6813      	ldr	r3, [r2, #0]
 8005fe6:	3301      	adds	r3, #1
 8005fe8:	6013      	str	r3, [r2, #0]
 8005fea:	f7ff fe45 	bl	8005c78 <prvResetNextTaskUnblockTime>
 8005fee:	4e36      	ldr	r6, [pc, #216]	; (80060c8 <xTaskIncrementTick+0x124>)
 8005ff0:	2400      	movs	r4, #0
 8005ff2:	4f36      	ldr	r7, [pc, #216]	; (80060cc <xTaskIncrementTick+0x128>)
 8005ff4:	6833      	ldr	r3, [r6, #0]
 8005ff6:	f8df 80e0 	ldr.w	r8, [pc, #224]	; 80060d8 <xTaskIncrementTick+0x134>
 8005ffa:	42ab      	cmp	r3, r5
 8005ffc:	d916      	bls.n	800602c <xTaskIncrementTick+0x88>
 8005ffe:	f8d8 3000 	ldr.w	r3, [r8]
 8006002:	2214      	movs	r2, #20
 8006004:	6adb      	ldr	r3, [r3, #44]	; 0x2c
 8006006:	4353      	muls	r3, r2
 8006008:	58fb      	ldr	r3, [r7, r3]
 800600a:	2b02      	cmp	r3, #2
 800600c:	4b30      	ldr	r3, [pc, #192]	; (80060d0 <xTaskIncrementTick+0x12c>)
 800600e:	681b      	ldr	r3, [r3, #0]
 8006010:	bf28      	it	cs
 8006012:	2401      	movcs	r4, #1
 8006014:	b90b      	cbnz	r3, 800601a <xTaskIncrementTick+0x76>
 8006016:	f7fa fc83 	bl	8000920 <vApplicationTickHook>
 800601a:	4b2e      	ldr	r3, [pc, #184]	; (80060d4 <xTaskIncrementTick+0x130>)
 800601c:	681b      	ldr	r3, [r3, #0]
 800601e:	2b00      	cmp	r3, #0
 8006020:	bf0c      	ite	eq
 8006022:	4620      	moveq	r0, r4
 8006024:	2001      	movne	r0, #1
 8006026:	b003      	add	sp, #12
 8006028:	e8bd 8ff0 	ldmia.w	sp!, {r4, r5, r6, r7, r8, r9, sl, fp, pc}
 800602c:	f8df 908c 	ldr.w	r9, [pc, #140]	; 80060bc <xTaskIncrementTick+0x118>
 8006030:	f8df a0a8 	ldr.w	sl, [pc, #168]	; 80060dc <xTaskIncrementTick+0x138>
 8006034:	f8d9 3000 	ldr.w	r3, [r9]
 8006038:	681b      	ldr	r3, [r3, #0]
 800603a:	b91b      	cbnz	r3, 8006044 <xTaskIncrementTick+0xa0>
 800603c:	f04f 33ff 	mov.w	r3, #4294967295
 8006040:	6033      	str	r3, [r6, #0]
 8006042:	e7dc      	b.n	8005ffe <xTaskIncrementTick+0x5a>
 8006044:	f8d9 3000 	ldr.w	r3, [r9]
 8006048:	68db      	ldr	r3, [r3, #12]
 800604a:	f8d3 b00c 	ldr.w	fp, [r3, #12]
 800604e:	f8db 2004 	ldr.w	r2, [fp, #4]
 8006052:	4295      	cmp	r5, r2
 8006054:	d201      	bcs.n	800605a <xTaskIncrementTick+0xb6>
 8006056:	6032      	str	r2, [r6, #0]
 8006058:	e7d1      	b.n	8005ffe <xTaskIncrementTick+0x5a>
 800605a:	f10b 0104 	add.w	r1, fp, #4
 800605e:	4608      	mov	r0, r1
 8006060:	9101      	str	r1, [sp, #4]
 8006062:	f7fe fffc 	bl	800505e <uxListRemove>
 8006066:	f8db 2028 	ldr.w	r2, [fp, #40]	; 0x28
 800606a:	9901      	ldr	r1, [sp, #4]
 800606c:	b122      	cbz	r2, 8006078 <xTaskIncrementTick+0xd4>
 800606e:	f10b 0018 	add.w	r0, fp, #24
 8006072:	f7fe fff4 	bl	800505e <uxListRemove>
 8006076:	9901      	ldr	r1, [sp, #4]
 8006078:	f8db 002c 	ldr.w	r0, [fp, #44]	; 0x2c
 800607c:	f8da 2000 	ldr.w	r2, [sl]
 8006080:	4290      	cmp	r0, r2
 8006082:	d901      	bls.n	8006088 <xTaskIncrementTick+0xe4>
 8006084:	f8ca 0000 	str.w	r0, [sl]
 8006088:	2314      	movs	r3, #20
 800608a:	fb03 7000 	mla	r0, r3, r0, r7
 800608e:	f7fe ffc3 	bl	8005018 <vListInsertEnd>
 8006092:	f8d8 1000 	ldr.w	r1, [r8]
 8006096:	f8db 202c 	ldr.w	r2, [fp, #44]	; 0x2c
 800609a:	6acb      	ldr	r3, [r1, #44]	; 0x2c
 800609c:	429a      	cmp	r2, r3
 800609e:	bf28      	it	cs
 80060a0:	2401      	movcs	r4, #1
 80060a2:	e7c7      	b.n	8006034 <xTaskIncrementTick+0x90>
 80060a4:	4a0a      	ldr	r2, [pc, #40]	; (80060d0 <xTaskIncrementTick+0x12c>)
 80060a6:	2400      	movs	r4, #0
 80060a8:	6813      	ldr	r3, [r2, #0]
 80060aa:	3301      	adds	r3, #1
 80060ac:	6013      	str	r3, [r2, #0]
 80060ae:	f7fa fc37 	bl	8000920 <vApplicationTickHook>
 80060b2:	e7b2      	b.n	800601a <xTaskIncrementTick+0x76>
 80060b4:	20001964 	.word	0x20001964
 80060b8:	200019e0 	.word	0x200019e0
 80060bc:	200014ec 	.word	0x200014ec
 80060c0:	200014f0 	.word	0x200014f0
 80060c4:	2000199c 	.word	0x2000199c
 80060c8:	20001998 	.word	0x20001998
 80060cc:	200014f4 	.word	0x200014f4
 80060d0:	20001960 	.word	0x20001960
 80060d4:	200019e4 	.word	0x200019e4
 80060d8:	200014e8 	.word	0x200014e8
 80060dc:	2000196c 	.word	0x2000196c

080060e0 <xTaskResumeAll>:
 80060e0:	b5f7      	push	{r0, r1, r2, r4, r5, r6, r7, lr}
 80060e2:	4c32      	ldr	r4, [pc, #200]	; (80061ac <xTaskResumeAll+0xcc>)
 80060e4:	6823      	ldr	r3, [r4, #0]
 80060e6:	b953      	cbnz	r3, 80060fe <xTaskResumeAll+0x1e>
 80060e8:	f04f 0350 	mov.w	r3, #80	; 0x50
 80060ec:	b672      	cpsid	i
 80060ee:	f383 8811 	msr	BASEPRI, r3
 80060f2:	f3bf 8f6f 	isb	sy
 80060f6:	f3bf 8f4f 	dsb	sy
 80060fa:	b662      	cpsie	i
 80060fc:	e7fe      	b.n	80060fc <xTaskResumeAll+0x1c>
 80060fe:	f000 fd49 	bl	8006b94 <vPortEnterCritical>
 8006102:	6823      	ldr	r3, [r4, #0]
 8006104:	3b01      	subs	r3, #1
 8006106:	6023      	str	r3, [r4, #0]
 8006108:	6824      	ldr	r4, [r4, #0]
 800610a:	b12c      	cbz	r4, 8006118 <xTaskResumeAll+0x38>
 800610c:	2400      	movs	r4, #0
 800610e:	f000 fd65 	bl	8006bdc <vPortExitCritical>
 8006112:	4620      	mov	r0, r4
 8006114:	b003      	add	sp, #12
 8006116:	bdf0      	pop	{r4, r5, r6, r7, pc}
 8006118:	4b25      	ldr	r3, [pc, #148]	; (80061b0 <xTaskResumeAll+0xd0>)
 800611a:	681b      	ldr	r3, [r3, #0]
 800611c:	2b00      	cmp	r3, #0
 800611e:	d0f5      	beq.n	800610c <xTaskResumeAll+0x2c>
 8006120:	4d24      	ldr	r5, [pc, #144]	; (80061b4 <xTaskResumeAll+0xd4>)
 8006122:	4e25      	ldr	r6, [pc, #148]	; (80061b8 <xTaskResumeAll+0xd8>)
 8006124:	4f25      	ldr	r7, [pc, #148]	; (80061bc <xTaskResumeAll+0xdc>)
 8006126:	e01e      	b.n	8006166 <xTaskResumeAll+0x86>
 8006128:	68eb      	ldr	r3, [r5, #12]
 800612a:	68dc      	ldr	r4, [r3, #12]
 800612c:	f104 0018 	add.w	r0, r4, #24
 8006130:	f7fe ff95 	bl	800505e <uxListRemove>
 8006134:	1d21      	adds	r1, r4, #4
 8006136:	4608      	mov	r0, r1
 8006138:	9101      	str	r1, [sp, #4]
 800613a:	f7fe ff90 	bl	800505e <uxListRemove>
 800613e:	6ae3      	ldr	r3, [r4, #44]	; 0x2c
 8006140:	6832      	ldr	r2, [r6, #0]
 8006142:	9901      	ldr	r1, [sp, #4]
 8006144:	4293      	cmp	r3, r2
 8006146:	d900      	bls.n	800614a <xTaskResumeAll+0x6a>
 8006148:	6033      	str	r3, [r6, #0]
 800614a:	2014      	movs	r0, #20
 800614c:	fb00 7003 	mla	r0, r0, r3, r7
 8006150:	f7fe ff62 	bl	8005018 <vListInsertEnd>
 8006154:	4b1a      	ldr	r3, [pc, #104]	; (80061c0 <xTaskResumeAll+0xe0>)
 8006156:	6ae2      	ldr	r2, [r4, #44]	; 0x2c
 8006158:	681b      	ldr	r3, [r3, #0]
 800615a:	6adb      	ldr	r3, [r3, #44]	; 0x2c
 800615c:	429a      	cmp	r2, r3
 800615e:	d302      	bcc.n	8006166 <xTaskResumeAll+0x86>
 8006160:	4b18      	ldr	r3, [pc, #96]	; (80061c4 <xTaskResumeAll+0xe4>)
 8006162:	2201      	movs	r2, #1
 8006164:	601a      	str	r2, [r3, #0]
 8006166:	682b      	ldr	r3, [r5, #0]
 8006168:	2b00      	cmp	r3, #0
 800616a:	d1dd      	bne.n	8006128 <xTaskResumeAll+0x48>
 800616c:	b10c      	cbz	r4, 8006172 <xTaskResumeAll+0x92>
 800616e:	f7ff fd83 	bl	8005c78 <prvResetNextTaskUnblockTime>
 8006172:	4d15      	ldr	r5, [pc, #84]	; (80061c8 <xTaskResumeAll+0xe8>)
 8006174:	682c      	ldr	r4, [r5, #0]
 8006176:	b144      	cbz	r4, 800618a <xTaskResumeAll+0xaa>
 8006178:	4e12      	ldr	r6, [pc, #72]	; (80061c4 <xTaskResumeAll+0xe4>)
 800617a:	2701      	movs	r7, #1
 800617c:	f7ff ff12 	bl	8005fa4 <xTaskIncrementTick>
 8006180:	b100      	cbz	r0, 8006184 <xTaskResumeAll+0xa4>
 8006182:	6037      	str	r7, [r6, #0]
 8006184:	3c01      	subs	r4, #1
 8006186:	d1f9      	bne.n	800617c <xTaskResumeAll+0x9c>
 8006188:	602c      	str	r4, [r5, #0]
 800618a:	4b0e      	ldr	r3, [pc, #56]	; (80061c4 <xTaskResumeAll+0xe4>)
 800618c:	681b      	ldr	r3, [r3, #0]
 800618e:	2b00      	cmp	r3, #0
 8006190:	d0bc      	beq.n	800610c <xTaskResumeAll+0x2c>
 8006192:	f04f 23e0 	mov.w	r3, #3758153728	; 0xe000e000
 8006196:	f04f 5280 	mov.w	r2, #268435456	; 0x10000000
 800619a:	f8c3 2d04 	str.w	r2, [r3, #3332]	; 0xd04
 800619e:	f3bf 8f4f 	dsb	sy
 80061a2:	f3bf 8f6f 	isb	sy
 80061a6:	2401      	movs	r4, #1
 80061a8:	e7b1      	b.n	800610e <xTaskResumeAll+0x2e>
 80061aa:	bf00      	nop
 80061ac:	20001964 	.word	0x20001964
 80061b0:	20001958 	.word	0x20001958
 80061b4:	200019a0 	.word	0x200019a0
 80061b8:	2000196c 	.word	0x2000196c
 80061bc:	200014f4 	.word	0x200014f4
 80061c0:	200014e8 	.word	0x200014e8
 80061c4:	200019e4 	.word	0x200019e4
 80061c8:	20001960 	.word	0x20001960

080061cc <vTaskDelayUntil>:
 80061cc:	b510      	push	{r4, lr}
 80061ce:	b950      	cbnz	r0, 80061e6 <vTaskDelayUntil+0x1a>
 80061d0:	f04f 0350 	mov.w	r3, #80	; 0x50
 80061d4:	b672      	cpsid	i
 80061d6:	f383 8811 	msr	BASEPRI, r3
 80061da:	f3bf 8f6f 	isb	sy
 80061de:	f3bf 8f4f 	dsb	sy
 80061e2:	b662      	cpsie	i
 80061e4:	e7fe      	b.n	80061e4 <vTaskDelayUntil+0x18>
 80061e6:	b951      	cbnz	r1, 80061fe <vTaskDelayUntil+0x32>
 80061e8:	f04f 0350 	mov.w	r3, #80	; 0x50
 80061ec:	b672      	cpsid	i
 80061ee:	f383 8811 	msr	BASEPRI, r3
 80061f2:	f3bf 8f6f 	isb	sy
 80061f6:	f3bf 8f4f 	dsb	sy
 80061fa:	b662      	cpsie	i
 80061fc:	e7fe      	b.n	80061fc <vTaskDelayUntil+0x30>
 80061fe:	4b19      	ldr	r3, [pc, #100]	; (8006264 <vTaskDelayUntil+0x98>)
 8006200:	681b      	ldr	r3, [r3, #0]
 8006202:	b153      	cbz	r3, 800621a <vTaskDelayUntil+0x4e>
 8006204:	f04f 0350 	mov.w	r3, #80	; 0x50
 8006208:	b672      	cpsid	i
 800620a:	f383 8811 	msr	BASEPRI, r3
 800620e:	f3bf 8f6f 	isb	sy
 8006212:	f3bf 8f4f 	dsb	sy
 8006216:	b662      	cpsie	i
 8006218:	e7fe      	b.n	8006218 <vTaskDelayUntil+0x4c>
 800621a:	f7ff feb5 	bl	8005f88 <vTaskSuspendAll>
 800621e:	4b12      	ldr	r3, [pc, #72]	; (8006268 <vTaskDelayUntil+0x9c>)
 8006220:	6804      	ldr	r4, [r0, #0]
 8006222:	681a      	ldr	r2, [r3, #0]
 8006224:	1863      	adds	r3, r4, r1
 8006226:	bf2c      	ite	cs
 8006228:	2101      	movcs	r1, #1
 800622a:	2100      	movcc	r1, #0
 800622c:	4294      	cmp	r4, r2
 800622e:	d90f      	bls.n	8006250 <vTaskDelayUntil+0x84>
 8006230:	b979      	cbnz	r1, 8006252 <vTaskDelayUntil+0x86>
 8006232:	6003      	str	r3, [r0, #0]
 8006234:	f7ff ff54 	bl	80060e0 <xTaskResumeAll>
 8006238:	b948      	cbnz	r0, 800624e <vTaskDelayUntil+0x82>
 800623a:	f04f 23e0 	mov.w	r3, #3758153728	; 0xe000e000
 800623e:	f04f 5280 	mov.w	r2, #268435456	; 0x10000000
 8006242:	f8c3 2d04 	str.w	r2, [r3, #3332]	; 0xd04
 8006246:	f3bf 8f4f 	dsb	sy
 800624a:	f3bf 8f6f 	isb	sy
 800624e:	bd10      	pop	{r4, pc}
 8006250:	b909      	cbnz	r1, 8006256 <vTaskDelayUntil+0x8a>
 8006252:	429a      	cmp	r2, r3
 8006254:	d2ed      	bcs.n	8006232 <vTaskDelayUntil+0x66>
 8006256:	6003      	str	r3, [r0, #0]
 8006258:	2100      	movs	r1, #0
 800625a:	1a98      	subs	r0, r3, r2
 800625c:	f7ff fcd4 	bl	8005c08 <prvAddCurrentTaskToDelayedList>
 8006260:	e7e8      	b.n	8006234 <vTaskDelayUntil+0x68>
 8006262:	bf00      	nop
 8006264:	20001964 	.word	0x20001964
 8006268:	200019e0 	.word	0x200019e0

0800626c <vTaskSwitchContext>:
 800626c:	b5f8      	push	{r3, r4, r5, r6, r7, lr}
 800626e:	4b2c      	ldr	r3, [pc, #176]	; (8006320 <vTaskSwitchContext+0xb4>)
 8006270:	681a      	ldr	r2, [r3, #0]
 8006272:	4b2c      	ldr	r3, [pc, #176]	; (8006324 <vTaskSwitchContext+0xb8>)
 8006274:	b112      	cbz	r2, 800627c <vTaskSwitchContext+0x10>
 8006276:	2201      	movs	r2, #1
 8006278:	601a      	str	r2, [r3, #0]
 800627a:	bdf8      	pop	{r3, r4, r5, r6, r7, pc}
 800627c:	601a      	str	r2, [r3, #0]
 800627e:	f7fa fb46 	bl	800090e <getRunTimeCounterValue>
 8006282:	4a29      	ldr	r2, [pc, #164]	; (8006328 <vTaskSwitchContext+0xbc>)
 8006284:	4c29      	ldr	r4, [pc, #164]	; (800632c <vTaskSwitchContext+0xc0>)
 8006286:	6815      	ldr	r5, [r2, #0]
 8006288:	42a8      	cmp	r0, r5
 800628a:	d904      	bls.n	8006296 <vTaskSwitchContext+0x2a>
 800628c:	6821      	ldr	r1, [r4, #0]
 800628e:	6d8b      	ldr	r3, [r1, #88]	; 0x58
 8006290:	1b5b      	subs	r3, r3, r5
 8006292:	4403      	add	r3, r0
 8006294:	658b      	str	r3, [r1, #88]	; 0x58
 8006296:	6823      	ldr	r3, [r4, #0]
 8006298:	6010      	str	r0, [r2, #0]
 800629a:	6b1b      	ldr	r3, [r3, #48]	; 0x30
 800629c:	681a      	ldr	r2, [r3, #0]
 800629e:	f1b2 3fa5 	cmp.w	r2, #2779096485	; 0xa5a5a5a5
 80062a2:	d10b      	bne.n	80062bc <vTaskSwitchContext+0x50>
 80062a4:	685a      	ldr	r2, [r3, #4]
 80062a6:	f1b2 3fa5 	cmp.w	r2, #2779096485	; 0xa5a5a5a5
 80062aa:	d107      	bne.n	80062bc <vTaskSwitchContext+0x50>
 80062ac:	689a      	ldr	r2, [r3, #8]
 80062ae:	f1b2 3fa5 	cmp.w	r2, #2779096485	; 0xa5a5a5a5
 80062b2:	d103      	bne.n	80062bc <vTaskSwitchContext+0x50>
 80062b4:	68db      	ldr	r3, [r3, #12]
 80062b6:	f1b3 3fa5 	cmp.w	r3, #2779096485	; 0xa5a5a5a5
 80062ba:	d004      	beq.n	80062c6 <vTaskSwitchContext+0x5a>
 80062bc:	6820      	ldr	r0, [r4, #0]
 80062be:	6821      	ldr	r1, [r4, #0]
 80062c0:	3134      	adds	r1, #52	; 0x34
 80062c2:	f7fa fb2f 	bl	8000924 <vApplicationStackOverflowHook>
 80062c6:	4e1a      	ldr	r6, [pc, #104]	; (8006330 <vTaskSwitchContext+0xc4>)
 80062c8:	2714      	movs	r7, #20
 80062ca:	491a      	ldr	r1, [pc, #104]	; (8006334 <vTaskSwitchContext+0xc8>)
 80062cc:	6832      	ldr	r2, [r6, #0]
 80062ce:	fb07 f302 	mul.w	r3, r7, r2
 80062d2:	58cd      	ldr	r5, [r1, r3]
 80062d4:	18c8      	adds	r0, r1, r3
 80062d6:	b1a5      	cbz	r5, 8006302 <vTaskSwitchContext+0x96>
 80062d8:	6845      	ldr	r5, [r0, #4]
 80062da:	3308      	adds	r3, #8
 80062dc:	686d      	ldr	r5, [r5, #4]
 80062de:	440b      	add	r3, r1
 80062e0:	429d      	cmp	r5, r3
 80062e2:	6045      	str	r5, [r0, #4]
 80062e4:	bf04      	itt	eq
 80062e6:	686b      	ldreq	r3, [r5, #4]
 80062e8:	6043      	streq	r3, [r0, #4]
 80062ea:	2314      	movs	r3, #20
 80062ec:	fb03 1102 	mla	r1, r3, r2, r1
 80062f0:	684b      	ldr	r3, [r1, #4]
 80062f2:	68db      	ldr	r3, [r3, #12]
 80062f4:	6023      	str	r3, [r4, #0]
 80062f6:	6032      	str	r2, [r6, #0]
 80062f8:	6823      	ldr	r3, [r4, #0]
 80062fa:	4a0f      	ldr	r2, [pc, #60]	; (8006338 <vTaskSwitchContext+0xcc>)
 80062fc:	335c      	adds	r3, #92	; 0x5c
 80062fe:	6013      	str	r3, [r2, #0]
 8006300:	e7bb      	b.n	800627a <vTaskSwitchContext+0xe>
 8006302:	b952      	cbnz	r2, 800631a <vTaskSwitchContext+0xae>
 8006304:	f04f 0350 	mov.w	r3, #80	; 0x50
 8006308:	b672      	cpsid	i
 800630a:	f383 8811 	msr	BASEPRI, r3
 800630e:	f3bf 8f6f 	isb	sy
 8006312:	f3bf 8f4f 	dsb	sy
 8006316:	b662      	cpsie	i
 8006318:	e7fe      	b.n	8006318 <vTaskSwitchContext+0xac>
 800631a:	3a01      	subs	r2, #1
 800631c:	e7d7      	b.n	80062ce <vTaskSwitchContext+0x62>
 800631e:	bf00      	nop
 8006320:	20001964 	.word	0x20001964
 8006324:	200019e4 	.word	0x200019e4
 8006328:	20001954 	.word	0x20001954
 800632c:	200014e8 	.word	0x200014e8
 8006330:	2000196c 	.word	0x2000196c
 8006334:	200014f4 	.word	0x200014f4
 8006338:	20000148 	.word	0x20000148

0800633c <vTaskPlaceOnEventList>:
 800633c:	b510      	push	{r4, lr}
 800633e:	460c      	mov	r4, r1
 8006340:	b950      	cbnz	r0, 8006358 <vTaskPlaceOnEventList+0x1c>
 8006342:	f04f 0350 	mov.w	r3, #80	; 0x50
 8006346:	b672      	cpsid	i
 8006348:	f383 8811 	msr	BASEPRI, r3
 800634c:	f3bf 8f6f 	isb	sy
 8006350:	f3bf 8f4f 	dsb	sy
 8006354:	b662      	cpsie	i
 8006356:	e7fe      	b.n	8006356 <vTaskPlaceOnEventList+0x1a>
 8006358:	4b05      	ldr	r3, [pc, #20]	; (8006370 <vTaskPlaceOnEventList+0x34>)
 800635a:	6819      	ldr	r1, [r3, #0]
 800635c:	3118      	adds	r1, #24
 800635e:	f7fe fe67 	bl	8005030 <vListInsert>
 8006362:	4620      	mov	r0, r4
 8006364:	2101      	movs	r1, #1
 8006366:	e8bd 4010 	ldmia.w	sp!, {r4, lr}
 800636a:	f7ff bc4d 	b.w	8005c08 <prvAddCurrentTaskToDelayedList>
 800636e:	bf00      	nop
 8006370:	200014e8 	.word	0x200014e8

08006374 <vTaskPlaceOnEventListRestricted>:
 8006374:	b538      	push	{r3, r4, r5, lr}
 8006376:	460d      	mov	r5, r1
 8006378:	4614      	mov	r4, r2
 800637a:	b950      	cbnz	r0, 8006392 <vTaskPlaceOnEventListRestricted+0x1e>
 800637c:	f04f 0350 	mov.w	r3, #80	; 0x50
 8006380:	b672      	cpsid	i
 8006382:	f383 8811 	msr	BASEPRI, r3
 8006386:	f3bf 8f6f 	isb	sy
 800638a:	f3bf 8f4f 	dsb	sy
 800638e:	b662      	cpsie	i
 8006390:	e7fe      	b.n	8006390 <vTaskPlaceOnEventListRestricted+0x1c>
 8006392:	4b07      	ldr	r3, [pc, #28]	; (80063b0 <vTaskPlaceOnEventListRestricted+0x3c>)
 8006394:	6819      	ldr	r1, [r3, #0]
 8006396:	3118      	adds	r1, #24
 8006398:	f7fe fe3e 	bl	8005018 <vListInsertEnd>
 800639c:	2c00      	cmp	r4, #0
 800639e:	4621      	mov	r1, r4
 80063a0:	bf0c      	ite	eq
 80063a2:	4628      	moveq	r0, r5
 80063a4:	f04f 30ff 	movne.w	r0, #4294967295
 80063a8:	e8bd 4038 	ldmia.w	sp!, {r3, r4, r5, lr}
 80063ac:	f7ff bc2c 	b.w	8005c08 <prvAddCurrentTaskToDelayedList>
 80063b0:	200014e8 	.word	0x200014e8

080063b4 <xTaskRemoveFromEventList>:
 80063b4:	68c3      	ldr	r3, [r0, #12]
 80063b6:	b513      	push	{r0, r1, r4, lr}
 80063b8:	68dc      	ldr	r4, [r3, #12]
 80063ba:	b954      	cbnz	r4, 80063d2 <xTaskRemoveFromEventList+0x1e>
 80063bc:	f04f 0350 	mov.w	r3, #80	; 0x50
 80063c0:	b672      	cpsid	i
 80063c2:	f383 8811 	msr	BASEPRI, r3
 80063c6:	f3bf 8f6f 	isb	sy
 80063ca:	f3bf 8f4f 	dsb	sy
 80063ce:	b662      	cpsie	i
 80063d0:	e7fe      	b.n	80063d0 <xTaskRemoveFromEventList+0x1c>
 80063d2:	f104 0118 	add.w	r1, r4, #24
 80063d6:	4608      	mov	r0, r1
 80063d8:	9101      	str	r1, [sp, #4]
 80063da:	f7fe fe40 	bl	800505e <uxListRemove>
 80063de:	4b12      	ldr	r3, [pc, #72]	; (8006428 <xTaskRemoveFromEventList+0x74>)
 80063e0:	9901      	ldr	r1, [sp, #4]
 80063e2:	681b      	ldr	r3, [r3, #0]
 80063e4:	b9e3      	cbnz	r3, 8006420 <xTaskRemoveFromEventList+0x6c>
 80063e6:	1d21      	adds	r1, r4, #4
 80063e8:	4608      	mov	r0, r1
 80063ea:	9101      	str	r1, [sp, #4]
 80063ec:	f7fe fe37 	bl	800505e <uxListRemove>
 80063f0:	4a0e      	ldr	r2, [pc, #56]	; (800642c <xTaskRemoveFromEventList+0x78>)
 80063f2:	6ae3      	ldr	r3, [r4, #44]	; 0x2c
 80063f4:	6810      	ldr	r0, [r2, #0]
 80063f6:	9901      	ldr	r1, [sp, #4]
 80063f8:	4283      	cmp	r3, r0
 80063fa:	d900      	bls.n	80063fe <xTaskRemoveFromEventList+0x4a>
 80063fc:	6013      	str	r3, [r2, #0]
 80063fe:	4a0c      	ldr	r2, [pc, #48]	; (8006430 <xTaskRemoveFromEventList+0x7c>)
 8006400:	2014      	movs	r0, #20
 8006402:	fb00 2003 	mla	r0, r0, r3, r2
 8006406:	f7fe fe07 	bl	8005018 <vListInsertEnd>
 800640a:	4b0a      	ldr	r3, [pc, #40]	; (8006434 <xTaskRemoveFromEventList+0x80>)
 800640c:	6ae2      	ldr	r2, [r4, #44]	; 0x2c
 800640e:	681b      	ldr	r3, [r3, #0]
 8006410:	6adb      	ldr	r3, [r3, #44]	; 0x2c
 8006412:	429a      	cmp	r2, r3
 8006414:	d906      	bls.n	8006424 <xTaskRemoveFromEventList+0x70>
 8006416:	2001      	movs	r0, #1
 8006418:	4b07      	ldr	r3, [pc, #28]	; (8006438 <xTaskRemoveFromEventList+0x84>)
 800641a:	6018      	str	r0, [r3, #0]
 800641c:	b002      	add	sp, #8
 800641e:	bd10      	pop	{r4, pc}
 8006420:	4806      	ldr	r0, [pc, #24]	; (800643c <xTaskRemoveFromEventList+0x88>)
 8006422:	e7f0      	b.n	8006406 <xTaskRemoveFromEventList+0x52>
 8006424:	2000      	movs	r0, #0
 8006426:	e7f9      	b.n	800641c <xTaskRemoveFromEventList+0x68>
 8006428:	20001964 	.word	0x20001964
 800642c:	2000196c 	.word	0x2000196c
 8006430:	200014f4 	.word	0x200014f4
 8006434:	200014e8 	.word	0x200014e8
 8006438:	200019e4 	.word	0x200019e4
 800643c:	200019a0 	.word	0x200019a0

08006440 <vTaskInternalSetTimeOutState>:
 8006440:	4b03      	ldr	r3, [pc, #12]	; (8006450 <vTaskInternalSetTimeOutState+0x10>)
 8006442:	681b      	ldr	r3, [r3, #0]
 8006444:	6003      	str	r3, [r0, #0]
 8006446:	4b03      	ldr	r3, [pc, #12]	; (8006454 <vTaskInternalSetTimeOutState+0x14>)
 8006448:	681b      	ldr	r3, [r3, #0]
 800644a:	6043      	str	r3, [r0, #4]
 800644c:	4770      	bx	lr
 800644e:	bf00      	nop
 8006450:	2000199c 	.word	0x2000199c
 8006454:	200019e0 	.word	0x200019e0

08006458 <xTaskCheckForTimeOut>:
 8006458:	b570      	push	{r4, r5, r6, lr}
 800645a:	460c      	mov	r4, r1
 800645c:	4605      	mov	r5, r0
 800645e:	b950      	cbnz	r0, 8006476 <xTaskCheckForTimeOut+0x1e>
 8006460:	f04f 0350 	mov.w	r3, #80	; 0x50
 8006464:	b672      	cpsid	i
 8006466:	f383 8811 	msr	BASEPRI, r3
 800646a:	f3bf 8f6f 	isb	sy
 800646e:	f3bf 8f4f 	dsb	sy
 8006472:	b662      	cpsie	i
 8006474:	e7fe      	b.n	8006474 <xTaskCheckForTimeOut+0x1c>
 8006476:	b951      	cbnz	r1, 800648e <xTaskCheckForTimeOut+0x36>
 8006478:	f04f 0350 	mov.w	r3, #80	; 0x50
 800647c:	b672      	cpsid	i
 800647e:	f383 8811 	msr	BASEPRI, r3
 8006482:	f3bf 8f6f 	isb	sy
 8006486:	f3bf 8f4f 	dsb	sy
 800648a:	b662      	cpsie	i
 800648c:	e7fe      	b.n	800648c <xTaskCheckForTimeOut+0x34>
 800648e:	f000 fb81 	bl	8006b94 <vPortEnterCritical>
 8006492:	4b0f      	ldr	r3, [pc, #60]	; (80064d0 <xTaskCheckForTimeOut+0x78>)
 8006494:	6819      	ldr	r1, [r3, #0]
 8006496:	6823      	ldr	r3, [r4, #0]
 8006498:	1c5a      	adds	r2, r3, #1
 800649a:	d010      	beq.n	80064be <xTaskCheckForTimeOut+0x66>
 800649c:	480d      	ldr	r0, [pc, #52]	; (80064d4 <xTaskCheckForTimeOut+0x7c>)
 800649e:	682e      	ldr	r6, [r5, #0]
 80064a0:	6800      	ldr	r0, [r0, #0]
 80064a2:	686a      	ldr	r2, [r5, #4]
 80064a4:	4286      	cmp	r6, r0
 80064a6:	d001      	beq.n	80064ac <xTaskCheckForTimeOut+0x54>
 80064a8:	428a      	cmp	r2, r1
 80064aa:	d90f      	bls.n	80064cc <xTaskCheckForTimeOut+0x74>
 80064ac:	1a88      	subs	r0, r1, r2
 80064ae:	4283      	cmp	r3, r0
 80064b0:	d90a      	bls.n	80064c8 <xTaskCheckForTimeOut+0x70>
 80064b2:	1a5b      	subs	r3, r3, r1
 80064b4:	4628      	mov	r0, r5
 80064b6:	4413      	add	r3, r2
 80064b8:	6023      	str	r3, [r4, #0]
 80064ba:	f7ff ffc1 	bl	8006440 <vTaskInternalSetTimeOutState>
 80064be:	2400      	movs	r4, #0
 80064c0:	f000 fb8c 	bl	8006bdc <vPortExitCritical>
 80064c4:	4620      	mov	r0, r4
 80064c6:	bd70      	pop	{r4, r5, r6, pc}
 80064c8:	2300      	movs	r3, #0
 80064ca:	6023      	str	r3, [r4, #0]
 80064cc:	2401      	movs	r4, #1
 80064ce:	e7f7      	b.n	80064c0 <xTaskCheckForTimeOut+0x68>
 80064d0:	200019e0 	.word	0x200019e0
 80064d4:	2000199c 	.word	0x2000199c

080064d8 <vTaskMissedYield>:
 80064d8:	4b01      	ldr	r3, [pc, #4]	; (80064e0 <vTaskMissedYield+0x8>)
 80064da:	2201      	movs	r2, #1
 80064dc:	601a      	str	r2, [r3, #0]
 80064de:	4770      	bx	lr
 80064e0:	200019e4 	.word	0x200019e4

080064e4 <xTaskGetSchedulerState>:
 80064e4:	4b05      	ldr	r3, [pc, #20]	; (80064fc <xTaskGetSchedulerState+0x18>)
 80064e6:	681b      	ldr	r3, [r3, #0]
 80064e8:	b133      	cbz	r3, 80064f8 <xTaskGetSchedulerState+0x14>
 80064ea:	4b05      	ldr	r3, [pc, #20]	; (8006500 <xTaskGetSchedulerState+0x1c>)
 80064ec:	6818      	ldr	r0, [r3, #0]
 80064ee:	fab0 f080 	clz	r0, r0
 80064f2:	0940      	lsrs	r0, r0, #5
 80064f4:	0040      	lsls	r0, r0, #1
 80064f6:	4770      	bx	lr
 80064f8:	2001      	movs	r0, #1
 80064fa:	4770      	bx	lr
 80064fc:	200019b4 	.word	0x200019b4
 8006500:	20001964 	.word	0x20001964

08006504 <xTaskPriorityInherit>:
 8006504:	b573      	push	{r0, r1, r4, r5, r6, lr}
 8006506:	4604      	mov	r4, r0
 8006508:	b340      	cbz	r0, 800655c <xTaskPriorityInherit+0x58>
 800650a:	4d1b      	ldr	r5, [pc, #108]	; (8006578 <xTaskPriorityInherit+0x74>)
 800650c:	6ac3      	ldr	r3, [r0, #44]	; 0x2c
 800650e:	682a      	ldr	r2, [r5, #0]
 8006510:	6ad2      	ldr	r2, [r2, #44]	; 0x2c
 8006512:	4293      	cmp	r3, r2
 8006514:	d228      	bcs.n	8006568 <xTaskPriorityInherit+0x64>
 8006516:	6982      	ldr	r2, [r0, #24]
 8006518:	2a00      	cmp	r2, #0
 800651a:	db04      	blt.n	8006526 <xTaskPriorityInherit+0x22>
 800651c:	682a      	ldr	r2, [r5, #0]
 800651e:	6ad2      	ldr	r2, [r2, #44]	; 0x2c
 8006520:	f1c2 0238 	rsb	r2, r2, #56	; 0x38
 8006524:	6182      	str	r2, [r0, #24]
 8006526:	2214      	movs	r2, #20
 8006528:	4e14      	ldr	r6, [pc, #80]	; (800657c <xTaskPriorityInherit+0x78>)
 800652a:	fb02 6303 	mla	r3, r2, r3, r6
 800652e:	6962      	ldr	r2, [r4, #20]
 8006530:	429a      	cmp	r2, r3
 8006532:	d115      	bne.n	8006560 <xTaskPriorityInherit+0x5c>
 8006534:	1d21      	adds	r1, r4, #4
 8006536:	4608      	mov	r0, r1
 8006538:	9101      	str	r1, [sp, #4]
 800653a:	f7fe fd90 	bl	800505e <uxListRemove>
 800653e:	682b      	ldr	r3, [r5, #0]
 8006540:	4a0f      	ldr	r2, [pc, #60]	; (8006580 <xTaskPriorityInherit+0x7c>)
 8006542:	6adb      	ldr	r3, [r3, #44]	; 0x2c
 8006544:	6810      	ldr	r0, [r2, #0]
 8006546:	9901      	ldr	r1, [sp, #4]
 8006548:	4283      	cmp	r3, r0
 800654a:	62e3      	str	r3, [r4, #44]	; 0x2c
 800654c:	d900      	bls.n	8006550 <xTaskPriorityInherit+0x4c>
 800654e:	6013      	str	r3, [r2, #0]
 8006550:	2014      	movs	r0, #20
 8006552:	fb00 6003 	mla	r0, r0, r3, r6
 8006556:	f7fe fd5f 	bl	8005018 <vListInsertEnd>
 800655a:	2001      	movs	r0, #1
 800655c:	b002      	add	sp, #8
 800655e:	bd70      	pop	{r4, r5, r6, pc}
 8006560:	682b      	ldr	r3, [r5, #0]
 8006562:	6adb      	ldr	r3, [r3, #44]	; 0x2c
 8006564:	62e3      	str	r3, [r4, #44]	; 0x2c
 8006566:	e7f8      	b.n	800655a <xTaskPriorityInherit+0x56>
 8006568:	682b      	ldr	r3, [r5, #0]
 800656a:	6d00      	ldr	r0, [r0, #80]	; 0x50
 800656c:	6adb      	ldr	r3, [r3, #44]	; 0x2c
 800656e:	4298      	cmp	r0, r3
 8006570:	bf2c      	ite	cs
 8006572:	2000      	movcs	r0, #0
 8006574:	2001      	movcc	r0, #1
 8006576:	e7f1      	b.n	800655c <xTaskPriorityInherit+0x58>
 8006578:	200014e8 	.word	0x200014e8
 800657c:	200014f4 	.word	0x200014f4
 8006580:	2000196c 	.word	0x2000196c

08006584 <xTaskPriorityDisinherit>:
 8006584:	b513      	push	{r0, r1, r4, lr}
 8006586:	b910      	cbnz	r0, 800658e <xTaskPriorityDisinherit+0xa>
 8006588:	2000      	movs	r0, #0
 800658a:	b002      	add	sp, #8
 800658c:	bd10      	pop	{r4, pc}
 800658e:	4b1e      	ldr	r3, [pc, #120]	; (8006608 <xTaskPriorityDisinherit+0x84>)
 8006590:	681c      	ldr	r4, [r3, #0]
 8006592:	4284      	cmp	r4, r0
 8006594:	d00a      	beq.n	80065ac <xTaskPriorityDisinherit+0x28>
 8006596:	f04f 0350 	mov.w	r3, #80	; 0x50
 800659a:	b672      	cpsid	i
 800659c:	f383 8811 	msr	BASEPRI, r3
 80065a0:	f3bf 8f6f 	isb	sy
 80065a4:	f3bf 8f4f 	dsb	sy
 80065a8:	b662      	cpsie	i
 80065aa:	e7fe      	b.n	80065aa <xTaskPriorityDisinherit+0x26>
 80065ac:	6d63      	ldr	r3, [r4, #84]	; 0x54
 80065ae:	b953      	cbnz	r3, 80065c6 <xTaskPriorityDisinherit+0x42>
 80065b0:	f04f 0350 	mov.w	r3, #80	; 0x50
 80065b4:	b672      	cpsid	i
 80065b6:	f383 8811 	msr	BASEPRI, r3
 80065ba:	f3bf 8f6f 	isb	sy
 80065be:	f3bf 8f4f 	dsb	sy
 80065c2:	b662      	cpsie	i
 80065c4:	e7fe      	b.n	80065c4 <xTaskPriorityDisinherit+0x40>
 80065c6:	6ae1      	ldr	r1, [r4, #44]	; 0x2c
 80065c8:	3b01      	subs	r3, #1
 80065ca:	6d22      	ldr	r2, [r4, #80]	; 0x50
 80065cc:	6563      	str	r3, [r4, #84]	; 0x54
 80065ce:	4291      	cmp	r1, r2
 80065d0:	d0da      	beq.n	8006588 <xTaskPriorityDisinherit+0x4>
 80065d2:	2b00      	cmp	r3, #0
 80065d4:	d1d8      	bne.n	8006588 <xTaskPriorityDisinherit+0x4>
 80065d6:	1d21      	adds	r1, r4, #4
 80065d8:	4608      	mov	r0, r1
 80065da:	9101      	str	r1, [sp, #4]
 80065dc:	f7fe fd3f 	bl	800505e <uxListRemove>
 80065e0:	6d23      	ldr	r3, [r4, #80]	; 0x50
 80065e2:	9901      	ldr	r1, [sp, #4]
 80065e4:	f1c3 0238 	rsb	r2, r3, #56	; 0x38
 80065e8:	62e3      	str	r3, [r4, #44]	; 0x2c
 80065ea:	61a2      	str	r2, [r4, #24]
 80065ec:	4a07      	ldr	r2, [pc, #28]	; (800660c <xTaskPriorityDisinherit+0x88>)
 80065ee:	6810      	ldr	r0, [r2, #0]
 80065f0:	4283      	cmp	r3, r0
 80065f2:	d900      	bls.n	80065f6 <xTaskPriorityDisinherit+0x72>
 80065f4:	6013      	str	r3, [r2, #0]
 80065f6:	4a06      	ldr	r2, [pc, #24]	; (8006610 <xTaskPriorityDisinherit+0x8c>)
 80065f8:	2014      	movs	r0, #20
 80065fa:	fb00 2003 	mla	r0, r0, r3, r2
 80065fe:	f7fe fd0b 	bl	8005018 <vListInsertEnd>
 8006602:	2001      	movs	r0, #1
 8006604:	e7c1      	b.n	800658a <xTaskPriorityDisinherit+0x6>
 8006606:	bf00      	nop
 8006608:	200014e8 	.word	0x200014e8
 800660c:	2000196c 	.word	0x2000196c
 8006610:	200014f4 	.word	0x200014f4

08006614 <vTaskPriorityDisinheritAfterTimeout>:
 8006614:	b537      	push	{r0, r1, r2, r4, r5, lr}
 8006616:	4604      	mov	r4, r0
 8006618:	2800      	cmp	r0, #0
 800661a:	d048      	beq.n	80066ae <vTaskPriorityDisinheritAfterTimeout+0x9a>
 800661c:	6d42      	ldr	r2, [r0, #84]	; 0x54
 800661e:	b952      	cbnz	r2, 8006636 <vTaskPriorityDisinheritAfterTimeout+0x22>
 8006620:	f04f 0350 	mov.w	r3, #80	; 0x50
 8006624:	b672      	cpsid	i
 8006626:	f383 8811 	msr	BASEPRI, r3
 800662a:	f3bf 8f6f 	isb	sy
 800662e:	f3bf 8f4f 	dsb	sy
 8006632:	b662      	cpsie	i
 8006634:	e7fe      	b.n	8006634 <vTaskPriorityDisinheritAfterTimeout+0x20>
 8006636:	6d03      	ldr	r3, [r0, #80]	; 0x50
 8006638:	4299      	cmp	r1, r3
 800663a:	bf38      	it	cc
 800663c:	4619      	movcc	r1, r3
 800663e:	6ac3      	ldr	r3, [r0, #44]	; 0x2c
 8006640:	428b      	cmp	r3, r1
 8006642:	d034      	beq.n	80066ae <vTaskPriorityDisinheritAfterTimeout+0x9a>
 8006644:	2a01      	cmp	r2, #1
 8006646:	d132      	bne.n	80066ae <vTaskPriorityDisinheritAfterTimeout+0x9a>
 8006648:	4a1a      	ldr	r2, [pc, #104]	; (80066b4 <vTaskPriorityDisinheritAfterTimeout+0xa0>)
 800664a:	6812      	ldr	r2, [r2, #0]
 800664c:	4282      	cmp	r2, r0
 800664e:	d10a      	bne.n	8006666 <vTaskPriorityDisinheritAfterTimeout+0x52>
 8006650:	f04f 0350 	mov.w	r3, #80	; 0x50
 8006654:	b672      	cpsid	i
 8006656:	f383 8811 	msr	BASEPRI, r3
 800665a:	f3bf 8f6f 	isb	sy
 800665e:	f3bf 8f4f 	dsb	sy
 8006662:	b662      	cpsie	i
 8006664:	e7fe      	b.n	8006664 <vTaskPriorityDisinheritAfterTimeout+0x50>
 8006666:	6982      	ldr	r2, [r0, #24]
 8006668:	4d13      	ldr	r5, [pc, #76]	; (80066b8 <vTaskPriorityDisinheritAfterTimeout+0xa4>)
 800666a:	2a00      	cmp	r2, #0
 800666c:	f04f 0214 	mov.w	r2, #20
 8006670:	62c1      	str	r1, [r0, #44]	; 0x2c
 8006672:	fb02 5303 	mla	r3, r2, r3, r5
 8006676:	bfa8      	it	ge
 8006678:	f1c1 0138 	rsbge	r1, r1, #56	; 0x38
 800667c:	6942      	ldr	r2, [r0, #20]
 800667e:	bfa8      	it	ge
 8006680:	6181      	strge	r1, [r0, #24]
 8006682:	429a      	cmp	r2, r3
 8006684:	d113      	bne.n	80066ae <vTaskPriorityDisinheritAfterTimeout+0x9a>
 8006686:	1d01      	adds	r1, r0, #4
 8006688:	4608      	mov	r0, r1
 800668a:	9101      	str	r1, [sp, #4]
 800668c:	f7fe fce7 	bl	800505e <uxListRemove>
 8006690:	4a0a      	ldr	r2, [pc, #40]	; (80066bc <vTaskPriorityDisinheritAfterTimeout+0xa8>)
 8006692:	6ae3      	ldr	r3, [r4, #44]	; 0x2c
 8006694:	6810      	ldr	r0, [r2, #0]
 8006696:	9901      	ldr	r1, [sp, #4]
 8006698:	4283      	cmp	r3, r0
 800669a:	d900      	bls.n	800669e <vTaskPriorityDisinheritAfterTimeout+0x8a>
 800669c:	6013      	str	r3, [r2, #0]
 800669e:	2014      	movs	r0, #20
 80066a0:	fb00 5003 	mla	r0, r0, r3, r5
 80066a4:	b003      	add	sp, #12
 80066a6:	e8bd 4030 	ldmia.w	sp!, {r4, r5, lr}
 80066aa:	f7fe bcb5 	b.w	8005018 <vListInsertEnd>
 80066ae:	b003      	add	sp, #12
 80066b0:	bd30      	pop	{r4, r5, pc}
 80066b2:	bf00      	nop
 80066b4:	200014e8 	.word	0x200014e8
 80066b8:	200014f4 	.word	0x200014f4
 80066bc:	2000196c 	.word	0x2000196c

080066c0 <pvTaskIncrementMutexHeldCount>:
 80066c0:	4b04      	ldr	r3, [pc, #16]	; (80066d4 <pvTaskIncrementMutexHeldCount+0x14>)
 80066c2:	681a      	ldr	r2, [r3, #0]
 80066c4:	b11a      	cbz	r2, 80066ce <pvTaskIncrementMutexHeldCount+0xe>
 80066c6:	6819      	ldr	r1, [r3, #0]
 80066c8:	6d4a      	ldr	r2, [r1, #84]	; 0x54
 80066ca:	3201      	adds	r2, #1
 80066cc:	654a      	str	r2, [r1, #84]	; 0x54
 80066ce:	6818      	ldr	r0, [r3, #0]
 80066d0:	4770      	bx	lr
 80066d2:	bf00      	nop
 80066d4:	200014e8 	.word	0x200014e8

080066d8 <prvCheckForValidListAndQueue>:
 80066d8:	b5f7      	push	{r0, r1, r2, r4, r5, r6, r7, lr}
 80066da:	4c11      	ldr	r4, [pc, #68]	; (8006720 <prvCheckForValidListAndQueue+0x48>)
 80066dc:	f000 fa5a 	bl	8006b94 <vPortEnterCritical>
 80066e0:	6825      	ldr	r5, [r4, #0]
 80066e2:	b9bd      	cbnz	r5, 8006714 <prvCheckForValidListAndQueue+0x3c>
 80066e4:	4f0f      	ldr	r7, [pc, #60]	; (8006724 <prvCheckForValidListAndQueue+0x4c>)
 80066e6:	4e10      	ldr	r6, [pc, #64]	; (8006728 <prvCheckForValidListAndQueue+0x50>)
 80066e8:	4638      	mov	r0, r7
 80066ea:	f7fe fc87 	bl	8004ffc <vListInitialise>
 80066ee:	4630      	mov	r0, r6
 80066f0:	f7fe fc84 	bl	8004ffc <vListInitialise>
 80066f4:	4b0d      	ldr	r3, [pc, #52]	; (800672c <prvCheckForValidListAndQueue+0x54>)
 80066f6:	4a0e      	ldr	r2, [pc, #56]	; (8006730 <prvCheckForValidListAndQueue+0x58>)
 80066f8:	2110      	movs	r1, #16
 80066fa:	601f      	str	r7, [r3, #0]
 80066fc:	200a      	movs	r0, #10
 80066fe:	4b0d      	ldr	r3, [pc, #52]	; (8006734 <prvCheckForValidListAndQueue+0x5c>)
 8006700:	601e      	str	r6, [r3, #0]
 8006702:	4b0d      	ldr	r3, [pc, #52]	; (8006738 <prvCheckForValidListAndQueue+0x60>)
 8006704:	9500      	str	r5, [sp, #0]
 8006706:	f7fe fdd4 	bl	80052b2 <xQueueGenericCreateStatic>
 800670a:	6020      	str	r0, [r4, #0]
 800670c:	b110      	cbz	r0, 8006714 <prvCheckForValidListAndQueue+0x3c>
 800670e:	490b      	ldr	r1, [pc, #44]	; (800673c <prvCheckForValidListAndQueue+0x64>)
 8006710:	f7ff f99a 	bl	8005a48 <vQueueAddToRegistry>
 8006714:	b003      	add	sp, #12
 8006716:	e8bd 40f0 	ldmia.w	sp!, {r4, r5, r6, r7, lr}
 800671a:	f000 ba5f 	b.w	8006bdc <vPortExitCritical>
 800671e:	bf00      	nop
 8006720:	20001b0c 	.word	0x20001b0c
 8006724:	20001a90 	.word	0x20001a90
 8006728:	20001aa4 	.word	0x20001aa4
 800672c:	200019e8 	.word	0x200019e8
 8006730:	200019f0 	.word	0x200019f0
 8006734:	200019ec 	.word	0x200019ec
 8006738:	20001abc 	.word	0x20001abc
 800673c:	080094fd 	.word	0x080094fd

08006740 <prvInsertTimerInActiveList>:
 8006740:	4291      	cmp	r1, r2
 8006742:	b508      	push	{r3, lr}
 8006744:	6041      	str	r1, [r0, #4]
 8006746:	6100      	str	r0, [r0, #16]
 8006748:	d80a      	bhi.n	8006760 <prvInsertTimerInActiveList+0x20>
 800674a:	1ad3      	subs	r3, r2, r3
 800674c:	6982      	ldr	r2, [r0, #24]
 800674e:	4293      	cmp	r3, r2
 8006750:	d20d      	bcs.n	800676e <prvInsertTimerInActiveList+0x2e>
 8006752:	1d01      	adds	r1, r0, #4
 8006754:	4b07      	ldr	r3, [pc, #28]	; (8006774 <prvInsertTimerInActiveList+0x34>)
 8006756:	6818      	ldr	r0, [r3, #0]
 8006758:	f7fe fc6a 	bl	8005030 <vListInsert>
 800675c:	2000      	movs	r0, #0
 800675e:	bd08      	pop	{r3, pc}
 8006760:	429a      	cmp	r2, r3
 8006762:	d201      	bcs.n	8006768 <prvInsertTimerInActiveList+0x28>
 8006764:	4299      	cmp	r1, r3
 8006766:	d202      	bcs.n	800676e <prvInsertTimerInActiveList+0x2e>
 8006768:	1d01      	adds	r1, r0, #4
 800676a:	4b03      	ldr	r3, [pc, #12]	; (8006778 <prvInsertTimerInActiveList+0x38>)
 800676c:	e7f3      	b.n	8006756 <prvInsertTimerInActiveList+0x16>
 800676e:	2001      	movs	r0, #1
 8006770:	e7f5      	b.n	800675e <prvInsertTimerInActiveList+0x1e>
 8006772:	bf00      	nop
 8006774:	200019ec 	.word	0x200019ec
 8006778:	200019e8 	.word	0x200019e8

0800677c <xTimerCreateTimerTask>:
 800677c:	b510      	push	{r4, lr}
 800677e:	b088      	sub	sp, #32
 8006780:	f7ff ffaa 	bl	80066d8 <prvCheckForValidListAndQueue>
 8006784:	4b13      	ldr	r3, [pc, #76]	; (80067d4 <xTimerCreateTimerTask+0x58>)
 8006786:	681b      	ldr	r3, [r3, #0]
 8006788:	b1b3      	cbz	r3, 80067b8 <xTimerCreateTimerTask+0x3c>
 800678a:	2400      	movs	r4, #0
 800678c:	aa07      	add	r2, sp, #28
 800678e:	a906      	add	r1, sp, #24
 8006790:	a805      	add	r0, sp, #20
 8006792:	e9cd 4405 	strd	r4, r4, [sp, #20]
 8006796:	f7fe fc25 	bl	8004fe4 <vApplicationGetTimerTaskMemory>
 800679a:	9b05      	ldr	r3, [sp, #20]
 800679c:	9a07      	ldr	r2, [sp, #28]
 800679e:	9302      	str	r3, [sp, #8]
 80067a0:	9b06      	ldr	r3, [sp, #24]
 80067a2:	490d      	ldr	r1, [pc, #52]	; (80067d8 <xTimerCreateTimerTask+0x5c>)
 80067a4:	9301      	str	r3, [sp, #4]
 80067a6:	2302      	movs	r3, #2
 80067a8:	480c      	ldr	r0, [pc, #48]	; (80067dc <xTimerCreateTimerTask+0x60>)
 80067aa:	9300      	str	r3, [sp, #0]
 80067ac:	4623      	mov	r3, r4
 80067ae:	f7ff fb29 	bl	8005e04 <xTaskCreateStatic>
 80067b2:	4b0b      	ldr	r3, [pc, #44]	; (80067e0 <xTimerCreateTimerTask+0x64>)
 80067b4:	6018      	str	r0, [r3, #0]
 80067b6:	b950      	cbnz	r0, 80067ce <xTimerCreateTimerTask+0x52>
 80067b8:	f04f 0350 	mov.w	r3, #80	; 0x50
 80067bc:	b672      	cpsid	i
 80067be:	f383 8811 	msr	BASEPRI, r3
 80067c2:	f3bf 8f6f 	isb	sy
 80067c6:	f3bf 8f4f 	dsb	sy
 80067ca:	b662      	cpsie	i
 80067cc:	e7fe      	b.n	80067cc <xTimerCreateTimerTask+0x50>
 80067ce:	2001      	movs	r0, #1
 80067d0:	b008      	add	sp, #32
 80067d2:	bd10      	pop	{r4, pc}
 80067d4:	20001b0c 	.word	0x20001b0c
 80067d8:	08009502 	.word	0x08009502
 80067dc:	080068ed 	.word	0x080068ed
 80067e0:	20001b10 	.word	0x20001b10

080067e4 <xTimerGenericCommand>:
 80067e4:	b57f      	push	{r0, r1, r2, r3, r4, r5, r6, lr}
 80067e6:	4616      	mov	r6, r2
 80067e8:	4604      	mov	r4, r0
 80067ea:	461a      	mov	r2, r3
 80067ec:	b950      	cbnz	r0, 8006804 <xTimerGenericCommand+0x20>
 80067ee:	f04f 0350 	mov.w	r3, #80	; 0x50
 80067f2:	b672      	cpsid	i
 80067f4:	f383 8811 	msr	BASEPRI, r3
 80067f8:	f3bf 8f6f 	isb	sy
 80067fc:	f3bf 8f4f 	dsb	sy
 8006800:	b662      	cpsie	i
 8006802:	e7fe      	b.n	8006802 <xTimerGenericCommand+0x1e>
 8006804:	4d0c      	ldr	r5, [pc, #48]	; (8006838 <xTimerGenericCommand+0x54>)
 8006806:	6828      	ldr	r0, [r5, #0]
 8006808:	b178      	cbz	r0, 800682a <xTimerGenericCommand+0x46>
 800680a:	2905      	cmp	r1, #5
 800680c:	9402      	str	r4, [sp, #8]
 800680e:	e9cd 1600 	strd	r1, r6, [sp]
 8006812:	dc0c      	bgt.n	800682e <xTimerGenericCommand+0x4a>
 8006814:	f7ff fe66 	bl	80064e4 <xTaskGetSchedulerState>
 8006818:	2300      	movs	r3, #0
 800681a:	2802      	cmp	r0, #2
 800681c:	4669      	mov	r1, sp
 800681e:	6828      	ldr	r0, [r5, #0]
 8006820:	bf0c      	ite	eq
 8006822:	9a08      	ldreq	r2, [sp, #32]
 8006824:	461a      	movne	r2, r3
 8006826:	f7fe fdc9 	bl	80053bc <xQueueGenericSend>
 800682a:	b004      	add	sp, #16
 800682c:	bd70      	pop	{r4, r5, r6, pc}
 800682e:	2300      	movs	r3, #0
 8006830:	4669      	mov	r1, sp
 8006832:	f7fe fe7e 	bl	8005532 <xQueueGenericSendFromISR>
 8006836:	e7f8      	b.n	800682a <xTimerGenericCommand+0x46>
 8006838:	20001b0c 	.word	0x20001b0c

0800683c <prvSampleTimeNow>:
 800683c:	e92d 47ff 	stmdb	sp!, {r0, r1, r2, r3, r4, r5, r6, r7, r8, r9, sl, lr}
 8006840:	f8df 80a4 	ldr.w	r8, [pc, #164]	; 80068e8 <prvSampleTimeNow+0xac>
 8006844:	4606      	mov	r6, r0
 8006846:	f7ff fba7 	bl	8005f98 <xTaskGetTickCount>
 800684a:	4605      	mov	r5, r0
 800684c:	f8d8 3000 	ldr.w	r3, [r8]
 8006850:	4283      	cmp	r3, r0
 8006852:	d90b      	bls.n	800686c <prvSampleTimeNow+0x30>
 8006854:	4f22      	ldr	r7, [pc, #136]	; (80068e0 <prvSampleTimeNow+0xa4>)
 8006856:	f04f 0900 	mov.w	r9, #0
 800685a:	683b      	ldr	r3, [r7, #0]
 800685c:	681a      	ldr	r2, [r3, #0]
 800685e:	b96a      	cbnz	r2, 800687c <prvSampleTimeNow+0x40>
 8006860:	4a20      	ldr	r2, [pc, #128]	; (80068e4 <prvSampleTimeNow+0xa8>)
 8006862:	6811      	ldr	r1, [r2, #0]
 8006864:	6013      	str	r3, [r2, #0]
 8006866:	2301      	movs	r3, #1
 8006868:	6039      	str	r1, [r7, #0]
 800686a:	e000      	b.n	800686e <prvSampleTimeNow+0x32>
 800686c:	2300      	movs	r3, #0
 800686e:	4628      	mov	r0, r5
 8006870:	6033      	str	r3, [r6, #0]
 8006872:	f8c8 5000 	str.w	r5, [r8]
 8006876:	b004      	add	sp, #16
 8006878:	e8bd 87f0 	ldmia.w	sp!, {r4, r5, r6, r7, r8, r9, sl, pc}
 800687c:	68db      	ldr	r3, [r3, #12]
 800687e:	68dc      	ldr	r4, [r3, #12]
 8006880:	f8d3 a000 	ldr.w	sl, [r3]
 8006884:	1d21      	adds	r1, r4, #4
 8006886:	4608      	mov	r0, r1
 8006888:	9103      	str	r1, [sp, #12]
 800688a:	f7fe fbe8 	bl	800505e <uxListRemove>
 800688e:	6a23      	ldr	r3, [r4, #32]
 8006890:	4620      	mov	r0, r4
 8006892:	4798      	blx	r3
 8006894:	f894 3028 	ldrb.w	r3, [r4, #40]	; 0x28
 8006898:	9903      	ldr	r1, [sp, #12]
 800689a:	f013 0f04 	tst.w	r3, #4
 800689e:	d0dc      	beq.n	800685a <prvSampleTimeNow+0x1e>
 80068a0:	69a3      	ldr	r3, [r4, #24]
 80068a2:	4453      	add	r3, sl
 80068a4:	459a      	cmp	sl, r3
 80068a6:	d205      	bcs.n	80068b4 <prvSampleTimeNow+0x78>
 80068a8:	6838      	ldr	r0, [r7, #0]
 80068aa:	6063      	str	r3, [r4, #4]
 80068ac:	6124      	str	r4, [r4, #16]
 80068ae:	f7fe fbbf 	bl	8005030 <vListInsert>
 80068b2:	e7d2      	b.n	800685a <prvSampleTimeNow+0x1e>
 80068b4:	2300      	movs	r3, #0
 80068b6:	4652      	mov	r2, sl
 80068b8:	4620      	mov	r0, r4
 80068ba:	f8cd 9000 	str.w	r9, [sp]
 80068be:	4619      	mov	r1, r3
 80068c0:	f7ff ff90 	bl	80067e4 <xTimerGenericCommand>
 80068c4:	2800      	cmp	r0, #0
 80068c6:	d1c8      	bne.n	800685a <prvSampleTimeNow+0x1e>
 80068c8:	f04f 0350 	mov.w	r3, #80	; 0x50
 80068cc:	b672      	cpsid	i
 80068ce:	f383 8811 	msr	BASEPRI, r3
 80068d2:	f3bf 8f6f 	isb	sy
 80068d6:	f3bf 8f4f 	dsb	sy
 80068da:	b662      	cpsie	i
 80068dc:	e7fe      	b.n	80068dc <prvSampleTimeNow+0xa0>
 80068de:	bf00      	nop
 80068e0:	200019e8 	.word	0x200019e8
 80068e4:	200019ec 	.word	0x200019ec
 80068e8:	20001ab8 	.word	0x20001ab8

080068ec <prvTimerTask>:
 80068ec:	e92d 43f0 	stmdb	sp!, {r4, r5, r6, r7, r8, r9, lr}
 80068f0:	4d71      	ldr	r5, [pc, #452]	; (8006ab8 <prvTimerTask+0x1cc>)
 80068f2:	b089      	sub	sp, #36	; 0x24
 80068f4:	4e71      	ldr	r6, [pc, #452]	; (8006abc <prvTimerTask+0x1d0>)
 80068f6:	682b      	ldr	r3, [r5, #0]
 80068f8:	f8d3 8000 	ldr.w	r8, [r3]
 80068fc:	f1b8 0f00 	cmp.w	r8, #0
 8006900:	d037      	beq.n	8006972 <prvTimerTask+0x86>
 8006902:	68db      	ldr	r3, [r3, #12]
 8006904:	2400      	movs	r4, #0
 8006906:	f8d3 8000 	ldr.w	r8, [r3]
 800690a:	f7ff fb3d 	bl	8005f88 <vTaskSuspendAll>
 800690e:	a804      	add	r0, sp, #16
 8006910:	f7ff ff94 	bl	800683c <prvSampleTimeNow>
 8006914:	9b04      	ldr	r3, [sp, #16]
 8006916:	4681      	mov	r9, r0
 8006918:	2b00      	cmp	r3, #0
 800691a:	d16b      	bne.n	80069f4 <prvTimerTask+0x108>
 800691c:	2c00      	cmp	r4, #0
 800691e:	d14e      	bne.n	80069be <prvTimerTask+0xd2>
 8006920:	4540      	cmp	r0, r8
 8006922:	d352      	bcc.n	80069ca <prvTimerTask+0xde>
 8006924:	f7ff fbdc 	bl	80060e0 <xTaskResumeAll>
 8006928:	682b      	ldr	r3, [r5, #0]
 800692a:	68db      	ldr	r3, [r3, #12]
 800692c:	68df      	ldr	r7, [r3, #12]
 800692e:	1d38      	adds	r0, r7, #4
 8006930:	f7fe fb95 	bl	800505e <uxListRemove>
 8006934:	f897 3028 	ldrb.w	r3, [r7, #40]	; 0x28
 8006938:	0758      	lsls	r0, r3, #29
 800693a:	d51c      	bpl.n	8006976 <prvTimerTask+0x8a>
 800693c:	69b9      	ldr	r1, [r7, #24]
 800693e:	4643      	mov	r3, r8
 8006940:	464a      	mov	r2, r9
 8006942:	4638      	mov	r0, r7
 8006944:	4441      	add	r1, r8
 8006946:	f7ff fefb 	bl	8006740 <prvInsertTimerInActiveList>
 800694a:	b1c0      	cbz	r0, 800697e <prvTimerTask+0x92>
 800694c:	4623      	mov	r3, r4
 800694e:	4642      	mov	r2, r8
 8006950:	4621      	mov	r1, r4
 8006952:	4638      	mov	r0, r7
 8006954:	9400      	str	r4, [sp, #0]
 8006956:	f7ff ff45 	bl	80067e4 <xTimerGenericCommand>
 800695a:	b980      	cbnz	r0, 800697e <prvTimerTask+0x92>
 800695c:	f04f 0350 	mov.w	r3, #80	; 0x50
 8006960:	b672      	cpsid	i
 8006962:	f383 8811 	msr	BASEPRI, r3
 8006966:	f3bf 8f6f 	isb	sy
 800696a:	f3bf 8f4f 	dsb	sy
 800696e:	b662      	cpsie	i
 8006970:	e7fe      	b.n	8006970 <prvTimerTask+0x84>
 8006972:	2401      	movs	r4, #1
 8006974:	e7c9      	b.n	800690a <prvTimerTask+0x1e>
 8006976:	f023 0301 	bic.w	r3, r3, #1
 800697a:	f887 3028 	strb.w	r3, [r7, #40]	; 0x28
 800697e:	6a3b      	ldr	r3, [r7, #32]
 8006980:	4638      	mov	r0, r7
 8006982:	4798      	blx	r3
 8006984:	2200      	movs	r2, #0
 8006986:	a904      	add	r1, sp, #16
 8006988:	6830      	ldr	r0, [r6, #0]
 800698a:	f7fe fe97 	bl	80056bc <xQueueReceive>
 800698e:	2800      	cmp	r0, #0
 8006990:	d0b1      	beq.n	80068f6 <prvTimerTask+0xa>
 8006992:	9b04      	ldr	r3, [sp, #16]
 8006994:	9806      	ldr	r0, [sp, #24]
 8006996:	2b00      	cmp	r3, #0
 8006998:	db2f      	blt.n	80069fa <prvTimerTask+0x10e>
 800699a:	9c06      	ldr	r4, [sp, #24]
 800699c:	6963      	ldr	r3, [r4, #20]
 800699e:	2b00      	cmp	r3, #0
 80069a0:	d132      	bne.n	8006a08 <prvTimerTask+0x11c>
 80069a2:	a803      	add	r0, sp, #12
 80069a4:	f7ff ff4a 	bl	800683c <prvSampleTimeNow>
 80069a8:	9b04      	ldr	r3, [sp, #16]
 80069aa:	4602      	mov	r2, r0
 80069ac:	2b09      	cmp	r3, #9
 80069ae:	d8e9      	bhi.n	8006984 <prvTimerTask+0x98>
 80069b0:	e8df f003 	tbb	[pc, r3]
 80069b4:	592e2e2e 	.word	0x592e2e2e
 80069b8:	2e2e7a60 	.word	0x2e2e7a60
 80069bc:	6059      	.short	0x6059
 80069be:	4b40      	ldr	r3, [pc, #256]	; (8006ac0 <prvTimerTask+0x1d4>)
 80069c0:	681b      	ldr	r3, [r3, #0]
 80069c2:	681c      	ldr	r4, [r3, #0]
 80069c4:	fab4 f484 	clz	r4, r4
 80069c8:	0964      	lsrs	r4, r4, #5
 80069ca:	4622      	mov	r2, r4
 80069cc:	eba8 0109 	sub.w	r1, r8, r9
 80069d0:	6830      	ldr	r0, [r6, #0]
 80069d2:	f7ff f878 	bl	8005ac6 <vQueueWaitForMessageRestricted>
 80069d6:	f7ff fb83 	bl	80060e0 <xTaskResumeAll>
 80069da:	2800      	cmp	r0, #0
 80069dc:	d1d2      	bne.n	8006984 <prvTimerTask+0x98>
 80069de:	f04f 23e0 	mov.w	r3, #3758153728	; 0xe000e000
 80069e2:	f04f 5280 	mov.w	r2, #268435456	; 0x10000000
 80069e6:	f8c3 2d04 	str.w	r2, [r3, #3332]	; 0xd04
 80069ea:	f3bf 8f4f 	dsb	sy
 80069ee:	f3bf 8f6f 	isb	sy
 80069f2:	e7c7      	b.n	8006984 <prvTimerTask+0x98>
 80069f4:	f7ff fb74 	bl	80060e0 <xTaskResumeAll>
 80069f8:	e7c4      	b.n	8006984 <prvTimerTask+0x98>
 80069fa:	9b05      	ldr	r3, [sp, #20]
 80069fc:	9907      	ldr	r1, [sp, #28]
 80069fe:	4798      	blx	r3
 8006a00:	9b04      	ldr	r3, [sp, #16]
 8006a02:	2b00      	cmp	r3, #0
 8006a04:	dbbe      	blt.n	8006984 <prvTimerTask+0x98>
 8006a06:	e7c8      	b.n	800699a <prvTimerTask+0xae>
 8006a08:	1d20      	adds	r0, r4, #4
 8006a0a:	f7fe fb28 	bl	800505e <uxListRemove>
 8006a0e:	e7c8      	b.n	80069a2 <prvTimerTask+0xb6>
 8006a10:	f894 3028 	ldrb.w	r3, [r4, #40]	; 0x28
 8006a14:	4620      	mov	r0, r4
 8006a16:	69a1      	ldr	r1, [r4, #24]
 8006a18:	f043 0301 	orr.w	r3, r3, #1
 8006a1c:	f884 3028 	strb.w	r3, [r4, #40]	; 0x28
 8006a20:	9b05      	ldr	r3, [sp, #20]
 8006a22:	4419      	add	r1, r3
 8006a24:	f7ff fe8c 	bl	8006740 <prvInsertTimerInActiveList>
 8006a28:	2800      	cmp	r0, #0
 8006a2a:	d0ab      	beq.n	8006984 <prvTimerTask+0x98>
 8006a2c:	6a23      	ldr	r3, [r4, #32]
 8006a2e:	4620      	mov	r0, r4
 8006a30:	4798      	blx	r3
 8006a32:	f894 3028 	ldrb.w	r3, [r4, #40]	; 0x28
 8006a36:	0759      	lsls	r1, r3, #29
 8006a38:	d5a4      	bpl.n	8006984 <prvTimerTask+0x98>
 8006a3a:	69a2      	ldr	r2, [r4, #24]
 8006a3c:	2300      	movs	r3, #0
 8006a3e:	9905      	ldr	r1, [sp, #20]
 8006a40:	4620      	mov	r0, r4
 8006a42:	9300      	str	r3, [sp, #0]
 8006a44:	440a      	add	r2, r1
 8006a46:	4619      	mov	r1, r3
 8006a48:	f7ff fecc 	bl	80067e4 <xTimerGenericCommand>
 8006a4c:	2800      	cmp	r0, #0
 8006a4e:	d199      	bne.n	8006984 <prvTimerTask+0x98>
 8006a50:	f04f 0350 	mov.w	r3, #80	; 0x50
 8006a54:	b672      	cpsid	i
 8006a56:	f383 8811 	msr	BASEPRI, r3
 8006a5a:	f3bf 8f6f 	isb	sy
 8006a5e:	f3bf 8f4f 	dsb	sy
 8006a62:	b662      	cpsie	i
 8006a64:	e7fe      	b.n	8006a64 <prvTimerTask+0x178>
 8006a66:	f894 3028 	ldrb.w	r3, [r4, #40]	; 0x28
 8006a6a:	f023 0301 	bic.w	r3, r3, #1
 8006a6e:	f884 3028 	strb.w	r3, [r4, #40]	; 0x28
 8006a72:	e787      	b.n	8006984 <prvTimerTask+0x98>
 8006a74:	f894 3028 	ldrb.w	r3, [r4, #40]	; 0x28
 8006a78:	f043 0301 	orr.w	r3, r3, #1
 8006a7c:	f884 3028 	strb.w	r3, [r4, #40]	; 0x28
 8006a80:	9905      	ldr	r1, [sp, #20]
 8006a82:	61a1      	str	r1, [r4, #24]
 8006a84:	b951      	cbnz	r1, 8006a9c <prvTimerTask+0x1b0>
 8006a86:	f04f 0350 	mov.w	r3, #80	; 0x50
 8006a8a:	b672      	cpsid	i
 8006a8c:	f383 8811 	msr	BASEPRI, r3
 8006a90:	f3bf 8f6f 	isb	sy
 8006a94:	f3bf 8f4f 	dsb	sy
 8006a98:	b662      	cpsie	i
 8006a9a:	e7fe      	b.n	8006a9a <prvTimerTask+0x1ae>
 8006a9c:	4603      	mov	r3, r0
 8006a9e:	4401      	add	r1, r0
 8006aa0:	4620      	mov	r0, r4
 8006aa2:	f7ff fe4d 	bl	8006740 <prvInsertTimerInActiveList>
 8006aa6:	e76d      	b.n	8006984 <prvTimerTask+0x98>
 8006aa8:	f894 3028 	ldrb.w	r3, [r4, #40]	; 0x28
 8006aac:	079a      	lsls	r2, r3, #30
 8006aae:	d4dc      	bmi.n	8006a6a <prvTimerTask+0x17e>
 8006ab0:	4620      	mov	r0, r4
 8006ab2:	f000 fa5b 	bl	8006f6c <vPortFree>
 8006ab6:	e765      	b.n	8006984 <prvTimerTask+0x98>
 8006ab8:	200019e8 	.word	0x200019e8
 8006abc:	20001b0c 	.word	0x20001b0c
 8006ac0:	200019ec 	.word	0x200019ec

08006ac4 <prvPortStartFirstTask>:
 8006ac4:	4808      	ldr	r0, [pc, #32]	; (8006ae8 <prvPortStartFirstTask+0x24>)
 8006ac6:	6800      	ldr	r0, [r0, #0]
 8006ac8:	6800      	ldr	r0, [r0, #0]
 8006aca:	f380 8808 	msr	MSP, r0
 8006ace:	f04f 0000 	mov.w	r0, #0
 8006ad2:	f380 8814 	msr	CONTROL, r0
 8006ad6:	b662      	cpsie	i
 8006ad8:	b661      	cpsie	f
 8006ada:	f3bf 8f4f 	dsb	sy
 8006ade:	f3bf 8f6f 	isb	sy
 8006ae2:	df00      	svc	0
 8006ae4:	bf00      	nop
 8006ae6:	0000      	.short	0x0000
 8006ae8:	e000ed08 	.word	0xe000ed08

08006aec <vPortEnableVFP>:
 8006aec:	f8df 000c 	ldr.w	r0, [pc, #12]	; 8006afc <vPortEnableVFP+0x10>
 8006af0:	6801      	ldr	r1, [r0, #0]
 8006af2:	f441 0170 	orr.w	r1, r1, #15728640	; 0xf00000
 8006af6:	6001      	str	r1, [r0, #0]
 8006af8:	4770      	bx	lr
 8006afa:	0000      	.short	0x0000
 8006afc:	e000ed88 	.word	0xe000ed88

08006b00 <prvTaskExitError>:
 8006b00:	2300      	movs	r3, #0
 8006b02:	b082      	sub	sp, #8
 8006b04:	9301      	str	r3, [sp, #4]
 8006b06:	4b0f      	ldr	r3, [pc, #60]	; (8006b44 <prvTaskExitError+0x44>)
 8006b08:	681b      	ldr	r3, [r3, #0]
 8006b0a:	3301      	adds	r3, #1
 8006b0c:	d00a      	beq.n	8006b24 <prvTaskExitError+0x24>
 8006b0e:	f04f 0350 	mov.w	r3, #80	; 0x50
 8006b12:	b672      	cpsid	i
 8006b14:	f383 8811 	msr	BASEPRI, r3
 8006b18:	f3bf 8f6f 	isb	sy
 8006b1c:	f3bf 8f4f 	dsb	sy
 8006b20:	b662      	cpsie	i
 8006b22:	e7fe      	b.n	8006b22 <prvTaskExitError+0x22>
 8006b24:	f04f 0350 	mov.w	r3, #80	; 0x50
 8006b28:	b672      	cpsid	i
 8006b2a:	f383 8811 	msr	BASEPRI, r3
 8006b2e:	f3bf 8f6f 	isb	sy
 8006b32:	f3bf 8f4f 	dsb	sy
 8006b36:	b662      	cpsie	i
 8006b38:	9b01      	ldr	r3, [sp, #4]
 8006b3a:	2b00      	cmp	r3, #0
 8006b3c:	d0fc      	beq.n	8006b38 <prvTaskExitError+0x38>
 8006b3e:	b002      	add	sp, #8
 8006b40:	4770      	bx	lr
 8006b42:	bf00      	nop
 8006b44:	200000ec 	.word	0x200000ec

08006b48 <pxPortInitialiseStack>:
 8006b48:	f04f 7380 	mov.w	r3, #16777216	; 0x1000000
 8006b4c:	f021 0101 	bic.w	r1, r1, #1
 8006b50:	f840 2c20 	str.w	r2, [r0, #-32]
 8006b54:	3844      	subs	r0, #68	; 0x44
 8006b56:	6403      	str	r3, [r0, #64]	; 0x40
 8006b58:	4b03      	ldr	r3, [pc, #12]	; (8006b68 <pxPortInitialiseStack+0x20>)
 8006b5a:	63c1      	str	r1, [r0, #60]	; 0x3c
 8006b5c:	6383      	str	r3, [r0, #56]	; 0x38
 8006b5e:	f06f 0302 	mvn.w	r3, #2
 8006b62:	6203      	str	r3, [r0, #32]
 8006b64:	4770      	bx	lr
 8006b66:	bf00      	nop
 8006b68:	08006b01 	.word	0x08006b01
 8006b6c:	00000000 	.word	0x00000000

08006b70 <SVC_Handler>:
 8006b70:	4b07      	ldr	r3, [pc, #28]	; (8006b90 <pxCurrentTCBConst2>)
 8006b72:	6819      	ldr	r1, [r3, #0]
 8006b74:	6808      	ldr	r0, [r1, #0]
 8006b76:	e8b0 4ff0 	ldmia.w	r0!, {r4, r5, r6, r7, r8, r9, sl, fp, lr}
 8006b7a:	f380 8809 	msr	PSP, r0
 8006b7e:	f3bf 8f6f 	isb	sy
 8006b82:	f04f 0000 	mov.w	r0, #0
 8006b86:	f380 8811 	msr	BASEPRI, r0
 8006b8a:	4770      	bx	lr
 8006b8c:	f3af 8000 	nop.w

08006b90 <pxCurrentTCBConst2>:
 8006b90:	200014e8 	.word	0x200014e8

08006b94 <vPortEnterCritical>:
 8006b94:	f04f 0350 	mov.w	r3, #80	; 0x50
 8006b98:	b672      	cpsid	i
 8006b9a:	f383 8811 	msr	BASEPRI, r3
 8006b9e:	f3bf 8f6f 	isb	sy
 8006ba2:	f3bf 8f4f 	dsb	sy
 8006ba6:	b662      	cpsie	i
 8006ba8:	4a0b      	ldr	r2, [pc, #44]	; (8006bd8 <vPortEnterCritical+0x44>)
 8006baa:	6813      	ldr	r3, [r2, #0]
 8006bac:	3301      	adds	r3, #1
 8006bae:	2b01      	cmp	r3, #1
 8006bb0:	6013      	str	r3, [r2, #0]
 8006bb2:	d110      	bne.n	8006bd6 <vPortEnterCritical+0x42>
 8006bb4:	f04f 23e0 	mov.w	r3, #3758153728	; 0xe000e000
 8006bb8:	f8d3 3d04 	ldr.w	r3, [r3, #3332]	; 0xd04
 8006bbc:	b2db      	uxtb	r3, r3
 8006bbe:	b153      	cbz	r3, 8006bd6 <vPortEnterCritical+0x42>
 8006bc0:	f04f 0350 	mov.w	r3, #80	; 0x50
 8006bc4:	b672      	cpsid	i
 8006bc6:	f383 8811 	msr	BASEPRI, r3
 8006bca:	f3bf 8f6f 	isb	sy
 8006bce:	f3bf 8f4f 	dsb	sy
 8006bd2:	b662      	cpsie	i
 8006bd4:	e7fe      	b.n	8006bd4 <vPortEnterCritical+0x40>
 8006bd6:	4770      	bx	lr
 8006bd8:	200000ec 	.word	0x200000ec

08006bdc <vPortExitCritical>:
 8006bdc:	4a09      	ldr	r2, [pc, #36]	; (8006c04 <vPortExitCritical+0x28>)
 8006bde:	6813      	ldr	r3, [r2, #0]
 8006be0:	b953      	cbnz	r3, 8006bf8 <vPortExitCritical+0x1c>
 8006be2:	f04f 0350 	mov.w	r3, #80	; 0x50
 8006be6:	b672      	cpsid	i
 8006be8:	f383 8811 	msr	BASEPRI, r3
 8006bec:	f3bf 8f6f 	isb	sy
 8006bf0:	f3bf 8f4f 	dsb	sy
 8006bf4:	b662      	cpsie	i
 8006bf6:	e7fe      	b.n	8006bf6 <vPortExitCritical+0x1a>
 8006bf8:	3b01      	subs	r3, #1
 8006bfa:	6013      	str	r3, [r2, #0]
 8006bfc:	b90b      	cbnz	r3, 8006c02 <vPortExitCritical+0x26>
 8006bfe:	f383 8811 	msr	BASEPRI, r3
 8006c02:	4770      	bx	lr
 8006c04:	200000ec 	.word	0x200000ec
	...

08006c10 <PendSV_Handler>:
 8006c10:	f3ef 8009 	mrs	r0, PSP
 8006c14:	f3bf 8f6f 	isb	sy
 8006c18:	4b15      	ldr	r3, [pc, #84]	; (8006c70 <pxCurrentTCBConst>)
 8006c1a:	681a      	ldr	r2, [r3, #0]
 8006c1c:	f01e 0f10 	tst.w	lr, #16
 8006c20:	bf08      	it	eq
 8006c22:	ed20 8a10 	vstmdbeq	r0!, {s16-s31}
 8006c26:	e920 4ff0 	stmdb	r0!, {r4, r5, r6, r7, r8, r9, sl, fp, lr}
 8006c2a:	6010      	str	r0, [r2, #0]
 8006c2c:	e92d 0009 	stmdb	sp!, {r0, r3}
 8006c30:	f04f 0050 	mov.w	r0, #80	; 0x50
 8006c34:	b672      	cpsid	i
 8006c36:	f380 8811 	msr	BASEPRI, r0
 8006c3a:	f3bf 8f4f 	dsb	sy
 8006c3e:	f3bf 8f6f 	isb	sy
 8006c42:	b662      	cpsie	i
 8006c44:	f7ff fb12 	bl	800626c <vTaskSwitchContext>
 8006c48:	f04f 0000 	mov.w	r0, #0
 8006c4c:	f380 8811 	msr	BASEPRI, r0
 8006c50:	bc09      	pop	{r0, r3}
 8006c52:	6819      	ldr	r1, [r3, #0]
 8006c54:	6808      	ldr	r0, [r1, #0]
 8006c56:	e8b0 4ff0 	ldmia.w	r0!, {r4, r5, r6, r7, r8, r9, sl, fp, lr}
 8006c5a:	f01e 0f10 	tst.w	lr, #16
 8006c5e:	bf08      	it	eq
 8006c60:	ecb0 8a10 	vldmiaeq	r0!, {s16-s31}
 8006c64:	f380 8809 	msr	PSP, r0
 8006c68:	f3bf 8f6f 	isb	sy
 8006c6c:	4770      	bx	lr
 8006c6e:	bf00      	nop

08006c70 <pxCurrentTCBConst>:
 8006c70:	200014e8 	.word	0x200014e8

08006c74 <SysTick_Handler>:
 8006c74:	b508      	push	{r3, lr}
 8006c76:	f04f 0350 	mov.w	r3, #80	; 0x50
 8006c7a:	b672      	cpsid	i
 8006c7c:	f383 8811 	msr	BASEPRI, r3
 8006c80:	f3bf 8f6f 	isb	sy
 8006c84:	f3bf 8f4f 	dsb	sy
 8006c88:	b662      	cpsie	i
 8006c8a:	f7ff f98b 	bl	8005fa4 <xTaskIncrementTick>
 8006c8e:	b128      	cbz	r0, 8006c9c <SysTick_Handler+0x28>
 8006c90:	f04f 23e0 	mov.w	r3, #3758153728	; 0xe000e000
 8006c94:	f04f 5280 	mov.w	r2, #268435456	; 0x10000000
 8006c98:	f8c3 2d04 	str.w	r2, [r3, #3332]	; 0xd04
 8006c9c:	2300      	movs	r3, #0
 8006c9e:	f383 8811 	msr	BASEPRI, r3
 8006ca2:	bd08      	pop	{r3, pc}

08006ca4 <vPortSetupTimerInterrupt>:
 8006ca4:	f04f 22e0 	mov.w	r2, #3758153728	; 0xe000e000
 8006ca8:	2300      	movs	r3, #0
 8006caa:	f44f 717a 	mov.w	r1, #1000	; 0x3e8
 8006cae:	6113      	str	r3, [r2, #16]
 8006cb0:	6193      	str	r3, [r2, #24]
 8006cb2:	4b04      	ldr	r3, [pc, #16]	; (8006cc4 <vPortSetupTimerInterrupt+0x20>)
 8006cb4:	681b      	ldr	r3, [r3, #0]
 8006cb6:	fbb3 f3f1 	udiv	r3, r3, r1
 8006cba:	3b01      	subs	r3, #1
 8006cbc:	6153      	str	r3, [r2, #20]
 8006cbe:	2307      	movs	r3, #7
 8006cc0:	6113      	str	r3, [r2, #16]
 8006cc2:	4770      	bx	lr
 8006cc4:	200000e0 	.word	0x200000e0

08006cc8 <xPortStartScheduler>:
 8006cc8:	4b2e      	ldr	r3, [pc, #184]	; (8006d84 <xPortStartScheduler+0xbc>)
 8006cca:	b537      	push	{r0, r1, r2, r4, r5, lr}
 8006ccc:	781a      	ldrb	r2, [r3, #0]
 8006cce:	2100      	movs	r1, #0
 8006cd0:	b2d2      	uxtb	r2, r2
 8006cd2:	9201      	str	r2, [sp, #4]
 8006cd4:	22ff      	movs	r2, #255	; 0xff
 8006cd6:	701a      	strb	r2, [r3, #0]
 8006cd8:	781b      	ldrb	r3, [r3, #0]
 8006cda:	4a2b      	ldr	r2, [pc, #172]	; (8006d88 <xPortStartScheduler+0xc0>)
 8006cdc:	b2db      	uxtb	r3, r3
 8006cde:	f88d 3003 	strb.w	r3, [sp, #3]
 8006ce2:	f89d 3003 	ldrb.w	r3, [sp, #3]
 8006ce6:	f003 0350 	and.w	r3, r3, #80	; 0x50
 8006cea:	7013      	strb	r3, [r2, #0]
 8006cec:	2307      	movs	r3, #7
 8006cee:	4a27      	ldr	r2, [pc, #156]	; (8006d8c <xPortStartScheduler+0xc4>)
 8006cf0:	6013      	str	r3, [r2, #0]
 8006cf2:	f89d 0003 	ldrb.w	r0, [sp, #3]
 8006cf6:	1e5c      	subs	r4, r3, #1
 8006cf8:	0600      	lsls	r0, r0, #24
 8006cfa:	d40e      	bmi.n	8006d1a <xPortStartScheduler+0x52>
 8006cfc:	b111      	cbz	r1, 8006d04 <xPortStartScheduler+0x3c>
 8006cfe:	2b03      	cmp	r3, #3
 8006d00:	6013      	str	r3, [r2, #0]
 8006d02:	d013      	beq.n	8006d2c <xPortStartScheduler+0x64>
 8006d04:	f04f 0350 	mov.w	r3, #80	; 0x50
 8006d08:	b672      	cpsid	i
 8006d0a:	f383 8811 	msr	BASEPRI, r3
 8006d0e:	f3bf 8f6f 	isb	sy
 8006d12:	f3bf 8f4f 	dsb	sy
 8006d16:	b662      	cpsie	i
 8006d18:	e7fe      	b.n	8006d18 <xPortStartScheduler+0x50>
 8006d1a:	f89d 3003 	ldrb.w	r3, [sp, #3]
 8006d1e:	2101      	movs	r1, #1
 8006d20:	005b      	lsls	r3, r3, #1
 8006d22:	b2db      	uxtb	r3, r3
 8006d24:	f88d 3003 	strb.w	r3, [sp, #3]
 8006d28:	4623      	mov	r3, r4
 8006d2a:	e7e2      	b.n	8006cf2 <xPortStartScheduler+0x2a>
 8006d2c:	f44f 7340 	mov.w	r3, #768	; 0x300
 8006d30:	f04f 24e0 	mov.w	r4, #3758153728	; 0xe000e000
 8006d34:	2500      	movs	r5, #0
 8006d36:	6013      	str	r3, [r2, #0]
 8006d38:	9b01      	ldr	r3, [sp, #4]
 8006d3a:	4a12      	ldr	r2, [pc, #72]	; (8006d84 <xPortStartScheduler+0xbc>)
 8006d3c:	b2db      	uxtb	r3, r3
 8006d3e:	7013      	strb	r3, [r2, #0]
 8006d40:	f8d4 3d20 	ldr.w	r3, [r4, #3360]	; 0xd20
 8006d44:	f443 0370 	orr.w	r3, r3, #15728640	; 0xf00000
 8006d48:	f8c4 3d20 	str.w	r3, [r4, #3360]	; 0xd20
 8006d4c:	f8d4 3d20 	ldr.w	r3, [r4, #3360]	; 0xd20
 8006d50:	f043 4370 	orr.w	r3, r3, #4026531840	; 0xf0000000
 8006d54:	f8c4 3d20 	str.w	r3, [r4, #3360]	; 0xd20
 8006d58:	f7ff ffa4 	bl	8006ca4 <vPortSetupTimerInterrupt>
 8006d5c:	4b0c      	ldr	r3, [pc, #48]	; (8006d90 <xPortStartScheduler+0xc8>)
 8006d5e:	601d      	str	r5, [r3, #0]
 8006d60:	f7ff fec4 	bl	8006aec <vPortEnableVFP>
 8006d64:	f8d4 3f34 	ldr.w	r3, [r4, #3892]	; 0xf34
 8006d68:	f043 4340 	orr.w	r3, r3, #3221225472	; 0xc0000000
 8006d6c:	f8c4 3f34 	str.w	r3, [r4, #3892]	; 0xf34
 8006d70:	f7ff fea8 	bl	8006ac4 <prvPortStartFirstTask>
 8006d74:	f7ff fa7a 	bl	800626c <vTaskSwitchContext>
 8006d78:	4628      	mov	r0, r5
 8006d7a:	f7ff fec1 	bl	8006b00 <prvTaskExitError>
 8006d7e:	b003      	add	sp, #12
 8006d80:	bd30      	pop	{r4, r5, pc}
 8006d82:	bf00      	nop
 8006d84:	e000e400 	.word	0xe000e400
 8006d88:	20001b14 	.word	0x20001b14
 8006d8c:	20001b18 	.word	0x20001b18
 8006d90:	200000ec 	.word	0x200000ec

08006d94 <vPortValidateInterruptPriority>:
 8006d94:	f3ef 8305 	mrs	r3, IPSR
 8006d98:	2b0f      	cmp	r3, #15
 8006d9a:	d910      	bls.n	8006dbe <vPortValidateInterruptPriority+0x2a>
 8006d9c:	4a13      	ldr	r2, [pc, #76]	; (8006dec <vPortValidateInterruptPriority+0x58>)
 8006d9e:	5c9b      	ldrb	r3, [r3, r2]
 8006da0:	4a13      	ldr	r2, [pc, #76]	; (8006df0 <vPortValidateInterruptPriority+0x5c>)
 8006da2:	7812      	ldrb	r2, [r2, #0]
 8006da4:	429a      	cmp	r2, r3
 8006da6:	d90a      	bls.n	8006dbe <vPortValidateInterruptPriority+0x2a>
 8006da8:	f04f 0350 	mov.w	r3, #80	; 0x50
 8006dac:	b672      	cpsid	i
 8006dae:	f383 8811 	msr	BASEPRI, r3
 8006db2:	f3bf 8f6f 	isb	sy
 8006db6:	f3bf 8f4f 	dsb	sy
 8006dba:	b662      	cpsie	i
 8006dbc:	e7fe      	b.n	8006dbc <vPortValidateInterruptPriority+0x28>
 8006dbe:	f04f 23e0 	mov.w	r3, #3758153728	; 0xe000e000
 8006dc2:	4a0c      	ldr	r2, [pc, #48]	; (8006df4 <vPortValidateInterruptPriority+0x60>)
 8006dc4:	f8d3 3d0c 	ldr.w	r3, [r3, #3340]	; 0xd0c
 8006dc8:	6812      	ldr	r2, [r2, #0]
 8006dca:	f403 63e0 	and.w	r3, r3, #1792	; 0x700
 8006dce:	4293      	cmp	r3, r2
 8006dd0:	d90a      	bls.n	8006de8 <vPortValidateInterruptPriority+0x54>
 8006dd2:	f04f 0350 	mov.w	r3, #80	; 0x50
 8006dd6:	b672      	cpsid	i
 8006dd8:	f383 8811 	msr	BASEPRI, r3
 8006ddc:	f3bf 8f6f 	isb	sy
 8006de0:	f3bf 8f4f 	dsb	sy
 8006de4:	b662      	cpsie	i
 8006de6:	e7fe      	b.n	8006de6 <vPortValidateInterruptPriority+0x52>
 8006de8:	4770      	bx	lr
 8006dea:	bf00      	nop
 8006dec:	e000e3f0 	.word	0xe000e3f0
 8006df0:	20001b14 	.word	0x20001b14
 8006df4:	20001b18 	.word	0x20001b18

08006df8 <prvInsertBlockIntoFreeList>:
 8006df8:	4b10      	ldr	r3, [pc, #64]	; (8006e3c <prvInsertBlockIntoFreeList+0x44>)
 8006dfa:	b510      	push	{r4, lr}
 8006dfc:	461a      	mov	r2, r3
 8006dfe:	681b      	ldr	r3, [r3, #0]
 8006e00:	4283      	cmp	r3, r0
 8006e02:	d3fb      	bcc.n	8006dfc <prvInsertBlockIntoFreeList+0x4>
 8006e04:	6854      	ldr	r4, [r2, #4]
 8006e06:	1911      	adds	r1, r2, r4
 8006e08:	4288      	cmp	r0, r1
 8006e0a:	bf01      	itttt	eq
 8006e0c:	6841      	ldreq	r1, [r0, #4]
 8006e0e:	4610      	moveq	r0, r2
 8006e10:	1909      	addeq	r1, r1, r4
 8006e12:	6051      	streq	r1, [r2, #4]
 8006e14:	6844      	ldr	r4, [r0, #4]
 8006e16:	1901      	adds	r1, r0, r4
 8006e18:	428b      	cmp	r3, r1
 8006e1a:	d10c      	bne.n	8006e36 <prvInsertBlockIntoFreeList+0x3e>
 8006e1c:	4908      	ldr	r1, [pc, #32]	; (8006e40 <prvInsertBlockIntoFreeList+0x48>)
 8006e1e:	6809      	ldr	r1, [r1, #0]
 8006e20:	428b      	cmp	r3, r1
 8006e22:	d003      	beq.n	8006e2c <prvInsertBlockIntoFreeList+0x34>
 8006e24:	6859      	ldr	r1, [r3, #4]
 8006e26:	4421      	add	r1, r4
 8006e28:	6041      	str	r1, [r0, #4]
 8006e2a:	6819      	ldr	r1, [r3, #0]
 8006e2c:	4290      	cmp	r0, r2
 8006e2e:	6001      	str	r1, [r0, #0]
 8006e30:	bf18      	it	ne
 8006e32:	6010      	strne	r0, [r2, #0]
 8006e34:	bd10      	pop	{r4, pc}
 8006e36:	4619      	mov	r1, r3
 8006e38:	e7f8      	b.n	8006e2c <prvInsertBlockIntoFreeList+0x34>
 8006e3a:	bf00      	nop
 8006e3c:	2000572c 	.word	0x2000572c
 8006e40:	20001b1c 	.word	0x20001b1c

08006e44 <pvPortMalloc>:
 8006e44:	e92d 41f0 	stmdb	sp!, {r4, r5, r6, r7, r8, lr}
 8006e48:	4604      	mov	r4, r0
 8006e4a:	f7ff f89d 	bl	8005f88 <vTaskSuspendAll>
 8006e4e:	4941      	ldr	r1, [pc, #260]	; (8006f54 <pvPortMalloc+0x110>)
 8006e50:	4d41      	ldr	r5, [pc, #260]	; (8006f58 <pvPortMalloc+0x114>)
 8006e52:	680b      	ldr	r3, [r1, #0]
 8006e54:	bb0b      	cbnz	r3, 8006e9a <pvPortMalloc+0x56>
 8006e56:	4a41      	ldr	r2, [pc, #260]	; (8006f5c <pvPortMalloc+0x118>)
 8006e58:	0756      	lsls	r6, r2, #29
 8006e5a:	4e41      	ldr	r6, [pc, #260]	; (8006f60 <pvPortMalloc+0x11c>)
 8006e5c:	bf1b      	ittet	ne
 8006e5e:	1dd0      	addne	r0, r2, #7
 8006e60:	f502 5270 	addne.w	r2, r2, #15360	; 0x3c00
 8006e64:	f44f 5370 	moveq.w	r3, #15360	; 0x3c00
 8006e68:	f020 0007 	bicne.w	r0, r0, #7
 8006e6c:	bf1c      	itt	ne
 8006e6e:	1a13      	subne	r3, r2, r0
 8006e70:	4602      	movne	r2, r0
 8006e72:	2000      	movs	r0, #0
 8006e74:	4413      	add	r3, r2
 8006e76:	6032      	str	r2, [r6, #0]
 8006e78:	6070      	str	r0, [r6, #4]
 8006e7a:	3b08      	subs	r3, #8
 8006e7c:	f023 0307 	bic.w	r3, r3, #7
 8006e80:	e9c3 0000 	strd	r0, r0, [r3]
 8006e84:	1a98      	subs	r0, r3, r2
 8006e86:	600b      	str	r3, [r1, #0]
 8006e88:	e9c2 3000 	strd	r3, r0, [r2]
 8006e8c:	4b35      	ldr	r3, [pc, #212]	; (8006f64 <pvPortMalloc+0x120>)
 8006e8e:	6018      	str	r0, [r3, #0]
 8006e90:	4b35      	ldr	r3, [pc, #212]	; (8006f68 <pvPortMalloc+0x124>)
 8006e92:	6018      	str	r0, [r3, #0]
 8006e94:	f04f 4300 	mov.w	r3, #2147483648	; 0x80000000
 8006e98:	602b      	str	r3, [r5, #0]
 8006e9a:	682e      	ldr	r6, [r5, #0]
 8006e9c:	4226      	tst	r6, r4
 8006e9e:	d154      	bne.n	8006f4a <pvPortMalloc+0x106>
 8006ea0:	2c00      	cmp	r4, #0
 8006ea2:	d043      	beq.n	8006f2c <pvPortMalloc+0xe8>
 8006ea4:	f104 0308 	add.w	r3, r4, #8
 8006ea8:	0760      	lsls	r0, r4, #29
 8006eaa:	bf1c      	itt	ne
 8006eac:	f023 0307 	bicne.w	r3, r3, #7
 8006eb0:	3308      	addne	r3, #8
 8006eb2:	2b00      	cmp	r3, #0
 8006eb4:	d049      	beq.n	8006f4a <pvPortMalloc+0x106>
 8006eb6:	4f2c      	ldr	r7, [pc, #176]	; (8006f68 <pvPortMalloc+0x124>)
 8006eb8:	683c      	ldr	r4, [r7, #0]
 8006eba:	429c      	cmp	r4, r3
 8006ebc:	d345      	bcc.n	8006f4a <pvPortMalloc+0x106>
 8006ebe:	4a28      	ldr	r2, [pc, #160]	; (8006f60 <pvPortMalloc+0x11c>)
 8006ec0:	6815      	ldr	r5, [r2, #0]
 8006ec2:	6868      	ldr	r0, [r5, #4]
 8006ec4:	4298      	cmp	r0, r3
 8006ec6:	d204      	bcs.n	8006ed2 <pvPortMalloc+0x8e>
 8006ec8:	f8d5 c000 	ldr.w	ip, [r5]
 8006ecc:	f1bc 0f00 	cmp.w	ip, #0
 8006ed0:	d117      	bne.n	8006f02 <pvPortMalloc+0xbe>
 8006ed2:	6809      	ldr	r1, [r1, #0]
 8006ed4:	42a9      	cmp	r1, r5
 8006ed6:	d038      	beq.n	8006f4a <pvPortMalloc+0x106>
 8006ed8:	6829      	ldr	r1, [r5, #0]
 8006eda:	f8d2 8000 	ldr.w	r8, [r2]
 8006ede:	6011      	str	r1, [r2, #0]
 8006ee0:	1ac2      	subs	r2, r0, r3
 8006ee2:	2a10      	cmp	r2, #16
 8006ee4:	d914      	bls.n	8006f10 <pvPortMalloc+0xcc>
 8006ee6:	18e8      	adds	r0, r5, r3
 8006ee8:	0741      	lsls	r1, r0, #29
 8006eea:	d00d      	beq.n	8006f08 <pvPortMalloc+0xc4>
 8006eec:	f04f 0350 	mov.w	r3, #80	; 0x50
 8006ef0:	b672      	cpsid	i
 8006ef2:	f383 8811 	msr	BASEPRI, r3
 8006ef6:	f3bf 8f6f 	isb	sy
 8006efa:	f3bf 8f4f 	dsb	sy
 8006efe:	b662      	cpsie	i
 8006f00:	e7fe      	b.n	8006f00 <pvPortMalloc+0xbc>
 8006f02:	462a      	mov	r2, r5
 8006f04:	4665      	mov	r5, ip
 8006f06:	e7dc      	b.n	8006ec2 <pvPortMalloc+0x7e>
 8006f08:	6042      	str	r2, [r0, #4]
 8006f0a:	606b      	str	r3, [r5, #4]
 8006f0c:	f7ff ff74 	bl	8006df8 <prvInsertBlockIntoFreeList>
 8006f10:	686a      	ldr	r2, [r5, #4]
 8006f12:	2300      	movs	r3, #0
 8006f14:	4913      	ldr	r1, [pc, #76]	; (8006f64 <pvPortMalloc+0x120>)
 8006f16:	1aa4      	subs	r4, r4, r2
 8006f18:	4316      	orrs	r6, r2
 8006f1a:	6808      	ldr	r0, [r1, #0]
 8006f1c:	603c      	str	r4, [r7, #0]
 8006f1e:	4284      	cmp	r4, r0
 8006f20:	606e      	str	r6, [r5, #4]
 8006f22:	602b      	str	r3, [r5, #0]
 8006f24:	bf38      	it	cc
 8006f26:	600c      	strcc	r4, [r1, #0]
 8006f28:	f108 0408 	add.w	r4, r8, #8
 8006f2c:	f7ff f8d8 	bl	80060e0 <xTaskResumeAll>
 8006f30:	0763      	lsls	r3, r4, #29
 8006f32:	d00c      	beq.n	8006f4e <pvPortMalloc+0x10a>
 8006f34:	f04f 0350 	mov.w	r3, #80	; 0x50
 8006f38:	b672      	cpsid	i
 8006f3a:	f383 8811 	msr	BASEPRI, r3
 8006f3e:	f3bf 8f6f 	isb	sy
 8006f42:	f3bf 8f4f 	dsb	sy
 8006f46:	b662      	cpsie	i
 8006f48:	e7fe      	b.n	8006f48 <pvPortMalloc+0x104>
 8006f4a:	2400      	movs	r4, #0
 8006f4c:	e7ee      	b.n	8006f2c <pvPortMalloc+0xe8>
 8006f4e:	4620      	mov	r0, r4
 8006f50:	e8bd 81f0 	ldmia.w	sp!, {r4, r5, r6, r7, r8, pc}
 8006f54:	20001b1c 	.word	0x20001b1c
 8006f58:	20005720 	.word	0x20005720
 8006f5c:	20001b20 	.word	0x20001b20
 8006f60:	2000572c 	.word	0x2000572c
 8006f64:	20005728 	.word	0x20005728
 8006f68:	20005724 	.word	0x20005724

08006f6c <vPortFree>:
 8006f6c:	b510      	push	{r4, lr}
 8006f6e:	4604      	mov	r4, r0
 8006f70:	2800      	cmp	r0, #0
 8006f72:	d032      	beq.n	8006fda <vPortFree+0x6e>
 8006f74:	4a19      	ldr	r2, [pc, #100]	; (8006fdc <vPortFree+0x70>)
 8006f76:	f850 3c04 	ldr.w	r3, [r0, #-4]
 8006f7a:	6812      	ldr	r2, [r2, #0]
 8006f7c:	4213      	tst	r3, r2
 8006f7e:	d10a      	bne.n	8006f96 <vPortFree+0x2a>
 8006f80:	f04f 0350 	mov.w	r3, #80	; 0x50
 8006f84:	b672      	cpsid	i
 8006f86:	f383 8811 	msr	BASEPRI, r3
 8006f8a:	f3bf 8f6f 	isb	sy
 8006f8e:	f3bf 8f4f 	dsb	sy
 8006f92:	b662      	cpsie	i
 8006f94:	e7fe      	b.n	8006f94 <vPortFree+0x28>
 8006f96:	f850 1c08 	ldr.w	r1, [r0, #-8]
 8006f9a:	b151      	cbz	r1, 8006fb2 <vPortFree+0x46>
 8006f9c:	f04f 0350 	mov.w	r3, #80	; 0x50
 8006fa0:	b672      	cpsid	i
 8006fa2:	f383 8811 	msr	BASEPRI, r3
 8006fa6:	f3bf 8f6f 	isb	sy
 8006faa:	f3bf 8f4f 	dsb	sy
 8006fae:	b662      	cpsie	i
 8006fb0:	e7fe      	b.n	8006fb0 <vPortFree+0x44>
 8006fb2:	ea23 0302 	bic.w	r3, r3, r2
 8006fb6:	f840 3c04 	str.w	r3, [r0, #-4]
 8006fba:	f7fe ffe5 	bl	8005f88 <vTaskSuspendAll>
 8006fbe:	4a08      	ldr	r2, [pc, #32]	; (8006fe0 <vPortFree+0x74>)
 8006fc0:	f854 3c04 	ldr.w	r3, [r4, #-4]
 8006fc4:	f1a4 0008 	sub.w	r0, r4, #8
 8006fc8:	6811      	ldr	r1, [r2, #0]
 8006fca:	440b      	add	r3, r1
 8006fcc:	6013      	str	r3, [r2, #0]
 8006fce:	f7ff ff13 	bl	8006df8 <prvInsertBlockIntoFreeList>
 8006fd2:	e8bd 4010 	ldmia.w	sp!, {r4, lr}
 8006fd6:	f7ff b883 	b.w	80060e0 <xTaskResumeAll>
 8006fda:	bd10      	pop	{r4, pc}
 8006fdc:	20005720 	.word	0x20005720
 8006fe0:	20005724 	.word	0x20005724

08006fe4 <opRx>:
 8006fe4:	69c3      	ldr	r3, [r0, #28]
 8006fe6:	b113      	cbz	r3, 8006fee <opRx+0xa>
 8006fe8:	689b      	ldr	r3, [r3, #8]
 8006fea:	b103      	cbz	r3, 8006fee <opRx+0xa>
 8006fec:	4718      	bx	r3
 8006fee:	4770      	bx	lr

08006ff0 <getReportLen>:
 8006ff0:	2300      	movs	r3, #0
 8006ff2:	4a07      	ldr	r2, [pc, #28]	; (8007010 <getReportLen+0x20>)
 8006ff4:	f812 1013 	ldrb.w	r1, [r2, r3, lsl #1]
 8006ff8:	4281      	cmp	r1, r0
 8006ffa:	d103      	bne.n	8007004 <getReportLen+0x14>
 8006ffc:	eb02 0243 	add.w	r2, r2, r3, lsl #1
 8007000:	7850      	ldrb	r0, [r2, #1]
 8007002:	4770      	bx	lr
 8007004:	3301      	adds	r3, #1
 8007006:	2b30      	cmp	r3, #48	; 0x30
 8007008:	d1f4      	bne.n	8006ff4 <getReportLen+0x4>
 800700a:	2000      	movs	r0, #0
 800700c:	4770      	bx	lr
 800700e:	bf00      	nop
 8007010:	0800952c 	.word	0x0800952c

08007014 <shtpEventCallback>:
 8007014:	4b05      	ldr	r3, [pc, #20]	; (800702c <shtpEventCallback+0x18>)
 8007016:	2201      	movs	r2, #1
 8007018:	4805      	ldr	r0, [pc, #20]	; (8007030 <shtpEventCallback+0x1c>)
 800701a:	601a      	str	r2, [r3, #0]
 800701c:	6b82      	ldr	r2, [r0, #56]	; 0x38
 800701e:	7119      	strb	r1, [r3, #4]
 8007020:	b112      	cbz	r2, 8007028 <shtpEventCallback+0x14>
 8007022:	4619      	mov	r1, r3
 8007024:	6bc0      	ldr	r0, [r0, #60]	; 0x3c
 8007026:	4710      	bx	r2
 8007028:	4770      	bx	lr
 800702a:	bf00      	nop
 800702c:	200058b4 	.word	0x200058b4
 8007030:	20005734 	.word	0x20005734

08007034 <sendCtrl>:
 8007034:	4613      	mov	r3, r2
 8007036:	6840      	ldr	r0, [r0, #4]
 8007038:	460a      	mov	r2, r1
 800703a:	2102      	movs	r1, #2
 800703c:	f000 bf4a 	b.w	8007ed4 <shtp_send>

08007040 <getProdIdStart>:
 8007040:	f44f 6380 	mov.w	r3, #1024	; 0x400
 8007044:	b507      	push	{r0, r1, r2, lr}
 8007046:	2202      	movs	r2, #2
 8007048:	a901      	add	r1, sp, #4
 800704a:	8503      	strh	r3, [r0, #40]	; 0x28
 800704c:	23f9      	movs	r3, #249	; 0xf9
 800704e:	f8ad 3004 	strh.w	r3, [sp, #4]
 8007052:	f7ff ffef 	bl	8007034 <sendCtrl>
 8007056:	b003      	add	sp, #12
 8007058:	f85d fb04 	ldr.w	pc, [sp], #4

0800705c <setSensorConfigStart>:
 800705c:	b570      	push	{r4, r5, r6, lr}
 800705e:	6a45      	ldr	r5, [r0, #36]	; 0x24
 8007060:	b086      	sub	sp, #24
 8007062:	4606      	mov	r6, r0
 8007064:	782c      	ldrb	r4, [r5, #0]
 8007066:	786b      	ldrb	r3, [r5, #1]
 8007068:	0064      	lsls	r4, r4, #1
 800706a:	b2e4      	uxtb	r4, r4
 800706c:	b10b      	cbz	r3, 8007072 <setSensorConfigStart+0x16>
 800706e:	f044 0401 	orr.w	r4, r4, #1
 8007072:	78ab      	ldrb	r3, [r5, #2]
 8007074:	b10b      	cbz	r3, 800707a <setSensorConfigStart+0x1e>
 8007076:	f044 0404 	orr.w	r4, r4, #4
 800707a:	78eb      	ldrb	r3, [r5, #3]
 800707c:	b10b      	cbz	r3, 8007082 <setSensorConfigStart+0x26>
 800707e:	f044 0408 	orr.w	r4, r4, #8
 8007082:	792b      	ldrb	r3, [r5, #4]
 8007084:	b10b      	cbz	r3, 800708a <setSensorConfigStart+0x2e>
 8007086:	f044 0410 	orr.w	r4, r4, #16
 800708a:	2211      	movs	r2, #17
 800708c:	2100      	movs	r1, #0
 800708e:	a801      	add	r0, sp, #4
 8007090:	f001 f986 	bl	80083a0 <memset>
 8007094:	23fd      	movs	r3, #253	; 0xfd
 8007096:	2211      	movs	r2, #17
 8007098:	a901      	add	r1, sp, #4
 800709a:	f88d 3004 	strb.w	r3, [sp, #4]
 800709e:	4630      	mov	r0, r6
 80070a0:	f896 3028 	ldrb.w	r3, [r6, #40]	; 0x28
 80070a4:	f88d 4006 	strb.w	r4, [sp, #6]
 80070a8:	f88d 3005 	strb.w	r3, [sp, #5]
 80070ac:	88eb      	ldrh	r3, [r5, #6]
 80070ae:	f8ad 3007 	strh.w	r3, [sp, #7]
 80070b2:	68ab      	ldr	r3, [r5, #8]
 80070b4:	f8cd 3009 	str.w	r3, [sp, #9]
 80070b8:	68eb      	ldr	r3, [r5, #12]
 80070ba:	f8cd 300d 	str.w	r3, [sp, #13]
 80070be:	692b      	ldr	r3, [r5, #16]
 80070c0:	f8cd 3011 	str.w	r3, [sp, #17]
 80070c4:	f7ff ffb6 	bl	8007034 <sendCtrl>
 80070c8:	2300      	movs	r3, #0
 80070ca:	6230      	str	r0, [r6, #32]
 80070cc:	61f3      	str	r3, [r6, #28]
 80070ce:	b006      	add	sp, #24
 80070d0:	bd70      	pop	{r4, r5, r6, pc}

080070d2 <sensorhubInputGyroRvHdlr>:
 80070d2:	e92d 4ff0 	stmdb	sp!, {r4, r5, r6, r7, r8, r9, sl, fp, lr}
 80070d6:	2400      	movs	r4, #0
 80070d8:	b095      	sub	sp, #84	; 0x54
 80070da:	4605      	mov	r5, r0
 80070dc:	202a      	movs	r0, #42	; 0x2a
 80070de:	460f      	mov	r7, r1
 80070e0:	4616      	mov	r6, r2
 80070e2:	4698      	mov	r8, r3
 80070e4:	46a1      	mov	r9, r4
 80070e6:	f7ff ff83 	bl	8006ff0 <getReportLen>
 80070ea:	f04f 0a2a 	mov.w	sl, #42	; 0x2a
 80070ee:	4683      	mov	fp, r0
 80070f0:	42b4      	cmp	r4, r6
 80070f2:	d302      	bcc.n	80070fa <sensorhubInputGyroRvHdlr+0x28>
 80070f4:	b015      	add	sp, #84	; 0x54
 80070f6:	e8bd 8ff0 	ldmia.w	sp!, {r4, r5, r6, r7, r8, r9, sl, fp, pc}
 80070fa:	465a      	mov	r2, fp
 80070fc:	1939      	adds	r1, r7, r4
 80070fe:	f10d 0012 	add.w	r0, sp, #18
 8007102:	f88d a011 	strb.w	sl, [sp, #17]
 8007106:	e9cd 8900 	strd	r8, r9, [sp]
 800710a:	f001 fa1a 	bl	8008542 <memcpy>
 800710e:	6c2b      	ldr	r3, [r5, #64]	; 0x40
 8007110:	f88d b010 	strb.w	fp, [sp, #16]
 8007114:	b113      	cbz	r3, 800711c <sensorhubInputGyroRvHdlr+0x4a>
 8007116:	4669      	mov	r1, sp
 8007118:	6c68      	ldr	r0, [r5, #68]	; 0x44
 800711a:	4798      	blx	r3
 800711c:	445c      	add	r4, fp
 800711e:	b2a4      	uxth	r4, r4
 8007120:	e7e6      	b.n	80070f0 <sensorhubInputGyroRvHdlr+0x1e>
	...

08007124 <sensorhubInputHdlr>:
 8007124:	e92d 4ff0 	stmdb	sp!, {r4, r5, r6, r7, r8, r9, sl, fp, lr}
 8007128:	2400      	movs	r4, #0
 800712a:	b099      	sub	sp, #100	; 0x64
 800712c:	4605      	mov	r5, r0
 800712e:	4688      	mov	r8, r1
 8007130:	461f      	mov	r7, r3
 8007132:	4626      	mov	r6, r4
 8007134:	f8df b0cc 	ldr.w	fp, [pc, #204]	; 8007204 <sensorhubInputHdlr+0xe0>
 8007138:	f8df a0cc 	ldr.w	sl, [pc, #204]	; 8007208 <sensorhubInputHdlr+0xe4>
 800713c:	9201      	str	r2, [sp, #4]
 800713e:	9b01      	ldr	r3, [sp, #4]
 8007140:	429e      	cmp	r6, r3
 8007142:	d211      	bcs.n	8007168 <sensorhubInputHdlr+0x44>
 8007144:	f818 3006 	ldrb.w	r3, [r8, r6]
 8007148:	eb08 0106 	add.w	r1, r8, r6
 800714c:	4618      	mov	r0, r3
 800714e:	9103      	str	r1, [sp, #12]
 8007150:	9302      	str	r3, [sp, #8]
 8007152:	f7ff ff4d 	bl	8006ff0 <getReportLen>
 8007156:	4602      	mov	r2, r0
 8007158:	e9dd 3102 	ldrd	r3, r1, [sp, #8]
 800715c:	b938      	cbnz	r0, 800716e <sensorhubInputHdlr+0x4a>
 800715e:	f8d5 3174 	ldr.w	r3, [r5, #372]	; 0x174
 8007162:	3301      	adds	r3, #1
 8007164:	f8c5 3174 	str.w	r3, [r5, #372]	; 0x174
 8007168:	b019      	add	sp, #100	; 0x64
 800716a:	e8bd 8ff0 	ldmia.w	sp!, {r4, r5, r6, r7, r8, r9, sl, fp, pc}
 800716e:	2bfb      	cmp	r3, #251	; 0xfb
 8007170:	fa1f f980 	uxth.w	r9, r0
 8007174:	d106      	bne.n	8007184 <sensorhubInputHdlr+0x60>
 8007176:	f8d1 4001 	ldr.w	r4, [r1, #1]
 800717a:	4264      	negs	r4, r4
 800717c:	44b1      	add	r9, r6
 800717e:	fa1f f689 	uxth.w	r6, r9
 8007182:	e7dc      	b.n	800713e <sensorhubInputHdlr+0x1a>
 8007184:	2bfa      	cmp	r3, #250	; 0xfa
 8007186:	d103      	bne.n	8007190 <sensorhubInputHdlr+0x6c>
 8007188:	f8d1 3001 	ldr.w	r3, [r1, #1]
 800718c:	441c      	add	r4, r3
 800718e:	e7f5      	b.n	800717c <sensorhubInputHdlr+0x58>
 8007190:	2bef      	cmp	r3, #239	; 0xef
 8007192:	d104      	bne.n	800719e <sensorhubInputHdlr+0x7a>
 8007194:	464a      	mov	r2, r9
 8007196:	4628      	mov	r0, r5
 8007198:	f7ff ff24 	bl	8006fe4 <opRx>
 800719c:	e7ee      	b.n	800717c <sensorhubInputHdlr+0x58>
 800719e:	7888      	ldrb	r0, [r1, #2]
 80071a0:	f04f 0e64 	mov.w	lr, #100	; 0x64
 80071a4:	f891 c003 	ldrb.w	ip, [r1, #3]
 80071a8:	0180      	lsls	r0, r0, #6
 80071aa:	f88d 3021 	strb.w	r3, [sp, #33]	; 0x21
 80071ae:	9202      	str	r2, [sp, #8]
 80071b0:	f400 507c 	and.w	r0, r0, #16128	; 0x3f00
 80071b4:	4484      	add	ip, r0
 80071b6:	f8db 0000 	ldr.w	r0, [fp]
 80071ba:	f8cb 7000 	str.w	r7, [fp]
 80071be:	4287      	cmp	r7, r0
 80071c0:	44a4      	add	ip, r4
 80071c2:	bf38      	it	cc
 80071c4:	f8da 0000 	ldrcc.w	r0, [sl]
 80071c8:	fb0e fc0c 	mul.w	ip, lr, ip
 80071cc:	bf3c      	itt	cc
 80071ce:	3001      	addcc	r0, #1
 80071d0:	f8ca 0000 	strcc.w	r0, [sl]
 80071d4:	eb0c 0007 	add.w	r0, ip, r7
 80071d8:	9004      	str	r0, [sp, #16]
 80071da:	f8da 0000 	ldr.w	r0, [sl]
 80071de:	9005      	str	r0, [sp, #20]
 80071e0:	ea4f 70ec 	mov.w	r0, ip, asr #31
 80071e4:	e9cd c006 	strd	ip, r0, [sp, #24]
 80071e8:	f10d 0022 	add.w	r0, sp, #34	; 0x22
 80071ec:	f001 f9a9 	bl	8008542 <memcpy>
 80071f0:	9a02      	ldr	r2, [sp, #8]
 80071f2:	6c2b      	ldr	r3, [r5, #64]	; 0x40
 80071f4:	f88d 2020 	strb.w	r2, [sp, #32]
 80071f8:	2b00      	cmp	r3, #0
 80071fa:	d0bf      	beq.n	800717c <sensorhubInputHdlr+0x58>
 80071fc:	a904      	add	r1, sp, #16
 80071fe:	6c68      	ldr	r0, [r5, #68]	; 0x44
 8007200:	4798      	blx	r3
 8007202:	e7bb      	b.n	800717c <sensorhubInputHdlr+0x58>
 8007204:	200058ac 	.word	0x200058ac
 8007208:	200058b0 	.word	0x200058b0

0800720c <sensorhubInputNormalHdlr>:
 800720c:	f7ff bf8a 	b.w	8007124 <sensorhubInputHdlr>

08007210 <sensorhubControlHdlr>:
 8007210:	e92d 4ff8 	stmdb	sp!, {r3, r4, r5, r6, r7, r8, r9, sl, fp, lr}
 8007214:	4606      	mov	r6, r0
 8007216:	4688      	mov	r8, r1
 8007218:	4617      	mov	r7, r2
 800721a:	b932      	cbnz	r2, 800722a <sensorhubControlHdlr+0x1a>
 800721c:	f8d0 3170 	ldr.w	r3, [r0, #368]	; 0x170
 8007220:	3301      	adds	r3, #1
 8007222:	f8c0 3170 	str.w	r3, [r0, #368]	; 0x170
 8007226:	e8bd 8ff8 	ldmia.w	sp!, {r3, r4, r5, r6, r7, r8, r9, sl, fp, pc}
 800722a:	f04f 0b00 	mov.w	fp, #0
 800722e:	4c23      	ldr	r4, [pc, #140]	; (80072bc <sensorhubControlHdlr+0xac>)
 8007230:	f818 900b 	ldrb.w	r9, [r8, fp]
 8007234:	eb08 0a0b 	add.w	sl, r8, fp
 8007238:	4648      	mov	r0, r9
 800723a:	f7ff fed9 	bl	8006ff0 <getReportLen>
 800723e:	4605      	mov	r5, r0
 8007240:	b928      	cbnz	r0, 800724e <sensorhubControlHdlr+0x3e>
 8007242:	f8d6 3174 	ldr.w	r3, [r6, #372]	; 0x174
 8007246:	3301      	adds	r3, #1
 8007248:	f8c6 3174 	str.w	r3, [r6, #372]	; 0x174
 800724c:	e7eb      	b.n	8007226 <sensorhubControlHdlr+0x16>
 800724e:	f1b9 0ffc 	cmp.w	r9, #252	; 0xfc
 8007252:	d127      	bne.n	80072a4 <sensorhubControlHdlr+0x94>
 8007254:	6bb2      	ldr	r2, [r6, #56]	; 0x38
 8007256:	b32a      	cbz	r2, 80072a4 <sensorhubControlHdlr+0x94>
 8007258:	2302      	movs	r3, #2
 800725a:	6bf0      	ldr	r0, [r6, #60]	; 0x3c
 800725c:	6023      	str	r3, [r4, #0]
 800725e:	f89a 3001 	ldrb.w	r3, [sl, #1]
 8007262:	7123      	strb	r3, [r4, #4]
 8007264:	f89a 3002 	ldrb.w	r3, [sl, #2]
 8007268:	f3c3 0140 	ubfx	r1, r3, #1, #1
 800726c:	7221      	strb	r1, [r4, #8]
 800726e:	f003 0101 	and.w	r1, r3, #1
 8007272:	7261      	strb	r1, [r4, #9]
 8007274:	f3c3 0180 	ubfx	r1, r3, #2, #1
 8007278:	f3c3 03c0 	ubfx	r3, r3, #3, #1
 800727c:	72a1      	strb	r1, [r4, #10]
 800727e:	72e3      	strb	r3, [r4, #11]
 8007280:	f89a 1004 	ldrb.w	r1, [sl, #4]
 8007284:	f89a 3003 	ldrb.w	r3, [sl, #3]
 8007288:	ea43 2301 	orr.w	r3, r3, r1, lsl #8
 800728c:	490b      	ldr	r1, [pc, #44]	; (80072bc <sensorhubControlHdlr+0xac>)
 800728e:	81e3      	strh	r3, [r4, #14]
 8007290:	f8da 3005 	ldr.w	r3, [sl, #5]
 8007294:	6123      	str	r3, [r4, #16]
 8007296:	f8da 3009 	ldr.w	r3, [sl, #9]
 800729a:	6163      	str	r3, [r4, #20]
 800729c:	f8da 300d 	ldr.w	r3, [sl, #13]
 80072a0:	61a3      	str	r3, [r4, #24]
 80072a2:	4790      	blx	r2
 80072a4:	b2ad      	uxth	r5, r5
 80072a6:	4651      	mov	r1, sl
 80072a8:	4630      	mov	r0, r6
 80072aa:	462a      	mov	r2, r5
 80072ac:	445d      	add	r5, fp
 80072ae:	f7ff fe99 	bl	8006fe4 <opRx>
 80072b2:	fa1f fb85 	uxth.w	fp, r5
 80072b6:	455f      	cmp	r7, fp
 80072b8:	d8ba      	bhi.n	8007230 <sensorhubControlHdlr+0x20>
 80072ba:	e7b4      	b.n	8007226 <sensorhubControlHdlr+0x16>
 80072bc:	200058b4 	.word	0x200058b4

080072c0 <executableDeviceHdlr>:
 80072c0:	2a01      	cmp	r2, #1
 80072c2:	b510      	push	{r4, lr}
 80072c4:	4604      	mov	r4, r0
 80072c6:	d005      	beq.n	80072d4 <executableDeviceHdlr+0x14>
 80072c8:	f8d4 316c 	ldr.w	r3, [r4, #364]	; 0x16c
 80072cc:	3301      	adds	r3, #1
 80072ce:	f8c4 316c 	str.w	r3, [r4, #364]	; 0x16c
 80072d2:	bd10      	pop	{r4, pc}
 80072d4:	780b      	ldrb	r3, [r1, #0]
 80072d6:	2b01      	cmp	r3, #1
 80072d8:	d1f6      	bne.n	80072c8 <executableDeviceHdlr+0x8>
 80072da:	7203      	strb	r3, [r0, #8]
 80072dc:	69c3      	ldr	r3, [r0, #28]
 80072de:	b113      	cbz	r3, 80072e6 <executableDeviceHdlr+0x26>
 80072e0:	68db      	ldr	r3, [r3, #12]
 80072e2:	b153      	cbz	r3, 80072fa <executableDeviceHdlr+0x3a>
 80072e4:	4798      	blx	r3
 80072e6:	2300      	movs	r3, #0
 80072e8:	4906      	ldr	r1, [pc, #24]	; (8007304 <executableDeviceHdlr+0x44>)
 80072ea:	600b      	str	r3, [r1, #0]
 80072ec:	6ba3      	ldr	r3, [r4, #56]	; 0x38
 80072ee:	2b00      	cmp	r3, #0
 80072f0:	d0ef      	beq.n	80072d2 <executableDeviceHdlr+0x12>
 80072f2:	6be0      	ldr	r0, [r4, #60]	; 0x3c
 80072f4:	e8bd 4010 	ldmia.w	sp!, {r4, lr}
 80072f8:	4718      	bx	r3
 80072fa:	f04f 32ff 	mov.w	r2, #4294967295
 80072fe:	e9c0 3207 	strd	r3, r2, [r0, #28]
 8007302:	e7f0      	b.n	80072e6 <executableDeviceHdlr+0x26>
 8007304:	200058b4 	.word	0x200058b4

08007308 <getProdIdRx>:
 8007308:	b5f0      	push	{r4, r5, r6, r7, lr}
 800730a:	780b      	ldrb	r3, [r1, #0]
 800730c:	2bf8      	cmp	r3, #248	; 0xf8
 800730e:	d10a      	bne.n	8007326 <getProdIdRx+0x1e>
 8007310:	6a42      	ldr	r2, [r0, #36]	; 0x24
 8007312:	f890 3028 	ldrb.w	r3, [r0, #40]	; 0x28
 8007316:	b93a      	cbnz	r2, 8007328 <getProdIdRx+0x20>
 8007318:	f890 3028 	ldrb.w	r3, [r0, #40]	; 0x28
 800731c:	f882 3050 	strb.w	r3, [r2, #80]	; 0x50
 8007320:	2300      	movs	r3, #0
 8007322:	e9c0 3307 	strd	r3, r3, [r0, #28]
 8007326:	bdf0      	pop	{r4, r5, r6, r7, pc}
 8007328:	f890 4029 	ldrb.w	r4, [r0, #41]	; 0x29
 800732c:	429c      	cmp	r4, r3
 800732e:	d9f3      	bls.n	8007318 <getProdIdRx+0x10>
 8007330:	784e      	ldrb	r6, [r1, #1]
 8007332:	011d      	lsls	r5, r3, #4
 8007334:	eb02 1403 	add.w	r4, r2, r3, lsl #4
 8007338:	5556      	strb	r6, [r2, r5]
 800733a:	788d      	ldrb	r5, [r1, #2]
 800733c:	7065      	strb	r5, [r4, #1]
 800733e:	78cd      	ldrb	r5, [r1, #3]
 8007340:	70a5      	strb	r5, [r4, #2]
 8007342:	684d      	ldr	r5, [r1, #4]
 8007344:	6065      	str	r5, [r4, #4]
 8007346:	688e      	ldr	r6, [r1, #8]
 8007348:	60a6      	str	r6, [r4, #8]
 800734a:	7b0e      	ldrb	r6, [r1, #12]
 800734c:	7b4f      	ldrb	r7, [r1, #13]
 800734e:	ea46 2607 	orr.w	r6, r6, r7, lsl #8
 8007352:	81a6      	strh	r6, [r4, #12]
 8007354:	7b8e      	ldrb	r6, [r1, #14]
 8007356:	73a6      	strb	r6, [r4, #14]
 8007358:	7bc9      	ldrb	r1, [r1, #15]
 800735a:	73e1      	strb	r1, [r4, #15]
 800735c:	490a      	ldr	r1, [pc, #40]	; (8007388 <getProdIdRx+0x80>)
 800735e:	428d      	cmp	r5, r1
 8007360:	d006      	beq.n	8007370 <getProdIdRx+0x68>
 8007362:	f201 21d3 	addw	r1, r1, #723	; 0x2d3
 8007366:	428d      	cmp	r5, r1
 8007368:	d002      	beq.n	8007370 <getProdIdRx+0x68>
 800736a:	31d2      	adds	r1, #210	; 0xd2
 800736c:	428d      	cmp	r5, r1
 800736e:	d102      	bne.n	8007376 <getProdIdRx+0x6e>
 8007370:	2105      	movs	r1, #5
 8007372:	f880 1029 	strb.w	r1, [r0, #41]	; 0x29
 8007376:	3301      	adds	r3, #1
 8007378:	f890 1029 	ldrb.w	r1, [r0, #41]	; 0x29
 800737c:	b2db      	uxtb	r3, r3
 800737e:	4299      	cmp	r1, r3
 8007380:	f880 3028 	strb.w	r3, [r0, #40]	; 0x28
 8007384:	d8cf      	bhi.n	8007326 <getProdIdRx+0x1e>
 8007386:	e7c7      	b.n	8007318 <getProdIdRx+0x10>
 8007388:	0098a67f 	.word	0x0098a67f

0800738c <opProcess.constprop.0>:
 800738c:	b5f8      	push	{r3, r4, r5, r6, r7, lr}
 800738e:	4c16      	ldr	r4, [pc, #88]	; (80073e8 <opProcess.constprop.0+0x5c>)
 8007390:	4605      	mov	r5, r0
 8007392:	6820      	ldr	r0, [r4, #0]
 8007394:	6903      	ldr	r3, [r0, #16]
 8007396:	4798      	blx	r3
 8007398:	69e7      	ldr	r7, [r4, #28]
 800739a:	4606      	mov	r6, r0
 800739c:	bb0f      	cbnz	r7, 80073e2 <opProcess.constprop.0+0x56>
 800739e:	686b      	ldr	r3, [r5, #4]
 80073a0:	4620      	mov	r0, r4
 80073a2:	e9c4 5707 	strd	r5, r7, [r4, #28]
 80073a6:	4798      	blx	r3
 80073a8:	b1c8      	cbz	r0, 80073de <opProcess.constprop.0+0x52>
 80073aa:	e9c4 7007 	strd	r7, r0, [r4, #28]
 80073ae:	bdf8      	pop	{r3, r4, r5, r6, r7, pc}
 80073b0:	6860      	ldr	r0, [r4, #4]
 80073b2:	b168      	cbz	r0, 80073d0 <opProcess.constprop.0+0x44>
 80073b4:	f000 fcd7 	bl	8007d66 <shtp_service>
 80073b8:	6820      	ldr	r0, [r4, #0]
 80073ba:	6903      	ldr	r3, [r0, #16]
 80073bc:	4798      	blx	r3
 80073be:	4603      	mov	r3, r0
 80073c0:	69e2      	ldr	r2, [r4, #28]
 80073c2:	b152      	cbz	r2, 80073da <opProcess.constprop.0+0x4e>
 80073c4:	682a      	ldr	r2, [r5, #0]
 80073c6:	2a00      	cmp	r2, #0
 80073c8:	d0f2      	beq.n	80073b0 <opProcess.constprop.0+0x24>
 80073ca:	1b9b      	subs	r3, r3, r6
 80073cc:	429a      	cmp	r2, r3
 80073ce:	d8ef      	bhi.n	80073b0 <opProcess.constprop.0+0x24>
 80073d0:	2200      	movs	r2, #0
 80073d2:	f06f 0305 	mvn.w	r3, #5
 80073d6:	e9c4 2307 	strd	r2, r3, [r4, #28]
 80073da:	6a20      	ldr	r0, [r4, #32]
 80073dc:	e7e7      	b.n	80073ae <opProcess.constprop.0+0x22>
 80073de:	4633      	mov	r3, r6
 80073e0:	e7ee      	b.n	80073c0 <opProcess.constprop.0+0x34>
 80073e2:	f06f 0002 	mvn.w	r0, #2
 80073e6:	e7e2      	b.n	80073ae <opProcess.constprop.0+0x22>
 80073e8:	20005734 	.word	0x20005734

080073ec <sensorhubInputWakeHdlr>:
 80073ec:	f7ff be9a 	b.w	8007124 <sensorhubInputHdlr>

080073f0 <sh2_open>:
 80073f0:	b5f8      	push	{r3, r4, r5, r6, r7, lr}
 80073f2:	460f      	mov	r7, r1
 80073f4:	4616      	mov	r6, r2
 80073f6:	4605      	mov	r5, r0
 80073f8:	2800      	cmp	r0, #0
 80073fa:	d043      	beq.n	8007484 <sh2_open+0x94>
 80073fc:	4c24      	ldr	r4, [pc, #144]	; (8007490 <sh2_open+0xa0>)
 80073fe:	f44f 72bc 	mov.w	r2, #376	; 0x178
 8007402:	2100      	movs	r1, #0
 8007404:	4620      	mov	r0, r4
 8007406:	f000 ffcb 	bl	80083a0 <memset>
 800740a:	4628      	mov	r0, r5
 800740c:	6025      	str	r5, [r4, #0]
 800740e:	e9c4 760e 	strd	r7, r6, [r4, #56]	; 0x38
 8007412:	f000 fc6f 	bl	8007cf4 <shtp_open>
 8007416:	6060      	str	r0, [r4, #4]
 8007418:	2800      	cmp	r0, #0
 800741a:	d036      	beq.n	800748a <sh2_open+0x9a>
 800741c:	4622      	mov	r2, r4
 800741e:	491d      	ldr	r1, [pc, #116]	; (8007494 <sh2_open+0xa4>)
 8007420:	f000 fc8e 	bl	8007d40 <shtp_setEventCallback>
 8007424:	4623      	mov	r3, r4
 8007426:	4a1c      	ldr	r2, [pc, #112]	; (8007498 <sh2_open+0xa8>)
 8007428:	2102      	movs	r1, #2
 800742a:	6860      	ldr	r0, [r4, #4]
 800742c:	f000 fc8b 	bl	8007d46 <shtp_listenChan>
 8007430:	4623      	mov	r3, r4
 8007432:	4a1a      	ldr	r2, [pc, #104]	; (800749c <sh2_open+0xac>)
 8007434:	2103      	movs	r1, #3
 8007436:	6860      	ldr	r0, [r4, #4]
 8007438:	f000 fc85 	bl	8007d46 <shtp_listenChan>
 800743c:	4623      	mov	r3, r4
 800743e:	4a18      	ldr	r2, [pc, #96]	; (80074a0 <sh2_open+0xb0>)
 8007440:	2104      	movs	r1, #4
 8007442:	6860      	ldr	r0, [r4, #4]
 8007444:	f000 fc7f 	bl	8007d46 <shtp_listenChan>
 8007448:	4623      	mov	r3, r4
 800744a:	4a16      	ldr	r2, [pc, #88]	; (80074a4 <sh2_open+0xb4>)
 800744c:	2105      	movs	r1, #5
 800744e:	6860      	ldr	r0, [r4, #4]
 8007450:	f000 fc79 	bl	8007d46 <shtp_listenChan>
 8007454:	4623      	mov	r3, r4
 8007456:	4a14      	ldr	r2, [pc, #80]	; (80074a8 <sh2_open+0xb8>)
 8007458:	2101      	movs	r1, #1
 800745a:	6860      	ldr	r0, [r4, #4]
 800745c:	f000 fc73 	bl	8007d46 <shtp_listenChan>
 8007460:	6820      	ldr	r0, [r4, #0]
 8007462:	4e12      	ldr	r6, [pc, #72]	; (80074ac <sh2_open+0xbc>)
 8007464:	6903      	ldr	r3, [r0, #16]
 8007466:	4798      	blx	r3
 8007468:	4605      	mov	r5, r0
 800746a:	7a23      	ldrb	r3, [r4, #8]
 800746c:	b943      	cbnz	r3, 8007480 <sh2_open+0x90>
 800746e:	6860      	ldr	r0, [r4, #4]
 8007470:	f000 fc79 	bl	8007d66 <shtp_service>
 8007474:	6820      	ldr	r0, [r4, #0]
 8007476:	6903      	ldr	r3, [r0, #16]
 8007478:	4798      	blx	r3
 800747a:	1b40      	subs	r0, r0, r5
 800747c:	42b0      	cmp	r0, r6
 800747e:	d9f4      	bls.n	800746a <sh2_open+0x7a>
 8007480:	2000      	movs	r0, #0
 8007482:	bdf8      	pop	{r3, r4, r5, r6, r7, pc}
 8007484:	f06f 0001 	mvn.w	r0, #1
 8007488:	e7fb      	b.n	8007482 <sh2_open+0x92>
 800748a:	f04f 30ff 	mov.w	r0, #4294967295
 800748e:	e7f8      	b.n	8007482 <sh2_open+0x92>
 8007490:	20005734 	.word	0x20005734
 8007494:	08007015 	.word	0x08007015
 8007498:	08007211 	.word	0x08007211
 800749c:	0800720d 	.word	0x0800720d
 80074a0:	080073ed 	.word	0x080073ed
 80074a4:	080070d3 	.word	0x080070d3
 80074a8:	080072c1 	.word	0x080072c1
 80074ac:	00030d3f 	.word	0x00030d3f

080074b0 <sh2_service>:
 80074b0:	4b02      	ldr	r3, [pc, #8]	; (80074bc <sh2_service+0xc>)
 80074b2:	6858      	ldr	r0, [r3, #4]
 80074b4:	b108      	cbz	r0, 80074ba <sh2_service+0xa>
 80074b6:	f000 bc56 	b.w	8007d66 <shtp_service>
 80074ba:	4770      	bx	lr
 80074bc:	20005734 	.word	0x20005734

080074c0 <sh2_setSensorCallback>:
 80074c0:	4b02      	ldr	r3, [pc, #8]	; (80074cc <sh2_setSensorCallback+0xc>)
 80074c2:	e9c3 0110 	strd	r0, r1, [r3, #64]	; 0x40
 80074c6:	2000      	movs	r0, #0
 80074c8:	4770      	bx	lr
 80074ca:	bf00      	nop
 80074cc:	20005734 	.word	0x20005734

080074d0 <sh2_getProdIds>:
 80074d0:	4b06      	ldr	r3, [pc, #24]	; (80074ec <sh2_getProdIds+0x1c>)
 80074d2:	685a      	ldr	r2, [r3, #4]
 80074d4:	b13a      	cbz	r2, 80074e6 <sh2_getProdIds+0x16>
 80074d6:	2200      	movs	r2, #0
 80074d8:	6258      	str	r0, [r3, #36]	; 0x24
 80074da:	4805      	ldr	r0, [pc, #20]	; (80074f0 <sh2_getProdIds+0x20>)
 80074dc:	631a      	str	r2, [r3, #48]	; 0x30
 80074de:	e9c3 220a 	strd	r2, r2, [r3, #40]	; 0x28
 80074e2:	f7ff bf53 	b.w	800738c <opProcess.constprop.0>
 80074e6:	f04f 30ff 	mov.w	r0, #4294967295
 80074ea:	4770      	bx	lr
 80074ec:	20005734 	.word	0x20005734
 80074f0:	0800950c 	.word	0x0800950c

080074f4 <sh2_setSensorConfig>:
 80074f4:	4b0a      	ldr	r3, [pc, #40]	; (8007520 <sh2_setSensorConfig+0x2c>)
 80074f6:	685a      	ldr	r2, [r3, #4]
 80074f8:	b410      	push	{r4}
 80074fa:	b15a      	cbz	r2, 8007514 <sh2_setSensorConfig+0x20>
 80074fc:	2200      	movs	r2, #0
 80074fe:	6259      	str	r1, [r3, #36]	; 0x24
 8007500:	631a      	str	r2, [r3, #48]	; 0x30
 8007502:	e9c3 220a 	strd	r2, r2, [r3, #40]	; 0x28
 8007506:	f883 0028 	strb.w	r0, [r3, #40]	; 0x28
 800750a:	f85d 4b04 	ldr.w	r4, [sp], #4
 800750e:	4805      	ldr	r0, [pc, #20]	; (8007524 <sh2_setSensorConfig+0x30>)
 8007510:	f7ff bf3c 	b.w	800738c <opProcess.constprop.0>
 8007514:	f04f 30ff 	mov.w	r0, #4294967295
 8007518:	f85d 4b04 	ldr.w	r4, [sp], #4
 800751c:	4770      	bx	lr
 800751e:	bf00      	nop
 8007520:	20005734 	.word	0x20005734
 8007524:	0800951c 	.word	0x0800951c

08007528 <decodeAccelerometer>:
 8007528:	b538      	push	{r3, r4, r5, lr}
 800752a:	4604      	mov	r4, r0
 800752c:	f101 0016 	add.w	r0, r1, #22
 8007530:	460d      	mov	r5, r1
 8007532:	ed2d 8b02 	vpush	{d8}
 8007536:	f000 fbd8 	bl	8007cea <read16>
 800753a:	ee07 0a90 	vmov	s15, r0
 800753e:	ed9f 8a12 	vldr	s16, [pc, #72]	; 8007588 <decodeAccelerometer+0x60>
 8007542:	f105 0018 	add.w	r0, r5, #24
 8007546:	eef8 7ae7 	vcvt.f32.s32	s15, s15
 800754a:	ee67 7a88 	vmul.f32	s15, s15, s16
 800754e:	edc4 7a05 	vstr	s15, [r4, #20]
 8007552:	f000 fbca 	bl	8007cea <read16>
 8007556:	ee07 0a90 	vmov	s15, r0
 800755a:	f105 001a 	add.w	r0, r5, #26
 800755e:	eef8 7ae7 	vcvt.f32.s32	s15, s15
 8007562:	ee67 7a88 	vmul.f32	s15, s15, s16
 8007566:	edc4 7a06 	vstr	s15, [r4, #24]
 800756a:	f000 fbbe 	bl	8007cea <read16>
 800756e:	ee07 0a90 	vmov	s15, r0
 8007572:	2000      	movs	r0, #0
 8007574:	eef8 7ae7 	vcvt.f32.s32	s15, s15
 8007578:	ee67 7a88 	vmul.f32	s15, s15, s16
 800757c:	ecbd 8b02 	vpop	{d8}
 8007580:	edc4 7a07 	vstr	s15, [r4, #28]
 8007584:	bd38      	pop	{r3, r4, r5, pc}
 8007586:	bf00      	nop
 8007588:	3b800000 	.word	0x3b800000

0800758c <decodeArvrStabilizedRV>:
 800758c:	b538      	push	{r3, r4, r5, lr}
 800758e:	4604      	mov	r4, r0
 8007590:	f101 0016 	add.w	r0, r1, #22
 8007594:	460d      	mov	r5, r1
 8007596:	ed2d 8b02 	vpush	{d8}
 800759a:	f000 fba6 	bl	8007cea <read16>
 800759e:	ee07 0a90 	vmov	s15, r0
 80075a2:	ed9f 8a1d 	vldr	s16, [pc, #116]	; 8007618 <decodeArvrStabilizedRV+0x8c>
 80075a6:	f105 0018 	add.w	r0, r5, #24
 80075aa:	eef8 7ae7 	vcvt.f32.s32	s15, s15
 80075ae:	ee67 7a88 	vmul.f32	s15, s15, s16
 80075b2:	edc4 7a05 	vstr	s15, [r4, #20]
 80075b6:	f000 fb98 	bl	8007cea <read16>
 80075ba:	ee07 0a90 	vmov	s15, r0
 80075be:	f105 001a 	add.w	r0, r5, #26
 80075c2:	eef8 7ae7 	vcvt.f32.s32	s15, s15
 80075c6:	ee67 7a88 	vmul.f32	s15, s15, s16
 80075ca:	edc4 7a06 	vstr	s15, [r4, #24]
 80075ce:	f000 fb8c 	bl	8007cea <read16>
 80075d2:	ee07 0a90 	vmov	s15, r0
 80075d6:	f105 001c 	add.w	r0, r5, #28
 80075da:	eef8 7ae7 	vcvt.f32.s32	s15, s15
 80075de:	ee67 7a88 	vmul.f32	s15, s15, s16
 80075e2:	edc4 7a07 	vstr	s15, [r4, #28]
 80075e6:	f000 fb80 	bl	8007cea <read16>
 80075ea:	ee07 0a90 	vmov	s15, r0
 80075ee:	f105 001e 	add.w	r0, r5, #30
 80075f2:	eef8 7ae7 	vcvt.f32.s32	s15, s15
 80075f6:	ee67 7a88 	vmul.f32	s15, s15, s16
 80075fa:	edc4 7a08 	vstr	s15, [r4, #32]
 80075fe:	f000 fb74 	bl	8007cea <read16>
 8007602:	ee07 0a90 	vmov	s15, r0
 8007606:	2000      	movs	r0, #0
 8007608:	eefa 7aca 	vcvt.f32.s32	s15, s15, #12
 800760c:	ecbd 8b02 	vpop	{d8}
 8007610:	edc4 7a09 	vstr	s15, [r4, #36]	; 0x24
 8007614:	bd38      	pop	{r3, r4, r5, pc}
 8007616:	bf00      	nop
 8007618:	38800000 	.word	0x38800000

0800761c <decodeArvrStabilizedGRV>:
 800761c:	b538      	push	{r3, r4, r5, lr}
 800761e:	4604      	mov	r4, r0
 8007620:	f101 0016 	add.w	r0, r1, #22
 8007624:	460d      	mov	r5, r1
 8007626:	ed2d 8b02 	vpush	{d8}
 800762a:	f000 fb5e 	bl	8007cea <read16>
 800762e:	ee07 0a90 	vmov	s15, r0
 8007632:	ed9f 8a18 	vldr	s16, [pc, #96]	; 8007694 <decodeArvrStabilizedGRV+0x78>
 8007636:	f105 0018 	add.w	r0, r5, #24
 800763a:	eef8 7ae7 	vcvt.f32.s32	s15, s15
 800763e:	ee67 7a88 	vmul.f32	s15, s15, s16
 8007642:	edc4 7a05 	vstr	s15, [r4, #20]
 8007646:	f000 fb50 	bl	8007cea <read16>
 800764a:	ee07 0a90 	vmov	s15, r0
 800764e:	f105 001a 	add.w	r0, r5, #26
 8007652:	eef8 7ae7 	vcvt.f32.s32	s15, s15
 8007656:	ee67 7a88 	vmul.f32	s15, s15, s16
 800765a:	edc4 7a06 	vstr	s15, [r4, #24]
 800765e:	f000 fb44 	bl	8007cea <read16>
 8007662:	ee07 0a90 	vmov	s15, r0
 8007666:	f105 001c 	add.w	r0, r5, #28
 800766a:	eef8 7ae7 	vcvt.f32.s32	s15, s15
 800766e:	ee67 7a88 	vmul.f32	s15, s15, s16
 8007672:	edc4 7a07 	vstr	s15, [r4, #28]
 8007676:	f000 fb38 	bl	8007cea <read16>
 800767a:	ee07 0a90 	vmov	s15, r0
 800767e:	2000      	movs	r0, #0
 8007680:	eef8 7ae7 	vcvt.f32.s32	s15, s15
 8007684:	ee67 7a88 	vmul.f32	s15, s15, s16
 8007688:	ecbd 8b02 	vpop	{d8}
 800768c:	edc4 7a08 	vstr	s15, [r4, #32]
 8007690:	bd38      	pop	{r3, r4, r5, pc}
 8007692:	bf00      	nop
 8007694:	38800000 	.word	0x38800000

08007698 <decodeRawAccelerometer>:
 8007698:	b538      	push	{r3, r4, r5, lr}
 800769a:	460d      	mov	r5, r1
 800769c:	4604      	mov	r4, r0
 800769e:	f101 0016 	add.w	r0, r1, #22
 80076a2:	f000 fb22 	bl	8007cea <read16>
 80076a6:	82a0      	strh	r0, [r4, #20]
 80076a8:	f105 0018 	add.w	r0, r5, #24
 80076ac:	f000 fb1d 	bl	8007cea <read16>
 80076b0:	82e0      	strh	r0, [r4, #22]
 80076b2:	f105 001a 	add.w	r0, r5, #26
 80076b6:	f000 fb18 	bl	8007cea <read16>
 80076ba:	8320      	strh	r0, [r4, #24]
 80076bc:	f105 001e 	add.w	r0, r5, #30
 80076c0:	f000 fb16 	bl	8007cf0 <read32>
 80076c4:	61e0      	str	r0, [r4, #28]
 80076c6:	2000      	movs	r0, #0
 80076c8:	bd38      	pop	{r3, r4, r5, pc}
	...

080076cc <sh2_decodeSensorEvent>:
 80076cc:	b570      	push	{r4, r5, r6, lr}
 80076ce:	ed2d 8b02 	vpush	{d8}
 80076d2:	7c4b      	ldrb	r3, [r1, #17]
 80076d4:	4604      	mov	r4, r0
 80076d6:	460d      	mov	r5, r1
 80076d8:	7003      	strb	r3, [r0, #0]
 80076da:	2b2a      	cmp	r3, #42	; 0x2a
 80076dc:	e9d1 0100 	ldrd	r0, r1, [r1]
 80076e0:	e9c4 0102 	strd	r0, r1, [r4, #8]
 80076e4:	d039      	beq.n	800775a <sh2_decodeSensorEvent+0x8e>
 80076e6:	7cea      	ldrb	r2, [r5, #19]
 80076e8:	3b01      	subs	r3, #1
 80076ea:	7062      	strb	r2, [r4, #1]
 80076ec:	7d2a      	ldrb	r2, [r5, #20]
 80076ee:	f002 0203 	and.w	r2, r2, #3
 80076f2:	70a2      	strb	r2, [r4, #2]
 80076f4:	2b2d      	cmp	r3, #45	; 0x2d
 80076f6:	f200 82ed 	bhi.w	8007cd4 <sh2_decodeSensorEvent+0x608>
 80076fa:	e8df f013 	tbh	[pc, r3, lsl #1]
 80076fe:	0095      	.short	0x0095
 8007700:	014100c7 	.word	0x014100c7
 8007704:	0157009d 	.word	0x0157009d
 8007708:	00ee00a5 	.word	0x00ee00a5
 800770c:	0167015f 	.word	0x0167015f
 8007710:	017a016f 	.word	0x017a016f
 8007714:	01880183 	.word	0x01880183
 8007718:	014c0191 	.word	0x014c0191
 800771c:	01a001be 	.word	0x01a001be
 8007720:	01be01c1 	.word	0x01be01c1
 8007724:	00ad008d 	.word	0x00ad008d
 8007728:	01910139 	.word	0x01910139
 800772c:	01c1019a 	.word	0x01c1019a
 8007730:	01c101c1 	.word	0x01c101c1
 8007734:	02eb01c1 	.word	0x02eb01c1
 8007738:	01be01ab 	.word	0x01be01ab
 800773c:	01c101c1 	.word	0x01c101c1
 8007740:	01c101c1 	.word	0x01c101c1
 8007744:	02eb02eb 	.word	0x02eb02eb
 8007748:	02eb02eb 	.word	0x02eb02eb
 800774c:	01cf01c7 	.word	0x01cf01c7
 8007750:	01d702eb 	.word	0x01d702eb
 8007754:	022e01eb 	.word	0x022e01eb
 8007758:	02d6      	.short	0x02d6
 800775a:	2600      	movs	r6, #0
 800775c:	f105 0012 	add.w	r0, r5, #18
 8007760:	ed9f 8ad5 	vldr	s16, [pc, #852]	; 8007ab8 <sh2_decodeSensorEvent+0x3ec>
 8007764:	7066      	strb	r6, [r4, #1]
 8007766:	70a6      	strb	r6, [r4, #2]
 8007768:	f000 fabf 	bl	8007cea <read16>
 800776c:	ee07 0a90 	vmov	s15, r0
 8007770:	f105 0014 	add.w	r0, r5, #20
 8007774:	eef8 7ae7 	vcvt.f32.s32	s15, s15
 8007778:	ee67 7a88 	vmul.f32	s15, s15, s16
 800777c:	edc4 7a05 	vstr	s15, [r4, #20]
 8007780:	f000 fab3 	bl	8007cea <read16>
 8007784:	ee07 0a90 	vmov	s15, r0
 8007788:	f105 0016 	add.w	r0, r5, #22
 800778c:	eef8 7ae7 	vcvt.f32.s32	s15, s15
 8007790:	ee67 7a88 	vmul.f32	s15, s15, s16
 8007794:	edc4 7a06 	vstr	s15, [r4, #24]
 8007798:	f000 faa7 	bl	8007cea <read16>
 800779c:	ee07 0a90 	vmov	s15, r0
 80077a0:	f105 0018 	add.w	r0, r5, #24
 80077a4:	eef8 7ae7 	vcvt.f32.s32	s15, s15
 80077a8:	ee67 7a88 	vmul.f32	s15, s15, s16
 80077ac:	edc4 7a07 	vstr	s15, [r4, #28]
 80077b0:	f000 fa9b 	bl	8007cea <read16>
 80077b4:	ee07 0a90 	vmov	s15, r0
 80077b8:	f105 001a 	add.w	r0, r5, #26
 80077bc:	eef8 7ae7 	vcvt.f32.s32	s15, s15
 80077c0:	ee67 7a88 	vmul.f32	s15, s15, s16
 80077c4:	ed9f 8abd 	vldr	s16, [pc, #756]	; 8007abc <sh2_decodeSensorEvent+0x3f0>
 80077c8:	edc4 7a08 	vstr	s15, [r4, #32]
 80077cc:	f000 fa8d 	bl	8007cea <read16>
 80077d0:	ee07 0a90 	vmov	s15, r0
 80077d4:	f105 001c 	add.w	r0, r5, #28
 80077d8:	eef8 7ae7 	vcvt.f32.s32	s15, s15
 80077dc:	ee67 7a88 	vmul.f32	s15, s15, s16
 80077e0:	edc4 7a09 	vstr	s15, [r4, #36]	; 0x24
 80077e4:	f000 fa81 	bl	8007cea <read16>
 80077e8:	ee07 0a90 	vmov	s15, r0
 80077ec:	f105 001e 	add.w	r0, r5, #30
 80077f0:	eef8 7ae7 	vcvt.f32.s32	s15, s15
 80077f4:	ee67 7a88 	vmul.f32	s15, s15, s16
 80077f8:	edc4 7a0a 	vstr	s15, [r4, #40]	; 0x28
 80077fc:	f000 fa75 	bl	8007cea <read16>
 8007800:	ee07 0a90 	vmov	s15, r0
 8007804:	eef8 7ae7 	vcvt.f32.s32	s15, s15
 8007808:	ee67 7a88 	vmul.f32	s15, s15, s16
 800780c:	edc4 7a0b 	vstr	s15, [r4, #44]	; 0x2c
 8007810:	2000      	movs	r0, #0
 8007812:	ecbd 8b02 	vpop	{d8}
 8007816:	bd70      	pop	{r4, r5, r6, pc}
 8007818:	ecbd 8b02 	vpop	{d8}
 800781c:	4629      	mov	r1, r5
 800781e:	4620      	mov	r0, r4
 8007820:	e8bd 4070 	ldmia.w	sp!, {r4, r5, r6, lr}
 8007824:	f7ff bf38 	b.w	8007698 <decodeRawAccelerometer>
 8007828:	ecbd 8b02 	vpop	{d8}
 800782c:	4629      	mov	r1, r5
 800782e:	4620      	mov	r0, r4
 8007830:	e8bd 4070 	ldmia.w	sp!, {r4, r5, r6, lr}
 8007834:	f7ff be78 	b.w	8007528 <decodeAccelerometer>
 8007838:	ecbd 8b02 	vpop	{d8}
 800783c:	4629      	mov	r1, r5
 800783e:	4620      	mov	r0, r4
 8007840:	e8bd 4070 	ldmia.w	sp!, {r4, r5, r6, lr}
 8007844:	f7ff be70 	b.w	8007528 <decodeAccelerometer>
 8007848:	ecbd 8b02 	vpop	{d8}
 800784c:	4629      	mov	r1, r5
 800784e:	4620      	mov	r0, r4
 8007850:	e8bd 4070 	ldmia.w	sp!, {r4, r5, r6, lr}
 8007854:	f7ff be68 	b.w	8007528 <decodeAccelerometer>
 8007858:	f105 0016 	add.w	r0, r5, #22
 800785c:	f000 fa45 	bl	8007cea <read16>
 8007860:	82a0      	strh	r0, [r4, #20]
 8007862:	f105 0018 	add.w	r0, r5, #24
 8007866:	f000 fa40 	bl	8007cea <read16>
 800786a:	82e0      	strh	r0, [r4, #22]
 800786c:	f105 001a 	add.w	r0, r5, #26
 8007870:	f000 fa3b 	bl	8007cea <read16>
 8007874:	8320      	strh	r0, [r4, #24]
 8007876:	f105 001c 	add.w	r0, r5, #28
 800787a:	f000 fa36 	bl	8007cea <read16>
 800787e:	8360      	strh	r0, [r4, #26]
 8007880:	f105 001e 	add.w	r0, r5, #30
 8007884:	f000 fa34 	bl	8007cf0 <read32>
 8007888:	61e0      	str	r0, [r4, #28]
 800788a:	e7c1      	b.n	8007810 <sh2_decodeSensorEvent+0x144>
 800788c:	f105 0016 	add.w	r0, r5, #22
 8007890:	ed9f 8a8b 	vldr	s16, [pc, #556]	; 8007ac0 <sh2_decodeSensorEvent+0x3f4>
 8007894:	f000 fa29 	bl	8007cea <read16>
 8007898:	ee07 0a90 	vmov	s15, r0
 800789c:	eef8 7ae7 	vcvt.f32.s32	s15, s15
 80078a0:	ee67 7a88 	vmul.f32	s15, s15, s16
 80078a4:	f105 0018 	add.w	r0, r5, #24
 80078a8:	edc4 7a05 	vstr	s15, [r4, #20]
 80078ac:	f000 fa1d 	bl	8007cea <read16>
 80078b0:	ee07 0a90 	vmov	s15, r0
 80078b4:	f105 001a 	add.w	r0, r5, #26
 80078b8:	eef8 7ae7 	vcvt.f32.s32	s15, s15
 80078bc:	ee67 7a88 	vmul.f32	s15, s15, s16
 80078c0:	edc4 7a06 	vstr	s15, [r4, #24]
 80078c4:	f000 fa11 	bl	8007cea <read16>
 80078c8:	ee07 0a90 	vmov	s15, r0
 80078cc:	eef8 7ae7 	vcvt.f32.s32	s15, s15
 80078d0:	ee67 7a88 	vmul.f32	s15, s15, s16
 80078d4:	edc4 7a07 	vstr	s15, [r4, #28]
 80078d8:	e79a      	b.n	8007810 <sh2_decodeSensorEvent+0x144>
 80078da:	f105 0016 	add.w	r0, r5, #22
 80078de:	ed9f 8a78 	vldr	s16, [pc, #480]	; 8007ac0 <sh2_decodeSensorEvent+0x3f4>
 80078e2:	f000 fa02 	bl	8007cea <read16>
 80078e6:	ee07 0a90 	vmov	s15, r0
 80078ea:	eef8 7ae7 	vcvt.f32.s32	s15, s15
 80078ee:	ee67 7a88 	vmul.f32	s15, s15, s16
 80078f2:	f105 0018 	add.w	r0, r5, #24
 80078f6:	edc4 7a05 	vstr	s15, [r4, #20]
 80078fa:	f000 f9f6 	bl	8007cea <read16>
 80078fe:	ee07 0a90 	vmov	s15, r0
 8007902:	f105 001a 	add.w	r0, r5, #26
 8007906:	eef8 7ae7 	vcvt.f32.s32	s15, s15
 800790a:	ee67 7a88 	vmul.f32	s15, s15, s16
 800790e:	edc4 7a06 	vstr	s15, [r4, #24]
 8007912:	f000 f9ea 	bl	8007cea <read16>
 8007916:	ee07 0a90 	vmov	s15, r0
 800791a:	f105 001c 	add.w	r0, r5, #28
 800791e:	eef8 7ae7 	vcvt.f32.s32	s15, s15
 8007922:	ee67 7a88 	vmul.f32	s15, s15, s16
 8007926:	edc4 7a07 	vstr	s15, [r4, #28]
 800792a:	f000 f9de 	bl	8007cea <read16>
 800792e:	ee07 0a90 	vmov	s15, r0
 8007932:	f105 001e 	add.w	r0, r5, #30
 8007936:	eef8 7ae7 	vcvt.f32.s32	s15, s15
 800793a:	ee67 7a88 	vmul.f32	s15, s15, s16
 800793e:	edc4 7a08 	vstr	s15, [r4, #32]
 8007942:	f000 f9d2 	bl	8007cea <read16>
 8007946:	ee07 0a90 	vmov	s15, r0
 800794a:	f105 0020 	add.w	r0, r5, #32
 800794e:	eef8 7ae7 	vcvt.f32.s32	s15, s15
 8007952:	ee67 7a88 	vmul.f32	s15, s15, s16
 8007956:	edc4 7a09 	vstr	s15, [r4, #36]	; 0x24
 800795a:	f000 f9c6 	bl	8007cea <read16>
 800795e:	ee07 0a90 	vmov	s15, r0
 8007962:	eef8 7ae7 	vcvt.f32.s32	s15, s15
 8007966:	ee67 7a88 	vmul.f32	s15, s15, s16
 800796a:	edc4 7a0a 	vstr	s15, [r4, #40]	; 0x28
 800796e:	e74f      	b.n	8007810 <sh2_decodeSensorEvent+0x144>
 8007970:	ecbd 8b02 	vpop	{d8}
 8007974:	4629      	mov	r1, r5
 8007976:	4620      	mov	r0, r4
 8007978:	e8bd 4070 	ldmia.w	sp!, {r4, r5, r6, lr}
 800797c:	f7ff be8c 	b.w	8007698 <decodeRawAccelerometer>
 8007980:	f105 0016 	add.w	r0, r5, #22
 8007984:	ed9f 8a4f 	vldr	s16, [pc, #316]	; 8007ac4 <sh2_decodeSensorEvent+0x3f8>
 8007988:	f000 f9af 	bl	8007cea <read16>
 800798c:	ee07 0a90 	vmov	s15, r0
 8007990:	eef8 7ae7 	vcvt.f32.s32	s15, s15
 8007994:	e784      	b.n	80078a0 <sh2_decodeSensorEvent+0x1d4>
 8007996:	f105 0016 	add.w	r0, r5, #22
 800799a:	ed9f 8a4a 	vldr	s16, [pc, #296]	; 8007ac4 <sh2_decodeSensorEvent+0x3f8>
 800799e:	f000 f9a4 	bl	8007cea <read16>
 80079a2:	ee07 0a90 	vmov	s15, r0
 80079a6:	eef8 7ae7 	vcvt.f32.s32	s15, s15
 80079aa:	e7a0      	b.n	80078ee <sh2_decodeSensorEvent+0x222>
 80079ac:	ecbd 8b02 	vpop	{d8}
 80079b0:	4629      	mov	r1, r5
 80079b2:	4620      	mov	r0, r4
 80079b4:	e8bd 4070 	ldmia.w	sp!, {r4, r5, r6, lr}
 80079b8:	f7ff bde8 	b.w	800758c <decodeArvrStabilizedRV>
 80079bc:	ecbd 8b02 	vpop	{d8}
 80079c0:	4629      	mov	r1, r5
 80079c2:	4620      	mov	r0, r4
 80079c4:	e8bd 4070 	ldmia.w	sp!, {r4, r5, r6, lr}
 80079c8:	f7ff be28 	b.w	800761c <decodeArvrStabilizedGRV>
 80079cc:	ecbd 8b02 	vpop	{d8}
 80079d0:	4629      	mov	r1, r5
 80079d2:	4620      	mov	r0, r4
 80079d4:	e8bd 4070 	ldmia.w	sp!, {r4, r5, r6, lr}
 80079d8:	f7ff bdd8 	b.w	800758c <decodeArvrStabilizedRV>
 80079dc:	f105 0016 	add.w	r0, r5, #22
 80079e0:	f000 f986 	bl	8007cf0 <read32>
 80079e4:	ee07 0a90 	vmov	s15, r0
 80079e8:	eefa 7ac6 	vcvt.f32.s32	s15, s15, #20
 80079ec:	edc4 7a05 	vstr	s15, [r4, #20]
 80079f0:	e70e      	b.n	8007810 <sh2_decodeSensorEvent+0x144>
 80079f2:	f105 0016 	add.w	r0, r5, #22
 80079f6:	f000 f97b 	bl	8007cf0 <read32>
 80079fa:	ee07 0a90 	vmov	s15, r0
 80079fe:	eefa 7acc 	vcvt.f32.s32	s15, s15, #8
 8007a02:	e7f3      	b.n	80079ec <sh2_decodeSensorEvent+0x320>
 8007a04:	f105 0016 	add.w	r0, r5, #22
 8007a08:	f000 f96f 	bl	8007cea <read16>
 8007a0c:	e7f5      	b.n	80079fa <sh2_decodeSensorEvent+0x32e>
 8007a0e:	f105 0016 	add.w	r0, r5, #22
 8007a12:	f000 f96a 	bl	8007cea <read16>
 8007a16:	ee07 0a90 	vmov	s15, r0
 8007a1a:	eefa 7ace 	vcvt.f32.s32	s15, s15, #4
 8007a1e:	e7e5      	b.n	80079ec <sh2_decodeSensorEvent+0x320>
 8007a20:	f105 0016 	add.w	r0, r5, #22
 8007a24:	f000 f961 	bl	8007cea <read16>
 8007a28:	ee07 0a90 	vmov	s15, r0
 8007a2c:	eefa 7aec 	vcvt.f32.s32	s15, s15, #7
 8007a30:	e7dc      	b.n	80079ec <sh2_decodeSensorEvent+0x320>
 8007a32:	f105 0016 	add.w	r0, r5, #22
 8007a36:	f000 f953 	bl	8007ce0 <readu32>
 8007a3a:	6160      	str	r0, [r4, #20]
 8007a3c:	e6e8      	b.n	8007810 <sh2_decodeSensorEvent+0x144>
 8007a3e:	f105 0016 	add.w	r0, r5, #22
 8007a42:	f000 f94d 	bl	8007ce0 <readu32>
 8007a46:	6160      	str	r0, [r4, #20]
 8007a48:	f105 001a 	add.w	r0, r5, #26
 8007a4c:	f000 f948 	bl	8007ce0 <readu32>
 8007a50:	8320      	strh	r0, [r4, #24]
 8007a52:	e6dd      	b.n	8007810 <sh2_decodeSensorEvent+0x144>
 8007a54:	7dab      	ldrb	r3, [r5, #22]
 8007a56:	f003 027f 	and.w	r2, r3, #127	; 0x7f
 8007a5a:	09db      	lsrs	r3, r3, #7
 8007a5c:	7563      	strb	r3, [r4, #21]
 8007a5e:	462b      	mov	r3, r5
 8007a60:	7522      	strb	r2, [r4, #20]
 8007a62:	3521      	adds	r5, #33	; 0x21
 8007a64:	f813 2f17 	ldrb.w	r2, [r3, #23]!
 8007a68:	f804 2f16 	strb.w	r2, [r4, #22]!
 8007a6c:	f813 2f01 	ldrb.w	r2, [r3, #1]!
 8007a70:	429d      	cmp	r5, r3
 8007a72:	f804 2f01 	strb.w	r2, [r4, #1]!
 8007a76:	d1f9      	bne.n	8007a6c <sh2_decodeSensorEvent+0x3a0>
 8007a78:	e6ca      	b.n	8007810 <sh2_decodeSensorEvent+0x144>
 8007a7a:	7dab      	ldrb	r3, [r5, #22]
 8007a7c:	7523      	strb	r3, [r4, #20]
 8007a7e:	e6c7      	b.n	8007810 <sh2_decodeSensorEvent+0x144>
 8007a80:	f105 0016 	add.w	r0, r5, #22
 8007a84:	f000 f92a 	bl	8007cdc <readu16>
 8007a88:	82a0      	strh	r0, [r4, #20]
 8007a8a:	e6c1      	b.n	8007810 <sh2_decodeSensorEvent+0x144>
 8007a8c:	ecbd 8b02 	vpop	{d8}
 8007a90:	4629      	mov	r1, r5
 8007a92:	4620      	mov	r0, r4
 8007a94:	e8bd 4070 	ldmia.w	sp!, {r4, r5, r6, lr}
 8007a98:	f7ff bd78 	b.w	800758c <decodeArvrStabilizedRV>
 8007a9c:	ecbd 8b02 	vpop	{d8}
 8007aa0:	4629      	mov	r1, r5
 8007aa2:	4620      	mov	r0, r4
 8007aa4:	e8bd 4070 	ldmia.w	sp!, {r4, r5, r6, lr}
 8007aa8:	f7ff bdb8 	b.w	800761c <decodeArvrStabilizedGRV>
 8007aac:	7dab      	ldrb	r3, [r5, #22]
 8007aae:	7523      	strb	r3, [r4, #20]
 8007ab0:	7deb      	ldrb	r3, [r5, #23]
 8007ab2:	7563      	strb	r3, [r4, #21]
 8007ab4:	e6ac      	b.n	8007810 <sh2_decodeSensorEvent+0x144>
 8007ab6:	bf00      	nop
 8007ab8:	38800000 	.word	0x38800000
 8007abc:	3a800000 	.word	0x3a800000
 8007ac0:	3b000000 	.word	0x3b000000
 8007ac4:	3d800000 	.word	0x3d800000
 8007ac8:	37000000 	.word	0x37000000
 8007acc:	30800000 	.word	0x30800000
 8007ad0:	33000000 	.word	0x33000000
 8007ad4:	f105 0016 	add.w	r0, r5, #22
 8007ad8:	f000 f907 	bl	8007cea <read16>
 8007adc:	8360      	strh	r0, [r4, #26]
 8007ade:	f105 0018 	add.w	r0, r5, #24
 8007ae2:	f000 f902 	bl	8007cea <read16>
 8007ae6:	83a0      	strh	r0, [r4, #28]
 8007ae8:	f105 001a 	add.w	r0, r5, #26
 8007aec:	f000 f8fd 	bl	8007cea <read16>
 8007af0:	83e0      	strh	r0, [r4, #30]
 8007af2:	f105 001c 	add.w	r0, r5, #28
 8007af6:	f000 f8f5 	bl	8007ce4 <read8>
 8007afa:	f884 0020 	strb.w	r0, [r4, #32]
 8007afe:	f105 001d 	add.w	r0, r5, #29
 8007b02:	f000 f8ef 	bl	8007ce4 <read8>
 8007b06:	f884 0021 	strb.w	r0, [r4, #33]	; 0x21
 8007b0a:	f105 001e 	add.w	r0, r5, #30
 8007b0e:	f000 f8e9 	bl	8007ce4 <read8>
 8007b12:	f884 0022 	strb.w	r0, [r4, #34]	; 0x22
 8007b16:	f105 001f 	add.w	r0, r5, #31
 8007b1a:	f000 f8e3 	bl	8007ce4 <read8>
 8007b1e:	f884 0023 	strb.w	r0, [r4, #35]	; 0x23
 8007b22:	f105 0020 	add.w	r0, r5, #32
 8007b26:	f000 f8dd 	bl	8007ce4 <read8>
 8007b2a:	f884 0024 	strb.w	r0, [r4, #36]	; 0x24
 8007b2e:	f105 0021 	add.w	r0, r5, #33	; 0x21
 8007b32:	f000 f8d7 	bl	8007ce4 <read8>
 8007b36:	f884 0025 	strb.w	r0, [r4, #37]	; 0x25
 8007b3a:	f105 0022 	add.w	r0, r5, #34	; 0x22
 8007b3e:	f000 f8d1 	bl	8007ce4 <read8>
 8007b42:	f884 0026 	strb.w	r0, [r4, #38]	; 0x26
 8007b46:	f105 0024 	add.w	r0, r5, #36	; 0x24
 8007b4a:	f000 f8ce 	bl	8007cea <read16>
 8007b4e:	8320      	strh	r0, [r4, #24]
 8007b50:	f105 0026 	add.w	r0, r5, #38	; 0x26
 8007b54:	f000 f8cc 	bl	8007cf0 <read32>
 8007b58:	e76f      	b.n	8007a3a <sh2_decodeSensorEvent+0x36e>
 8007b5a:	f105 0016 	add.w	r0, r5, #22
 8007b5e:	ed1f 8a26 	vldr	s16, [pc, #-152]	; 8007ac8 <sh2_decodeSensorEvent+0x3fc>
 8007b62:	f000 f8c5 	bl	8007cf0 <read32>
 8007b66:	6160      	str	r0, [r4, #20]
 8007b68:	f105 001a 	add.w	r0, r5, #26
 8007b6c:	f000 f8c0 	bl	8007cf0 <read32>
 8007b70:	ee07 0a90 	vmov	s15, r0
 8007b74:	f105 001e 	add.w	r0, r5, #30
 8007b78:	eef8 7ae7 	vcvt.f32.s32	s15, s15
 8007b7c:	ee67 7a88 	vmul.f32	s15, s15, s16
 8007b80:	edc4 7a06 	vstr	s15, [r4, #24]
 8007b84:	f000 f8b4 	bl	8007cf0 <read32>
 8007b88:	ee07 0a90 	vmov	s15, r0
 8007b8c:	f105 0022 	add.w	r0, r5, #34	; 0x22
 8007b90:	eef8 7ae7 	vcvt.f32.s32	s15, s15
 8007b94:	ee67 7a88 	vmul.f32	s15, s15, s16
 8007b98:	edc4 7a07 	vstr	s15, [r4, #28]
 8007b9c:	f000 f8a8 	bl	8007cf0 <read32>
 8007ba0:	ee07 0a90 	vmov	s15, r0
 8007ba4:	f105 0026 	add.w	r0, r5, #38	; 0x26
 8007ba8:	eef8 7ae7 	vcvt.f32.s32	s15, s15
 8007bac:	ee67 7a88 	vmul.f32	s15, s15, s16
 8007bb0:	ed1f 8a3a 	vldr	s16, [pc, #-232]	; 8007acc <sh2_decodeSensorEvent+0x400>
 8007bb4:	edc4 7a08 	vstr	s15, [r4, #32]
 8007bb8:	f000 f89a 	bl	8007cf0 <read32>
 8007bbc:	ee07 0a90 	vmov	s15, r0
 8007bc0:	f105 002a 	add.w	r0, r5, #42	; 0x2a
 8007bc4:	eef8 7ae7 	vcvt.f32.s32	s15, s15
 8007bc8:	ee67 7a88 	vmul.f32	s15, s15, s16
 8007bcc:	edc4 7a09 	vstr	s15, [r4, #36]	; 0x24
 8007bd0:	f000 f88e 	bl	8007cf0 <read32>
 8007bd4:	ee07 0a90 	vmov	s15, r0
 8007bd8:	f105 002e 	add.w	r0, r5, #46	; 0x2e
 8007bdc:	eef8 7ae7 	vcvt.f32.s32	s15, s15
 8007be0:	ee67 7a88 	vmul.f32	s15, s15, s16
 8007be4:	edc4 7a0a 	vstr	s15, [r4, #40]	; 0x28
 8007be8:	f000 f882 	bl	8007cf0 <read32>
 8007bec:	ee07 0a90 	vmov	s15, r0
 8007bf0:	f105 0032 	add.w	r0, r5, #50	; 0x32
 8007bf4:	eef8 7ae7 	vcvt.f32.s32	s15, s15
 8007bf8:	ee67 7a88 	vmul.f32	s15, s15, s16
 8007bfc:	edc4 7a0b 	vstr	s15, [r4, #44]	; 0x2c
 8007c00:	f000 f876 	bl	8007cf0 <read32>
 8007c04:	ee07 0a90 	vmov	s15, r0
 8007c08:	f105 0036 	add.w	r0, r5, #54	; 0x36
 8007c0c:	eef8 7ae7 	vcvt.f32.s32	s15, s15
 8007c10:	ee67 7a88 	vmul.f32	s15, s15, s16
 8007c14:	ed1f 8a52 	vldr	s16, [pc, #-328]	; 8007ad0 <sh2_decodeSensorEvent+0x404>
 8007c18:	edc4 7a0c 	vstr	s15, [r4, #48]	; 0x30
 8007c1c:	f000 f868 	bl	8007cf0 <read32>
 8007c20:	ee07 0a90 	vmov	s15, r0
 8007c24:	f105 003a 	add.w	r0, r5, #58	; 0x3a
 8007c28:	eef8 7ae7 	vcvt.f32.s32	s15, s15
 8007c2c:	ee67 7a88 	vmul.f32	s15, s15, s16
 8007c30:	edc4 7a0d 	vstr	s15, [r4, #52]	; 0x34
 8007c34:	f000 f85c 	bl	8007cf0 <read32>
 8007c38:	ee07 0a90 	vmov	s15, r0
 8007c3c:	f105 003e 	add.w	r0, r5, #62	; 0x3e
 8007c40:	eef8 7ae7 	vcvt.f32.s32	s15, s15
 8007c44:	ee67 7a88 	vmul.f32	s15, s15, s16
 8007c48:	edc4 7a0e 	vstr	s15, [r4, #56]	; 0x38
 8007c4c:	f000 f850 	bl	8007cf0 <read32>
 8007c50:	ee07 0a90 	vmov	s15, r0
 8007c54:	f105 0042 	add.w	r0, r5, #66	; 0x42
 8007c58:	eef8 7ae7 	vcvt.f32.s32	s15, s15
 8007c5c:	ee67 7a88 	vmul.f32	s15, s15, s16
 8007c60:	edc4 7a0f 	vstr	s15, [r4, #60]	; 0x3c
 8007c64:	f000 f844 	bl	8007cf0 <read32>
 8007c68:	ee07 0a90 	vmov	s15, r0
 8007c6c:	f105 0046 	add.w	r0, r5, #70	; 0x46
 8007c70:	eef8 7ae7 	vcvt.f32.s32	s15, s15
 8007c74:	ee67 7a88 	vmul.f32	s15, s15, s16
 8007c78:	edc4 7a10 	vstr	s15, [r4, #64]	; 0x40
 8007c7c:	f000 f838 	bl	8007cf0 <read32>
 8007c80:	ee07 0a90 	vmov	s15, r0
 8007c84:	f105 004a 	add.w	r0, r5, #74	; 0x4a
 8007c88:	eef8 7ae7 	vcvt.f32.s32	s15, s15
 8007c8c:	ee67 7a88 	vmul.f32	s15, s15, s16
 8007c90:	edc4 7a11 	vstr	s15, [r4, #68]	; 0x44
 8007c94:	f000 f82c 	bl	8007cf0 <read32>
 8007c98:	ee07 0a90 	vmov	s15, r0
 8007c9c:	eef8 7ae7 	vcvt.f32.s32	s15, s15
 8007ca0:	ee67 7a88 	vmul.f32	s15, s15, s16
 8007ca4:	edc4 7a12 	vstr	s15, [r4, #72]	; 0x48
 8007ca8:	e5b2      	b.n	8007810 <sh2_decodeSensorEvent+0x144>
 8007caa:	f105 0016 	add.w	r0, r5, #22
 8007cae:	f000 f81f 	bl	8007cf0 <read32>
 8007cb2:	6160      	str	r0, [r4, #20]
 8007cb4:	f105 001a 	add.w	r0, r5, #26
 8007cb8:	f000 f814 	bl	8007ce4 <read8>
 8007cbc:	7620      	strb	r0, [r4, #24]
 8007cbe:	f105 001b 	add.w	r0, r5, #27
 8007cc2:	f000 f80f 	bl	8007ce4 <read8>
 8007cc6:	7660      	strb	r0, [r4, #25]
 8007cc8:	f105 001c 	add.w	r0, r5, #28
 8007ccc:	f000 f80d 	bl	8007cea <read16>
 8007cd0:	8360      	strh	r0, [r4, #26]
 8007cd2:	e59d      	b.n	8007810 <sh2_decodeSensorEvent+0x144>
 8007cd4:	f04f 30ff 	mov.w	r0, #4294967295
 8007cd8:	e59b      	b.n	8007812 <sh2_decodeSensorEvent+0x146>
 8007cda:	bf00      	nop

08007cdc <readu16>:
 8007cdc:	8800      	ldrh	r0, [r0, #0]
 8007cde:	4770      	bx	lr

08007ce0 <readu32>:
 8007ce0:	6800      	ldr	r0, [r0, #0]
 8007ce2:	4770      	bx	lr

08007ce4 <read8>:
 8007ce4:	f990 0000 	ldrsb.w	r0, [r0]
 8007ce8:	4770      	bx	lr

08007cea <read16>:
 8007cea:	f9b0 0000 	ldrsh.w	r0, [r0]
 8007cee:	4770      	bx	lr

08007cf0 <read32>:
 8007cf0:	6800      	ldr	r0, [r0, #0]
 8007cf2:	4770      	bx	lr

08007cf4 <shtp_open>:
 8007cf4:	b538      	push	{r3, r4, r5, lr}
 8007cf6:	4b10      	ldr	r3, [pc, #64]	; (8007d38 <shtp_open+0x44>)
 8007cf8:	4604      	mov	r4, r0
 8007cfa:	781a      	ldrb	r2, [r3, #0]
 8007cfc:	b98a      	cbnz	r2, 8007d22 <shtp_open+0x2e>
 8007cfe:	490f      	ldr	r1, [pc, #60]	; (8007d3c <shtp_open+0x48>)
 8007d00:	600a      	str	r2, [r1, #0]
 8007d02:	2201      	movs	r2, #1
 8007d04:	701a      	strb	r2, [r3, #0]
 8007d06:	b150      	cbz	r0, 8007d1e <shtp_open+0x2a>
 8007d08:	4d0c      	ldr	r5, [pc, #48]	; (8007d3c <shtp_open+0x48>)
 8007d0a:	f640 1214 	movw	r2, #2324	; 0x914
 8007d0e:	2100      	movs	r1, #0
 8007d10:	4628      	mov	r0, r5
 8007d12:	f000 fb45 	bl	80083a0 <memset>
 8007d16:	6823      	ldr	r3, [r4, #0]
 8007d18:	4620      	mov	r0, r4
 8007d1a:	4798      	blx	r3
 8007d1c:	b140      	cbz	r0, 8007d30 <shtp_open+0x3c>
 8007d1e:	2000      	movs	r0, #0
 8007d20:	bd38      	pop	{r3, r4, r5, pc}
 8007d22:	2800      	cmp	r0, #0
 8007d24:	d0fb      	beq.n	8007d1e <shtp_open+0x2a>
 8007d26:	4b05      	ldr	r3, [pc, #20]	; (8007d3c <shtp_open+0x48>)
 8007d28:	681b      	ldr	r3, [r3, #0]
 8007d2a:	2b00      	cmp	r3, #0
 8007d2c:	d1f7      	bne.n	8007d1e <shtp_open+0x2a>
 8007d2e:	e7eb      	b.n	8007d08 <shtp_open+0x14>
 8007d30:	4628      	mov	r0, r5
 8007d32:	602c      	str	r4, [r5, #0]
 8007d34:	e7f4      	b.n	8007d20 <shtp_open+0x2c>
 8007d36:	bf00      	nop
 8007d38:	200061e4 	.word	0x200061e4
 8007d3c:	200058d0 	.word	0x200058d0

08007d40 <shtp_setEventCallback>:
 8007d40:	e9c0 1201 	strd	r1, r2, [r0, #4]
 8007d44:	4770      	bx	lr

08007d46 <shtp_listenChan>:
 8007d46:	b510      	push	{r4, lr}
 8007d48:	1e4c      	subs	r4, r1, #1
 8007d4a:	2c06      	cmp	r4, #6
 8007d4c:	bf97      	itett	ls
 8007d4e:	240c      	movls	r4, #12
 8007d50:	f06f 0001 	mvnhi.w	r0, #1
 8007d54:	fb04 0001 	mlals	r0, r4, r1, r0
 8007d58:	f8c0 289c 	strls.w	r2, [r0, #2204]	; 0x89c
 8007d5c:	bf9c      	itt	ls
 8007d5e:	f8c0 38a0 	strls.w	r3, [r0, #2208]	; 0x8a0
 8007d62:	2000      	movls	r0, #0
 8007d64:	bd10      	pop	{r4, pc}

08007d66 <shtp_service>:
 8007d66:	e92d 47f3 	stmdb	sp!, {r0, r1, r4, r5, r6, r7, r8, r9, sl, lr}
 8007d6a:	2300      	movs	r3, #0
 8007d6c:	4604      	mov	r4, r0
 8007d6e:	6800      	ldr	r0, [r0, #0]
 8007d70:	f44f 6280 	mov.w	r2, #1024	; 0x400
 8007d74:	9301      	str	r3, [sp, #4]
 8007d76:	f504 6193 	add.w	r1, r4, #1176	; 0x498
 8007d7a:	6885      	ldr	r5, [r0, #8]
 8007d7c:	ab01      	add	r3, sp, #4
 8007d7e:	47a8      	blx	r5
 8007d80:	2800      	cmp	r0, #0
 8007d82:	dd0e      	ble.n	8007da2 <shtp_service+0x3c>
 8007d84:	b286      	uxth	r6, r0
 8007d86:	f8dd 9004 	ldr.w	r9, [sp, #4]
 8007d8a:	2e03      	cmp	r6, #3
 8007d8c:	d80c      	bhi.n	8007da8 <shtp_service+0x42>
 8007d8e:	f8d4 38fc 	ldr.w	r3, [r4, #2300]	; 0x8fc
 8007d92:	3301      	adds	r3, #1
 8007d94:	f8c4 38fc 	str.w	r3, [r4, #2300]	; 0x8fc
 8007d98:	6863      	ldr	r3, [r4, #4]
 8007d9a:	b113      	cbz	r3, 8007da2 <shtp_service+0x3c>
 8007d9c:	2101      	movs	r1, #1
 8007d9e:	68a0      	ldr	r0, [r4, #8]
 8007da0:	4798      	blx	r3
 8007da2:	b002      	add	sp, #8
 8007da4:	e8bd 87f0 	ldmia.w	sp!, {r4, r5, r6, r7, r8, r9, sl, pc}
 8007da8:	f894 749a 	ldrb.w	r7, [r4, #1178]	; 0x49a
 8007dac:	230c      	movs	r3, #12
 8007dae:	f894 a499 	ldrb.w	sl, [r4, #1177]	; 0x499
 8007db2:	fb03 4307 	mla	r3, r3, r7, r4
 8007db6:	f894 5498 	ldrb.w	r5, [r4, #1176]	; 0x498
 8007dba:	f894 849b 	ldrb.w	r8, [r4, #1179]	; 0x49b
 8007dbe:	f893 3899 	ldrb.w	r3, [r3, #2201]	; 0x899
 8007dc2:	eb05 250a 	add.w	r5, r5, sl, lsl #8
 8007dc6:	4543      	cmp	r3, r8
 8007dc8:	b2ad      	uxth	r5, r5
 8007dca:	d004      	beq.n	8007dd6 <shtp_service+0x70>
 8007dcc:	6863      	ldr	r3, [r4, #4]
 8007dce:	b113      	cbz	r3, 8007dd6 <shtp_service+0x70>
 8007dd0:	2106      	movs	r1, #6
 8007dd2:	68a0      	ldr	r0, [r4, #8]
 8007dd4:	4798      	blx	r3
 8007dd6:	f647 73fc 	movw	r3, #32764	; 0x7ffc
 8007dda:	421d      	tst	r5, r3
 8007ddc:	d0d7      	beq.n	8007d8e <shtp_service+0x28>
 8007dde:	2f07      	cmp	r7, #7
 8007de0:	d909      	bls.n	8007df6 <shtp_service+0x90>
 8007de2:	f8d4 38f8 	ldr.w	r3, [r4, #2296]	; 0x8f8
 8007de6:	3301      	adds	r3, #1
 8007de8:	f8c4 38f8 	str.w	r3, [r4, #2296]	; 0x8f8
 8007dec:	6863      	ldr	r3, [r4, #4]
 8007dee:	2b00      	cmp	r3, #0
 8007df0:	d0d7      	beq.n	8007da2 <shtp_service+0x3c>
 8007df2:	2103      	movs	r1, #3
 8007df4:	e7d3      	b.n	8007d9e <shtp_service+0x38>
 8007df6:	f8b4 208c 	ldrh.w	r2, [r4, #140]	; 0x8c
 8007dfa:	f3c5 050e 	ubfx	r5, r5, #0, #15
 8007dfe:	b312      	cbz	r2, 8007e46 <shtp_service+0xe0>
 8007e00:	f01a 0f80 	tst.w	sl, #128	; 0x80
 8007e04:	d00d      	beq.n	8007e22 <shtp_service+0xbc>
 8007e06:	f894 308e 	ldrb.w	r3, [r4, #142]	; 0x8e
 8007e0a:	42bb      	cmp	r3, r7
 8007e0c:	d109      	bne.n	8007e22 <shtp_service+0xbc>
 8007e0e:	230c      	movs	r3, #12
 8007e10:	fb03 4307 	mla	r3, r3, r7, r4
 8007e14:	f893 3899 	ldrb.w	r3, [r3, #2201]	; 0x899
 8007e18:	4543      	cmp	r3, r8
 8007e1a:	d102      	bne.n	8007e22 <shtp_service+0xbc>
 8007e1c:	1f2b      	subs	r3, r5, #4
 8007e1e:	4293      	cmp	r3, r2
 8007e20:	d011      	beq.n	8007e46 <shtp_service+0xe0>
 8007e22:	6863      	ldr	r3, [r4, #4]
 8007e24:	b113      	cbz	r3, 8007e2c <shtp_service+0xc6>
 8007e26:	2105      	movs	r1, #5
 8007e28:	68a0      	ldr	r0, [r4, #8]
 8007e2a:	4798      	blx	r3
 8007e2c:	2300      	movs	r3, #0
 8007e2e:	f8a4 308c 	strh.w	r3, [r4, #140]	; 0x8c
 8007e32:	f8d4 3904 	ldr.w	r3, [r4, #2308]	; 0x904
 8007e36:	3301      	adds	r3, #1
 8007e38:	f8c4 3904 	str.w	r3, [r4, #2308]	; 0x904
 8007e3c:	6863      	ldr	r3, [r4, #4]
 8007e3e:	b113      	cbz	r3, 8007e46 <shtp_service+0xe0>
 8007e40:	2107      	movs	r1, #7
 8007e42:	68a0      	ldr	r0, [r4, #8]
 8007e44:	4798      	blx	r3
 8007e46:	230c      	movs	r3, #12
 8007e48:	f108 0801 	add.w	r8, r8, #1
 8007e4c:	fb03 4307 	mla	r3, r3, r7, r4
 8007e50:	f883 8899 	strb.w	r8, [r3, #2201]	; 0x899
 8007e54:	f8b4 308c 	ldrh.w	r3, [r4, #140]	; 0x8c
 8007e58:	b993      	cbnz	r3, 8007e80 <shtp_service+0x11a>
 8007e5a:	f5b5 6f80 	cmp.w	r5, #1024	; 0x400
 8007e5e:	d909      	bls.n	8007e74 <shtp_service+0x10e>
 8007e60:	f8d4 3900 	ldr.w	r3, [r4, #2304]	; 0x900
 8007e64:	3301      	adds	r3, #1
 8007e66:	f8c4 3900 	str.w	r3, [r4, #2304]	; 0x900
 8007e6a:	6863      	ldr	r3, [r4, #4]
 8007e6c:	2b00      	cmp	r3, #0
 8007e6e:	d098      	beq.n	8007da2 <shtp_service+0x3c>
 8007e70:	2102      	movs	r1, #2
 8007e72:	e794      	b.n	8007d9e <shtp_service+0x38>
 8007e74:	f8c4 9494 	str.w	r9, [r4, #1172]	; 0x494
 8007e78:	f8a4 3490 	strh.w	r3, [r4, #1168]	; 0x490
 8007e7c:	f884 708e 	strb.w	r7, [r4, #142]	; 0x8e
 8007e80:	42ae      	cmp	r6, r5
 8007e82:	f8b4 0490 	ldrh.w	r0, [r4, #1168]	; 0x490
 8007e86:	f104 088f 	add.w	r8, r4, #143	; 0x8f
 8007e8a:	f204 419c 	addw	r1, r4, #1180	; 0x49c
 8007e8e:	bf28      	it	cs
 8007e90:	462e      	movcs	r6, r5
 8007e92:	4440      	add	r0, r8
 8007e94:	1f32      	subs	r2, r6, #4
 8007e96:	1bad      	subs	r5, r5, r6
 8007e98:	f000 fb53 	bl	8008542 <memcpy>
 8007e9c:	f8b4 2490 	ldrh.w	r2, [r4, #1168]	; 0x490
 8007ea0:	b2ad      	uxth	r5, r5
 8007ea2:	3a04      	subs	r2, #4
 8007ea4:	f8a4 508c 	strh.w	r5, [r4, #140]	; 0x8c
 8007ea8:	4432      	add	r2, r6
 8007eaa:	b292      	uxth	r2, r2
 8007eac:	f8a4 2490 	strh.w	r2, [r4, #1168]	; 0x490
 8007eb0:	2d00      	cmp	r5, #0
 8007eb2:	f47f af76 	bne.w	8007da2 <shtp_service+0x3c>
 8007eb6:	230c      	movs	r3, #12
 8007eb8:	fb03 4007 	mla	r0, r3, r7, r4
 8007ebc:	f8d0 589c 	ldr.w	r5, [r0, #2204]	; 0x89c
 8007ec0:	2d00      	cmp	r5, #0
 8007ec2:	f43f af6e 	beq.w	8007da2 <shtp_service+0x3c>
 8007ec6:	f8d4 3494 	ldr.w	r3, [r4, #1172]	; 0x494
 8007eca:	4641      	mov	r1, r8
 8007ecc:	f8d0 08a0 	ldr.w	r0, [r0, #2208]	; 0x8a0
 8007ed0:	47a8      	blx	r5
 8007ed2:	e766      	b.n	8007da2 <shtp_service+0x3c>

08007ed4 <shtp_send>:
 8007ed4:	2b80      	cmp	r3, #128	; 0x80
 8007ed6:	e92d 4ff8 	stmdb	sp!, {r3, r4, r5, r6, r7, r8, r9, sl, fp, lr}
 8007eda:	4604      	mov	r4, r0
 8007edc:	460d      	mov	r5, r1
 8007ede:	4691      	mov	r9, r2
 8007ee0:	469a      	mov	sl, r3
 8007ee2:	d908      	bls.n	8007ef6 <shtp_send+0x22>
 8007ee4:	f8d0 3910 	ldr.w	r3, [r0, #2320]	; 0x910
 8007ee8:	3301      	adds	r3, #1
 8007eea:	f8c0 3910 	str.w	r3, [r0, #2320]	; 0x910
 8007eee:	f06f 0001 	mvn.w	r0, #1
 8007ef2:	e8bd 8ff8 	ldmia.w	sp!, {r3, r4, r5, r6, r7, r8, r9, sl, fp, pc}
 8007ef6:	2907      	cmp	r1, #7
 8007ef8:	d93e      	bls.n	8007f78 <shtp_send+0xa4>
 8007efa:	f8d0 3908 	ldr.w	r3, [r0, #2312]	; 0x908
 8007efe:	3301      	adds	r3, #1
 8007f00:	f8c0 3908 	str.w	r3, [r0, #2312]	; 0x908
 8007f04:	e7f3      	b.n	8007eee <shtp_send+0x1a>
 8007f06:	f1ba 0f7c 	cmp.w	sl, #124	; 0x7c
 8007f0a:	46d3      	mov	fp, sl
 8007f0c:	ea4f 13c3 	mov.w	r3, r3, lsl #7
 8007f10:	73a5      	strb	r5, [r4, #14]
 8007f12:	bf28      	it	cs
 8007f14:	f04f 0b7c 	movcs.w	fp, #124	; 0x7c
 8007f18:	eb09 0107 	add.w	r1, r9, r7
 8007f1c:	7363      	strb	r3, [r4, #13]
 8007f1e:	f104 0010 	add.w	r0, r4, #16
 8007f22:	f10b 0604 	add.w	r6, fp, #4
 8007f26:	ebaa 0a0b 	sub.w	sl, sl, fp
 8007f2a:	b2b6      	uxth	r6, r6
 8007f2c:	fa1f fa8a 	uxth.w	sl, sl
 8007f30:	7326      	strb	r6, [r4, #12]
 8007f32:	f898 3898 	ldrb.w	r3, [r8, #2200]	; 0x898
 8007f36:	1c5a      	adds	r2, r3, #1
 8007f38:	f888 2898 	strb.w	r2, [r8, #2200]	; 0x898
 8007f3c:	465a      	mov	r2, fp
 8007f3e:	44bb      	add	fp, r7
 8007f40:	73e3      	strb	r3, [r4, #15]
 8007f42:	f000 fafe 	bl	8008542 <memcpy>
 8007f46:	fa1f f78b 	uxth.w	r7, fp
 8007f4a:	46a3      	mov	fp, r4
 8007f4c:	f85b 0b0c 	ldr.w	r0, [fp], #12
 8007f50:	68c3      	ldr	r3, [r0, #12]
 8007f52:	4632      	mov	r2, r6
 8007f54:	4659      	mov	r1, fp
 8007f56:	4798      	blx	r3
 8007f58:	2800      	cmp	r0, #0
 8007f5a:	d008      	beq.n	8007f6e <shtp_send+0x9a>
 8007f5c:	f04f 0301 	mov.w	r3, #1
 8007f60:	da10      	bge.n	8007f84 <shtp_send+0xb0>
 8007f62:	f8d4 390c 	ldr.w	r3, [r4, #2316]	; 0x90c
 8007f66:	3301      	adds	r3, #1
 8007f68:	f8c4 390c 	str.w	r3, [r4, #2316]	; 0x90c
 8007f6c:	e7c1      	b.n	8007ef2 <shtp_send+0x1e>
 8007f6e:	4620      	mov	r0, r4
 8007f70:	f7ff fef9 	bl	8007d66 <shtp_service>
 8007f74:	6820      	ldr	r0, [r4, #0]
 8007f76:	e7eb      	b.n	8007f50 <shtp_send+0x7c>
 8007f78:	2700      	movs	r7, #0
 8007f7a:	f04f 080c 	mov.w	r8, #12
 8007f7e:	463b      	mov	r3, r7
 8007f80:	fb08 0801 	mla	r8, r8, r1, r0
 8007f84:	f1ba 0f00 	cmp.w	sl, #0
 8007f88:	d1bd      	bne.n	8007f06 <shtp_send+0x32>
 8007f8a:	4650      	mov	r0, sl
 8007f8c:	e7b1      	b.n	8007ef2 <shtp_send+0x1e>
	...

08007f90 <std>:
 8007f90:	2300      	movs	r3, #0
 8007f92:	b510      	push	{r4, lr}
 8007f94:	4604      	mov	r4, r0
 8007f96:	e9c0 3300 	strd	r3, r3, [r0]
 8007f9a:	e9c0 3304 	strd	r3, r3, [r0, #16]
 8007f9e:	6083      	str	r3, [r0, #8]
 8007fa0:	8181      	strh	r1, [r0, #12]
 8007fa2:	6643      	str	r3, [r0, #100]	; 0x64
 8007fa4:	81c2      	strh	r2, [r0, #14]
 8007fa6:	6183      	str	r3, [r0, #24]
 8007fa8:	4619      	mov	r1, r3
 8007faa:	2208      	movs	r2, #8
 8007fac:	305c      	adds	r0, #92	; 0x5c
 8007fae:	f000 f9f7 	bl	80083a0 <memset>
 8007fb2:	4b0d      	ldr	r3, [pc, #52]	; (8007fe8 <std+0x58>)
 8007fb4:	6263      	str	r3, [r4, #36]	; 0x24
 8007fb6:	4b0d      	ldr	r3, [pc, #52]	; (8007fec <std+0x5c>)
 8007fb8:	62a3      	str	r3, [r4, #40]	; 0x28
 8007fba:	4b0d      	ldr	r3, [pc, #52]	; (8007ff0 <std+0x60>)
 8007fbc:	62e3      	str	r3, [r4, #44]	; 0x2c
 8007fbe:	4b0d      	ldr	r3, [pc, #52]	; (8007ff4 <std+0x64>)
 8007fc0:	6323      	str	r3, [r4, #48]	; 0x30
 8007fc2:	4b0d      	ldr	r3, [pc, #52]	; (8007ff8 <std+0x68>)
 8007fc4:	6224      	str	r4, [r4, #32]
 8007fc6:	429c      	cmp	r4, r3
 8007fc8:	d006      	beq.n	8007fd8 <std+0x48>
 8007fca:	f103 0268 	add.w	r2, r3, #104	; 0x68
 8007fce:	4294      	cmp	r4, r2
 8007fd0:	d002      	beq.n	8007fd8 <std+0x48>
 8007fd2:	33d0      	adds	r3, #208	; 0xd0
 8007fd4:	429c      	cmp	r4, r3
 8007fd6:	d105      	bne.n	8007fe4 <std+0x54>
 8007fd8:	f104 0058 	add.w	r0, r4, #88	; 0x58
 8007fdc:	e8bd 4010 	ldmia.w	sp!, {r4, lr}
 8007fe0:	f000 baac 	b.w	800853c <__retarget_lock_init_recursive>
 8007fe4:	bd10      	pop	{r4, pc}
 8007fe6:	bf00      	nop
 8007fe8:	080081f1 	.word	0x080081f1
 8007fec:	08008213 	.word	0x08008213
 8007ff0:	0800824b 	.word	0x0800824b
 8007ff4:	0800826f 	.word	0x0800826f
 8007ff8:	200061e8 	.word	0x200061e8

08007ffc <stdio_exit_handler>:
 8007ffc:	4a02      	ldr	r2, [pc, #8]	; (8008008 <stdio_exit_handler+0xc>)
 8007ffe:	4903      	ldr	r1, [pc, #12]	; (800800c <stdio_exit_handler+0x10>)
 8008000:	4803      	ldr	r0, [pc, #12]	; (8008010 <stdio_exit_handler+0x14>)
 8008002:	f000 b869 	b.w	80080d8 <_fwalk_sglue>
 8008006:	bf00      	nop
 8008008:	200000f0 	.word	0x200000f0
 800800c:	08008e05 	.word	0x08008e05
 8008010:	200000fc 	.word	0x200000fc

08008014 <cleanup_stdio>:
 8008014:	6841      	ldr	r1, [r0, #4]
 8008016:	4b0c      	ldr	r3, [pc, #48]	; (8008048 <cleanup_stdio+0x34>)
 8008018:	4299      	cmp	r1, r3
 800801a:	b510      	push	{r4, lr}
 800801c:	4604      	mov	r4, r0
 800801e:	d001      	beq.n	8008024 <cleanup_stdio+0x10>
 8008020:	f000 fef0 	bl	8008e04 <_fflush_r>
 8008024:	68a1      	ldr	r1, [r4, #8]
 8008026:	4b09      	ldr	r3, [pc, #36]	; (800804c <cleanup_stdio+0x38>)
 8008028:	4299      	cmp	r1, r3
 800802a:	d002      	beq.n	8008032 <cleanup_stdio+0x1e>
 800802c:	4620      	mov	r0, r4
 800802e:	f000 fee9 	bl	8008e04 <_fflush_r>
 8008032:	68e1      	ldr	r1, [r4, #12]
 8008034:	4b06      	ldr	r3, [pc, #24]	; (8008050 <cleanup_stdio+0x3c>)
 8008036:	4299      	cmp	r1, r3
 8008038:	d004      	beq.n	8008044 <cleanup_stdio+0x30>
 800803a:	4620      	mov	r0, r4
 800803c:	e8bd 4010 	ldmia.w	sp!, {r4, lr}
 8008040:	f000 bee0 	b.w	8008e04 <_fflush_r>
 8008044:	bd10      	pop	{r4, pc}
 8008046:	bf00      	nop
 8008048:	200061e8 	.word	0x200061e8
 800804c:	20006250 	.word	0x20006250
 8008050:	200062b8 	.word	0x200062b8

08008054 <global_stdio_init.part.0>:
 8008054:	b510      	push	{r4, lr}
 8008056:	4b0b      	ldr	r3, [pc, #44]	; (8008084 <global_stdio_init.part.0+0x30>)
 8008058:	4c0b      	ldr	r4, [pc, #44]	; (8008088 <global_stdio_init.part.0+0x34>)
 800805a:	4a0c      	ldr	r2, [pc, #48]	; (800808c <global_stdio_init.part.0+0x38>)
 800805c:	601a      	str	r2, [r3, #0]
 800805e:	4620      	mov	r0, r4
 8008060:	2200      	movs	r2, #0
 8008062:	2104      	movs	r1, #4
 8008064:	f7ff ff94 	bl	8007f90 <std>
 8008068:	f104 0068 	add.w	r0, r4, #104	; 0x68
 800806c:	2201      	movs	r2, #1
 800806e:	2109      	movs	r1, #9
 8008070:	f7ff ff8e 	bl	8007f90 <std>
 8008074:	f104 00d0 	add.w	r0, r4, #208	; 0xd0
 8008078:	2202      	movs	r2, #2
 800807a:	e8bd 4010 	ldmia.w	sp!, {r4, lr}
 800807e:	2112      	movs	r1, #18
 8008080:	f7ff bf86 	b.w	8007f90 <std>
 8008084:	20006320 	.word	0x20006320
 8008088:	200061e8 	.word	0x200061e8
 800808c:	08007ffd 	.word	0x08007ffd

08008090 <__sfp_lock_acquire>:
 8008090:	4801      	ldr	r0, [pc, #4]	; (8008098 <__sfp_lock_acquire+0x8>)
 8008092:	f000 ba54 	b.w	800853e <__retarget_lock_acquire_recursive>
 8008096:	bf00      	nop
 8008098:	20006329 	.word	0x20006329

0800809c <__sfp_lock_release>:
 800809c:	4801      	ldr	r0, [pc, #4]	; (80080a4 <__sfp_lock_release+0x8>)
 800809e:	f000 ba4f 	b.w	8008540 <__retarget_lock_release_recursive>
 80080a2:	bf00      	nop
 80080a4:	20006329 	.word	0x20006329

080080a8 <__sinit>:
 80080a8:	b510      	push	{r4, lr}
 80080aa:	4604      	mov	r4, r0
 80080ac:	f7ff fff0 	bl	8008090 <__sfp_lock_acquire>
 80080b0:	6a23      	ldr	r3, [r4, #32]
 80080b2:	b11b      	cbz	r3, 80080bc <__sinit+0x14>
 80080b4:	e8bd 4010 	ldmia.w	sp!, {r4, lr}
 80080b8:	f7ff bff0 	b.w	800809c <__sfp_lock_release>
 80080bc:	4b04      	ldr	r3, [pc, #16]	; (80080d0 <__sinit+0x28>)
 80080be:	6223      	str	r3, [r4, #32]
 80080c0:	4b04      	ldr	r3, [pc, #16]	; (80080d4 <__sinit+0x2c>)
 80080c2:	681b      	ldr	r3, [r3, #0]
 80080c4:	2b00      	cmp	r3, #0
 80080c6:	d1f5      	bne.n	80080b4 <__sinit+0xc>
 80080c8:	f7ff ffc4 	bl	8008054 <global_stdio_init.part.0>
 80080cc:	e7f2      	b.n	80080b4 <__sinit+0xc>
 80080ce:	bf00      	nop
 80080d0:	08008015 	.word	0x08008015
 80080d4:	20006320 	.word	0x20006320

080080d8 <_fwalk_sglue>:
 80080d8:	e92d 43f8 	stmdb	sp!, {r3, r4, r5, r6, r7, r8, r9, lr}
 80080dc:	4607      	mov	r7, r0
 80080de:	4688      	mov	r8, r1
 80080e0:	4614      	mov	r4, r2
 80080e2:	2600      	movs	r6, #0
 80080e4:	e9d4 9501 	ldrd	r9, r5, [r4, #4]
 80080e8:	f1b9 0901 	subs.w	r9, r9, #1
 80080ec:	d505      	bpl.n	80080fa <_fwalk_sglue+0x22>
 80080ee:	6824      	ldr	r4, [r4, #0]
 80080f0:	2c00      	cmp	r4, #0
 80080f2:	d1f7      	bne.n	80080e4 <_fwalk_sglue+0xc>
 80080f4:	4630      	mov	r0, r6
 80080f6:	e8bd 83f8 	ldmia.w	sp!, {r3, r4, r5, r6, r7, r8, r9, pc}
 80080fa:	89ab      	ldrh	r3, [r5, #12]
 80080fc:	2b01      	cmp	r3, #1
 80080fe:	d907      	bls.n	8008110 <_fwalk_sglue+0x38>
 8008100:	f9b5 300e 	ldrsh.w	r3, [r5, #14]
 8008104:	3301      	adds	r3, #1
 8008106:	d003      	beq.n	8008110 <_fwalk_sglue+0x38>
 8008108:	4629      	mov	r1, r5
 800810a:	4638      	mov	r0, r7
 800810c:	47c0      	blx	r8
 800810e:	4306      	orrs	r6, r0
 8008110:	3568      	adds	r5, #104	; 0x68
 8008112:	e7e9      	b.n	80080e8 <_fwalk_sglue+0x10>

08008114 <iprintf>:
 8008114:	b40f      	push	{r0, r1, r2, r3}
 8008116:	b507      	push	{r0, r1, r2, lr}
 8008118:	4906      	ldr	r1, [pc, #24]	; (8008134 <iprintf+0x20>)
 800811a:	ab04      	add	r3, sp, #16
 800811c:	6808      	ldr	r0, [r1, #0]
 800811e:	f853 2b04 	ldr.w	r2, [r3], #4
 8008122:	6881      	ldr	r1, [r0, #8]
 8008124:	9301      	str	r3, [sp, #4]
 8008126:	f000 fb3d 	bl	80087a4 <_vfiprintf_r>
 800812a:	b003      	add	sp, #12
 800812c:	f85d eb04 	ldr.w	lr, [sp], #4
 8008130:	b004      	add	sp, #16
 8008132:	4770      	bx	lr
 8008134:	20000148 	.word	0x20000148

08008138 <_puts_r>:
 8008138:	6a03      	ldr	r3, [r0, #32]
 800813a:	b570      	push	{r4, r5, r6, lr}
 800813c:	6884      	ldr	r4, [r0, #8]
 800813e:	4605      	mov	r5, r0
 8008140:	460e      	mov	r6, r1
 8008142:	b90b      	cbnz	r3, 8008148 <_puts_r+0x10>
 8008144:	f7ff ffb0 	bl	80080a8 <__sinit>
 8008148:	6e63      	ldr	r3, [r4, #100]	; 0x64
 800814a:	07db      	lsls	r3, r3, #31
 800814c:	d405      	bmi.n	800815a <_puts_r+0x22>
 800814e:	89a3      	ldrh	r3, [r4, #12]
 8008150:	0598      	lsls	r0, r3, #22
 8008152:	d402      	bmi.n	800815a <_puts_r+0x22>
 8008154:	6da0      	ldr	r0, [r4, #88]	; 0x58
 8008156:	f000 f9f2 	bl	800853e <__retarget_lock_acquire_recursive>
 800815a:	89a3      	ldrh	r3, [r4, #12]
 800815c:	0719      	lsls	r1, r3, #28
 800815e:	d513      	bpl.n	8008188 <_puts_r+0x50>
 8008160:	6923      	ldr	r3, [r4, #16]
 8008162:	b18b      	cbz	r3, 8008188 <_puts_r+0x50>
 8008164:	3e01      	subs	r6, #1
 8008166:	68a3      	ldr	r3, [r4, #8]
 8008168:	f816 1f01 	ldrb.w	r1, [r6, #1]!
 800816c:	3b01      	subs	r3, #1
 800816e:	60a3      	str	r3, [r4, #8]
 8008170:	b9e9      	cbnz	r1, 80081ae <_puts_r+0x76>
 8008172:	2b00      	cmp	r3, #0
 8008174:	da2e      	bge.n	80081d4 <_puts_r+0x9c>
 8008176:	4622      	mov	r2, r4
 8008178:	210a      	movs	r1, #10
 800817a:	4628      	mov	r0, r5
 800817c:	f000 f87b 	bl	8008276 <__swbuf_r>
 8008180:	3001      	adds	r0, #1
 8008182:	d007      	beq.n	8008194 <_puts_r+0x5c>
 8008184:	250a      	movs	r5, #10
 8008186:	e007      	b.n	8008198 <_puts_r+0x60>
 8008188:	4621      	mov	r1, r4
 800818a:	4628      	mov	r0, r5
 800818c:	f000 f8b0 	bl	80082f0 <__swsetup_r>
 8008190:	2800      	cmp	r0, #0
 8008192:	d0e7      	beq.n	8008164 <_puts_r+0x2c>
 8008194:	f04f 35ff 	mov.w	r5, #4294967295
 8008198:	6e63      	ldr	r3, [r4, #100]	; 0x64
 800819a:	07da      	lsls	r2, r3, #31
 800819c:	d405      	bmi.n	80081aa <_puts_r+0x72>
 800819e:	89a3      	ldrh	r3, [r4, #12]
 80081a0:	059b      	lsls	r3, r3, #22
 80081a2:	d402      	bmi.n	80081aa <_puts_r+0x72>
 80081a4:	6da0      	ldr	r0, [r4, #88]	; 0x58
 80081a6:	f000 f9cb 	bl	8008540 <__retarget_lock_release_recursive>
 80081aa:	4628      	mov	r0, r5
 80081ac:	bd70      	pop	{r4, r5, r6, pc}
 80081ae:	2b00      	cmp	r3, #0
 80081b0:	da04      	bge.n	80081bc <_puts_r+0x84>
 80081b2:	69a2      	ldr	r2, [r4, #24]
 80081b4:	429a      	cmp	r2, r3
 80081b6:	dc06      	bgt.n	80081c6 <_puts_r+0x8e>
 80081b8:	290a      	cmp	r1, #10
 80081ba:	d004      	beq.n	80081c6 <_puts_r+0x8e>
 80081bc:	6823      	ldr	r3, [r4, #0]
 80081be:	1c5a      	adds	r2, r3, #1
 80081c0:	6022      	str	r2, [r4, #0]
 80081c2:	7019      	strb	r1, [r3, #0]
 80081c4:	e7cf      	b.n	8008166 <_puts_r+0x2e>
 80081c6:	4622      	mov	r2, r4
 80081c8:	4628      	mov	r0, r5
 80081ca:	f000 f854 	bl	8008276 <__swbuf_r>
 80081ce:	3001      	adds	r0, #1
 80081d0:	d1c9      	bne.n	8008166 <_puts_r+0x2e>
 80081d2:	e7df      	b.n	8008194 <_puts_r+0x5c>
 80081d4:	6823      	ldr	r3, [r4, #0]
 80081d6:	250a      	movs	r5, #10
 80081d8:	1c5a      	adds	r2, r3, #1
 80081da:	6022      	str	r2, [r4, #0]
 80081dc:	701d      	strb	r5, [r3, #0]
 80081de:	e7db      	b.n	8008198 <_puts_r+0x60>

080081e0 <puts>:
 80081e0:	4b02      	ldr	r3, [pc, #8]	; (80081ec <puts+0xc>)
 80081e2:	4601      	mov	r1, r0
 80081e4:	6818      	ldr	r0, [r3, #0]
 80081e6:	f7ff bfa7 	b.w	8008138 <_puts_r>
 80081ea:	bf00      	nop
 80081ec:	20000148 	.word	0x20000148

080081f0 <__sread>:
 80081f0:	b510      	push	{r4, lr}
 80081f2:	460c      	mov	r4, r1
 80081f4:	f9b1 100e 	ldrsh.w	r1, [r1, #14]
 80081f8:	f000 f952 	bl	80084a0 <_read_r>
 80081fc:	2800      	cmp	r0, #0
 80081fe:	bfab      	itete	ge
 8008200:	6d63      	ldrge	r3, [r4, #84]	; 0x54
 8008202:	89a3      	ldrhlt	r3, [r4, #12]
 8008204:	181b      	addge	r3, r3, r0
 8008206:	f423 5380 	biclt.w	r3, r3, #4096	; 0x1000
 800820a:	bfac      	ite	ge
 800820c:	6563      	strge	r3, [r4, #84]	; 0x54
 800820e:	81a3      	strhlt	r3, [r4, #12]
 8008210:	bd10      	pop	{r4, pc}

08008212 <__swrite>:
 8008212:	e92d 41f0 	stmdb	sp!, {r4, r5, r6, r7, r8, lr}
 8008216:	461f      	mov	r7, r3
 8008218:	898b      	ldrh	r3, [r1, #12]
 800821a:	05db      	lsls	r3, r3, #23
 800821c:	4605      	mov	r5, r0
 800821e:	460c      	mov	r4, r1
 8008220:	4616      	mov	r6, r2
 8008222:	d505      	bpl.n	8008230 <__swrite+0x1e>
 8008224:	f9b1 100e 	ldrsh.w	r1, [r1, #14]
 8008228:	2302      	movs	r3, #2
 800822a:	2200      	movs	r2, #0
 800822c:	f000 f926 	bl	800847c <_lseek_r>
 8008230:	89a3      	ldrh	r3, [r4, #12]
 8008232:	f9b4 100e 	ldrsh.w	r1, [r4, #14]
 8008236:	f423 5380 	bic.w	r3, r3, #4096	; 0x1000
 800823a:	81a3      	strh	r3, [r4, #12]
 800823c:	4632      	mov	r2, r6
 800823e:	463b      	mov	r3, r7
 8008240:	4628      	mov	r0, r5
 8008242:	e8bd 41f0 	ldmia.w	sp!, {r4, r5, r6, r7, r8, lr}
 8008246:	f000 b93d 	b.w	80084c4 <_write_r>

0800824a <__sseek>:
 800824a:	b510      	push	{r4, lr}
 800824c:	460c      	mov	r4, r1
 800824e:	f9b1 100e 	ldrsh.w	r1, [r1, #14]
 8008252:	f000 f913 	bl	800847c <_lseek_r>
 8008256:	1c43      	adds	r3, r0, #1
 8008258:	89a3      	ldrh	r3, [r4, #12]
 800825a:	bf15      	itete	ne
 800825c:	6560      	strne	r0, [r4, #84]	; 0x54
 800825e:	f423 5380 	biceq.w	r3, r3, #4096	; 0x1000
 8008262:	f443 5380 	orrne.w	r3, r3, #4096	; 0x1000
 8008266:	81a3      	strheq	r3, [r4, #12]
 8008268:	bf18      	it	ne
 800826a:	81a3      	strhne	r3, [r4, #12]
 800826c:	bd10      	pop	{r4, pc}

0800826e <__sclose>:
 800826e:	f9b1 100e 	ldrsh.w	r1, [r1, #14]
 8008272:	f000 b89d 	b.w	80083b0 <_close_r>

08008276 <__swbuf_r>:
 8008276:	b5f8      	push	{r3, r4, r5, r6, r7, lr}
 8008278:	460e      	mov	r6, r1
 800827a:	4614      	mov	r4, r2
 800827c:	4605      	mov	r5, r0
 800827e:	b118      	cbz	r0, 8008288 <__swbuf_r+0x12>
 8008280:	6a03      	ldr	r3, [r0, #32]
 8008282:	b90b      	cbnz	r3, 8008288 <__swbuf_r+0x12>
 8008284:	f7ff ff10 	bl	80080a8 <__sinit>
 8008288:	69a3      	ldr	r3, [r4, #24]
 800828a:	60a3      	str	r3, [r4, #8]
 800828c:	89a3      	ldrh	r3, [r4, #12]
 800828e:	071a      	lsls	r2, r3, #28
 8008290:	d525      	bpl.n	80082de <__swbuf_r+0x68>
 8008292:	6923      	ldr	r3, [r4, #16]
 8008294:	b31b      	cbz	r3, 80082de <__swbuf_r+0x68>
 8008296:	6823      	ldr	r3, [r4, #0]
 8008298:	6922      	ldr	r2, [r4, #16]
 800829a:	1a98      	subs	r0, r3, r2
 800829c:	6963      	ldr	r3, [r4, #20]
 800829e:	b2f6      	uxtb	r6, r6
 80082a0:	4283      	cmp	r3, r0
 80082a2:	4637      	mov	r7, r6
 80082a4:	dc04      	bgt.n	80082b0 <__swbuf_r+0x3a>
 80082a6:	4621      	mov	r1, r4
 80082a8:	4628      	mov	r0, r5
 80082aa:	f000 fdab 	bl	8008e04 <_fflush_r>
 80082ae:	b9e0      	cbnz	r0, 80082ea <__swbuf_r+0x74>
 80082b0:	68a3      	ldr	r3, [r4, #8]
 80082b2:	3b01      	subs	r3, #1
 80082b4:	60a3      	str	r3, [r4, #8]
 80082b6:	6823      	ldr	r3, [r4, #0]
 80082b8:	1c5a      	adds	r2, r3, #1
 80082ba:	6022      	str	r2, [r4, #0]
 80082bc:	701e      	strb	r6, [r3, #0]
 80082be:	6962      	ldr	r2, [r4, #20]
 80082c0:	1c43      	adds	r3, r0, #1
 80082c2:	429a      	cmp	r2, r3
 80082c4:	d004      	beq.n	80082d0 <__swbuf_r+0x5a>
 80082c6:	89a3      	ldrh	r3, [r4, #12]
 80082c8:	07db      	lsls	r3, r3, #31
 80082ca:	d506      	bpl.n	80082da <__swbuf_r+0x64>
 80082cc:	2e0a      	cmp	r6, #10
 80082ce:	d104      	bne.n	80082da <__swbuf_r+0x64>
 80082d0:	4621      	mov	r1, r4
 80082d2:	4628      	mov	r0, r5
 80082d4:	f000 fd96 	bl	8008e04 <_fflush_r>
 80082d8:	b938      	cbnz	r0, 80082ea <__swbuf_r+0x74>
 80082da:	4638      	mov	r0, r7
 80082dc:	bdf8      	pop	{r3, r4, r5, r6, r7, pc}
 80082de:	4621      	mov	r1, r4
 80082e0:	4628      	mov	r0, r5
 80082e2:	f000 f805 	bl	80082f0 <__swsetup_r>
 80082e6:	2800      	cmp	r0, #0
 80082e8:	d0d5      	beq.n	8008296 <__swbuf_r+0x20>
 80082ea:	f04f 37ff 	mov.w	r7, #4294967295
 80082ee:	e7f4      	b.n	80082da <__swbuf_r+0x64>

080082f0 <__swsetup_r>:
 80082f0:	b538      	push	{r3, r4, r5, lr}
 80082f2:	4b2a      	ldr	r3, [pc, #168]	; (800839c <__swsetup_r+0xac>)
 80082f4:	4605      	mov	r5, r0
 80082f6:	6818      	ldr	r0, [r3, #0]
 80082f8:	460c      	mov	r4, r1
 80082fa:	b118      	cbz	r0, 8008304 <__swsetup_r+0x14>
 80082fc:	6a03      	ldr	r3, [r0, #32]
 80082fe:	b90b      	cbnz	r3, 8008304 <__swsetup_r+0x14>
 8008300:	f7ff fed2 	bl	80080a8 <__sinit>
 8008304:	89a3      	ldrh	r3, [r4, #12]
 8008306:	f9b4 200c 	ldrsh.w	r2, [r4, #12]
 800830a:	0718      	lsls	r0, r3, #28
 800830c:	d422      	bmi.n	8008354 <__swsetup_r+0x64>
 800830e:	06d9      	lsls	r1, r3, #27
 8008310:	d407      	bmi.n	8008322 <__swsetup_r+0x32>
 8008312:	2309      	movs	r3, #9
 8008314:	602b      	str	r3, [r5, #0]
 8008316:	f042 0340 	orr.w	r3, r2, #64	; 0x40
 800831a:	81a3      	strh	r3, [r4, #12]
 800831c:	f04f 30ff 	mov.w	r0, #4294967295
 8008320:	e034      	b.n	800838c <__swsetup_r+0x9c>
 8008322:	0758      	lsls	r0, r3, #29
 8008324:	d512      	bpl.n	800834c <__swsetup_r+0x5c>
 8008326:	6b61      	ldr	r1, [r4, #52]	; 0x34
 8008328:	b141      	cbz	r1, 800833c <__swsetup_r+0x4c>
 800832a:	f104 0344 	add.w	r3, r4, #68	; 0x44
 800832e:	4299      	cmp	r1, r3
 8008330:	d002      	beq.n	8008338 <__swsetup_r+0x48>
 8008332:	4628      	mov	r0, r5
 8008334:	f000 f914 	bl	8008560 <_free_r>
 8008338:	2300      	movs	r3, #0
 800833a:	6363      	str	r3, [r4, #52]	; 0x34
 800833c:	89a3      	ldrh	r3, [r4, #12]
 800833e:	f023 0324 	bic.w	r3, r3, #36	; 0x24
 8008342:	81a3      	strh	r3, [r4, #12]
 8008344:	2300      	movs	r3, #0
 8008346:	6063      	str	r3, [r4, #4]
 8008348:	6923      	ldr	r3, [r4, #16]
 800834a:	6023      	str	r3, [r4, #0]
 800834c:	89a3      	ldrh	r3, [r4, #12]
 800834e:	f043 0308 	orr.w	r3, r3, #8
 8008352:	81a3      	strh	r3, [r4, #12]
 8008354:	6923      	ldr	r3, [r4, #16]
 8008356:	b94b      	cbnz	r3, 800836c <__swsetup_r+0x7c>
 8008358:	89a3      	ldrh	r3, [r4, #12]
 800835a:	f403 7320 	and.w	r3, r3, #640	; 0x280
 800835e:	f5b3 7f00 	cmp.w	r3, #512	; 0x200
 8008362:	d003      	beq.n	800836c <__swsetup_r+0x7c>
 8008364:	4621      	mov	r1, r4
 8008366:	4628      	mov	r0, r5
 8008368:	f000 fd9a 	bl	8008ea0 <__smakebuf_r>
 800836c:	89a0      	ldrh	r0, [r4, #12]
 800836e:	f9b4 200c 	ldrsh.w	r2, [r4, #12]
 8008372:	f010 0301 	ands.w	r3, r0, #1
 8008376:	d00a      	beq.n	800838e <__swsetup_r+0x9e>
 8008378:	2300      	movs	r3, #0
 800837a:	60a3      	str	r3, [r4, #8]
 800837c:	6963      	ldr	r3, [r4, #20]
 800837e:	425b      	negs	r3, r3
 8008380:	61a3      	str	r3, [r4, #24]
 8008382:	6923      	ldr	r3, [r4, #16]
 8008384:	b943      	cbnz	r3, 8008398 <__swsetup_r+0xa8>
 8008386:	f010 0080 	ands.w	r0, r0, #128	; 0x80
 800838a:	d1c4      	bne.n	8008316 <__swsetup_r+0x26>
 800838c:	bd38      	pop	{r3, r4, r5, pc}
 800838e:	0781      	lsls	r1, r0, #30
 8008390:	bf58      	it	pl
 8008392:	6963      	ldrpl	r3, [r4, #20]
 8008394:	60a3      	str	r3, [r4, #8]
 8008396:	e7f4      	b.n	8008382 <__swsetup_r+0x92>
 8008398:	2000      	movs	r0, #0
 800839a:	e7f7      	b.n	800838c <__swsetup_r+0x9c>
 800839c:	20000148 	.word	0x20000148

080083a0 <memset>:
 80083a0:	4402      	add	r2, r0
 80083a2:	4603      	mov	r3, r0
 80083a4:	4293      	cmp	r3, r2
 80083a6:	d100      	bne.n	80083aa <memset+0xa>
 80083a8:	4770      	bx	lr
 80083aa:	f803 1b01 	strb.w	r1, [r3], #1
 80083ae:	e7f9      	b.n	80083a4 <memset+0x4>

080083b0 <_close_r>:
 80083b0:	b538      	push	{r3, r4, r5, lr}
 80083b2:	4d06      	ldr	r5, [pc, #24]	; (80083cc <_close_r+0x1c>)
 80083b4:	2300      	movs	r3, #0
 80083b6:	4604      	mov	r4, r0
 80083b8:	4608      	mov	r0, r1
 80083ba:	602b      	str	r3, [r5, #0]
 80083bc:	f7f9 fb26 	bl	8001a0c <_close>
 80083c0:	1c43      	adds	r3, r0, #1
 80083c2:	d102      	bne.n	80083ca <_close_r+0x1a>
 80083c4:	682b      	ldr	r3, [r5, #0]
 80083c6:	b103      	cbz	r3, 80083ca <_close_r+0x1a>
 80083c8:	6023      	str	r3, [r4, #0]
 80083ca:	bd38      	pop	{r3, r4, r5, pc}
 80083cc:	20006324 	.word	0x20006324

080083d0 <_reclaim_reent>:
 80083d0:	4b29      	ldr	r3, [pc, #164]	; (8008478 <_reclaim_reent+0xa8>)
 80083d2:	681b      	ldr	r3, [r3, #0]
 80083d4:	4283      	cmp	r3, r0
 80083d6:	b570      	push	{r4, r5, r6, lr}
 80083d8:	4604      	mov	r4, r0
 80083da:	d04b      	beq.n	8008474 <_reclaim_reent+0xa4>
 80083dc:	69c3      	ldr	r3, [r0, #28]
 80083de:	b143      	cbz	r3, 80083f2 <_reclaim_reent+0x22>
 80083e0:	68db      	ldr	r3, [r3, #12]
 80083e2:	2b00      	cmp	r3, #0
 80083e4:	d144      	bne.n	8008470 <_reclaim_reent+0xa0>
 80083e6:	69e3      	ldr	r3, [r4, #28]
 80083e8:	6819      	ldr	r1, [r3, #0]
 80083ea:	b111      	cbz	r1, 80083f2 <_reclaim_reent+0x22>
 80083ec:	4620      	mov	r0, r4
 80083ee:	f000 f8b7 	bl	8008560 <_free_r>
 80083f2:	6961      	ldr	r1, [r4, #20]
 80083f4:	b111      	cbz	r1, 80083fc <_reclaim_reent+0x2c>
 80083f6:	4620      	mov	r0, r4
 80083f8:	f000 f8b2 	bl	8008560 <_free_r>
 80083fc:	69e1      	ldr	r1, [r4, #28]
 80083fe:	b111      	cbz	r1, 8008406 <_reclaim_reent+0x36>
 8008400:	4620      	mov	r0, r4
 8008402:	f000 f8ad 	bl	8008560 <_free_r>
 8008406:	6b21      	ldr	r1, [r4, #48]	; 0x30
 8008408:	b111      	cbz	r1, 8008410 <_reclaim_reent+0x40>
 800840a:	4620      	mov	r0, r4
 800840c:	f000 f8a8 	bl	8008560 <_free_r>
 8008410:	6b61      	ldr	r1, [r4, #52]	; 0x34
 8008412:	b111      	cbz	r1, 800841a <_reclaim_reent+0x4a>
 8008414:	4620      	mov	r0, r4
 8008416:	f000 f8a3 	bl	8008560 <_free_r>
 800841a:	6ba1      	ldr	r1, [r4, #56]	; 0x38
 800841c:	b111      	cbz	r1, 8008424 <_reclaim_reent+0x54>
 800841e:	4620      	mov	r0, r4
 8008420:	f000 f89e 	bl	8008560 <_free_r>
 8008424:	6ca1      	ldr	r1, [r4, #72]	; 0x48
 8008426:	b111      	cbz	r1, 800842e <_reclaim_reent+0x5e>
 8008428:	4620      	mov	r0, r4
 800842a:	f000 f899 	bl	8008560 <_free_r>
 800842e:	6c61      	ldr	r1, [r4, #68]	; 0x44
 8008430:	b111      	cbz	r1, 8008438 <_reclaim_reent+0x68>
 8008432:	4620      	mov	r0, r4
 8008434:	f000 f894 	bl	8008560 <_free_r>
 8008438:	6ae1      	ldr	r1, [r4, #44]	; 0x2c
 800843a:	b111      	cbz	r1, 8008442 <_reclaim_reent+0x72>
 800843c:	4620      	mov	r0, r4
 800843e:	f000 f88f 	bl	8008560 <_free_r>
 8008442:	6a23      	ldr	r3, [r4, #32]
 8008444:	b1b3      	cbz	r3, 8008474 <_reclaim_reent+0xa4>
 8008446:	4620      	mov	r0, r4
 8008448:	e8bd 4070 	ldmia.w	sp!, {r4, r5, r6, lr}
 800844c:	4718      	bx	r3
 800844e:	5949      	ldr	r1, [r1, r5]
 8008450:	b941      	cbnz	r1, 8008464 <_reclaim_reent+0x94>
 8008452:	3504      	adds	r5, #4
 8008454:	69e3      	ldr	r3, [r4, #28]
 8008456:	2d80      	cmp	r5, #128	; 0x80
 8008458:	68d9      	ldr	r1, [r3, #12]
 800845a:	d1f8      	bne.n	800844e <_reclaim_reent+0x7e>
 800845c:	4620      	mov	r0, r4
 800845e:	f000 f87f 	bl	8008560 <_free_r>
 8008462:	e7c0      	b.n	80083e6 <_reclaim_reent+0x16>
 8008464:	680e      	ldr	r6, [r1, #0]
 8008466:	4620      	mov	r0, r4
 8008468:	f000 f87a 	bl	8008560 <_free_r>
 800846c:	4631      	mov	r1, r6
 800846e:	e7ef      	b.n	8008450 <_reclaim_reent+0x80>
 8008470:	2500      	movs	r5, #0
 8008472:	e7ef      	b.n	8008454 <_reclaim_reent+0x84>
 8008474:	bd70      	pop	{r4, r5, r6, pc}
 8008476:	bf00      	nop
 8008478:	20000148 	.word	0x20000148

0800847c <_lseek_r>:
 800847c:	b538      	push	{r3, r4, r5, lr}
 800847e:	4d07      	ldr	r5, [pc, #28]	; (800849c <_lseek_r+0x20>)
 8008480:	4604      	mov	r4, r0
 8008482:	4608      	mov	r0, r1
 8008484:	4611      	mov	r1, r2
 8008486:	2200      	movs	r2, #0
 8008488:	602a      	str	r2, [r5, #0]
 800848a:	461a      	mov	r2, r3
 800848c:	f7f9 fac8 	bl	8001a20 <_lseek>
 8008490:	1c43      	adds	r3, r0, #1
 8008492:	d102      	bne.n	800849a <_lseek_r+0x1e>
 8008494:	682b      	ldr	r3, [r5, #0]
 8008496:	b103      	cbz	r3, 800849a <_lseek_r+0x1e>
 8008498:	6023      	str	r3, [r4, #0]
 800849a:	bd38      	pop	{r3, r4, r5, pc}
 800849c:	20006324 	.word	0x20006324

080084a0 <_read_r>:
 80084a0:	b538      	push	{r3, r4, r5, lr}
 80084a2:	4d07      	ldr	r5, [pc, #28]	; (80084c0 <_read_r+0x20>)
 80084a4:	4604      	mov	r4, r0
 80084a6:	4608      	mov	r0, r1
 80084a8:	4611      	mov	r1, r2
 80084aa:	2200      	movs	r2, #0
 80084ac:	602a      	str	r2, [r5, #0]
 80084ae:	461a      	mov	r2, r3
 80084b0:	f7f9 fa9e 	bl	80019f0 <_read>
 80084b4:	1c43      	adds	r3, r0, #1
 80084b6:	d102      	bne.n	80084be <_read_r+0x1e>
 80084b8:	682b      	ldr	r3, [r5, #0]
 80084ba:	b103      	cbz	r3, 80084be <_read_r+0x1e>
 80084bc:	6023      	str	r3, [r4, #0]
 80084be:	bd38      	pop	{r3, r4, r5, pc}
 80084c0:	20006324 	.word	0x20006324

080084c4 <_write_r>:
 80084c4:	b538      	push	{r3, r4, r5, lr}
 80084c6:	4d07      	ldr	r5, [pc, #28]	; (80084e4 <_write_r+0x20>)
 80084c8:	4604      	mov	r4, r0
 80084ca:	4608      	mov	r0, r1
 80084cc:	4611      	mov	r1, r2
 80084ce:	2200      	movs	r2, #0
 80084d0:	602a      	str	r2, [r5, #0]
 80084d2:	461a      	mov	r2, r3
 80084d4:	f7f9 f834 	bl	8001540 <_write>
 80084d8:	1c43      	adds	r3, r0, #1
 80084da:	d102      	bne.n	80084e2 <_write_r+0x1e>
 80084dc:	682b      	ldr	r3, [r5, #0]
 80084de:	b103      	cbz	r3, 80084e2 <_write_r+0x1e>
 80084e0:	6023      	str	r3, [r4, #0]
 80084e2:	bd38      	pop	{r3, r4, r5, pc}
 80084e4:	20006324 	.word	0x20006324

080084e8 <__errno>:
 80084e8:	4b01      	ldr	r3, [pc, #4]	; (80084f0 <__errno+0x8>)
 80084ea:	6818      	ldr	r0, [r3, #0]
 80084ec:	4770      	bx	lr
 80084ee:	bf00      	nop
 80084f0:	20000148 	.word	0x20000148

080084f4 <__libc_init_array>:
 80084f4:	b570      	push	{r4, r5, r6, lr}
 80084f6:	4d0d      	ldr	r5, [pc, #52]	; (800852c <__libc_init_array+0x38>)
 80084f8:	4c0d      	ldr	r4, [pc, #52]	; (8008530 <__libc_init_array+0x3c>)
 80084fa:	1b64      	subs	r4, r4, r5
 80084fc:	10a4      	asrs	r4, r4, #2
 80084fe:	2600      	movs	r6, #0
 8008500:	42a6      	cmp	r6, r4
 8008502:	d109      	bne.n	8008518 <__libc_init_array+0x24>
 8008504:	4d0b      	ldr	r5, [pc, #44]	; (8008534 <__libc_init_array+0x40>)
 8008506:	4c0c      	ldr	r4, [pc, #48]	; (8008538 <__libc_init_array+0x44>)
 8008508:	f000 fd38 	bl	8008f7c <_init>
 800850c:	1b64      	subs	r4, r4, r5
 800850e:	10a4      	asrs	r4, r4, #2
 8008510:	2600      	movs	r6, #0
 8008512:	42a6      	cmp	r6, r4
 8008514:	d105      	bne.n	8008522 <__libc_init_array+0x2e>
 8008516:	bd70      	pop	{r4, r5, r6, pc}
 8008518:	f855 3b04 	ldr.w	r3, [r5], #4
 800851c:	4798      	blx	r3
 800851e:	3601      	adds	r6, #1
 8008520:	e7ee      	b.n	8008500 <__libc_init_array+0xc>
 8008522:	f855 3b04 	ldr.w	r3, [r5], #4
 8008526:	4798      	blx	r3
 8008528:	3601      	adds	r6, #1
 800852a:	e7f2      	b.n	8008512 <__libc_init_array+0x1e>
 800852c:	080095c8 	.word	0x080095c8
 8008530:	080095c8 	.word	0x080095c8
 8008534:	080095c8 	.word	0x080095c8
 8008538:	080095cc 	.word	0x080095cc

0800853c <__retarget_lock_init_recursive>:
 800853c:	4770      	bx	lr

0800853e <__retarget_lock_acquire_recursive>:
 800853e:	4770      	bx	lr

08008540 <__retarget_lock_release_recursive>:
 8008540:	4770      	bx	lr

08008542 <memcpy>:
 8008542:	440a      	add	r2, r1
 8008544:	4291      	cmp	r1, r2
 8008546:	f100 33ff 	add.w	r3, r0, #4294967295
 800854a:	d100      	bne.n	800854e <memcpy+0xc>
 800854c:	4770      	bx	lr
 800854e:	b510      	push	{r4, lr}
 8008550:	f811 4b01 	ldrb.w	r4, [r1], #1
 8008554:	f803 4f01 	strb.w	r4, [r3, #1]!
 8008558:	4291      	cmp	r1, r2
 800855a:	d1f9      	bne.n	8008550 <memcpy+0xe>
 800855c:	bd10      	pop	{r4, pc}
	...

08008560 <_free_r>:
 8008560:	b537      	push	{r0, r1, r2, r4, r5, lr}
 8008562:	2900      	cmp	r1, #0
 8008564:	d044      	beq.n	80085f0 <_free_r+0x90>
 8008566:	f851 3c04 	ldr.w	r3, [r1, #-4]
 800856a:	9001      	str	r0, [sp, #4]
 800856c:	2b00      	cmp	r3, #0
 800856e:	f1a1 0404 	sub.w	r4, r1, #4
 8008572:	bfb8      	it	lt
 8008574:	18e4      	addlt	r4, r4, r3
 8008576:	f000 f8df 	bl	8008738 <__malloc_lock>
 800857a:	4a1e      	ldr	r2, [pc, #120]	; (80085f4 <_free_r+0x94>)
 800857c:	9801      	ldr	r0, [sp, #4]
 800857e:	6813      	ldr	r3, [r2, #0]
 8008580:	b933      	cbnz	r3, 8008590 <_free_r+0x30>
 8008582:	6063      	str	r3, [r4, #4]
 8008584:	6014      	str	r4, [r2, #0]
 8008586:	b003      	add	sp, #12
 8008588:	e8bd 4030 	ldmia.w	sp!, {r4, r5, lr}
 800858c:	f000 b8da 	b.w	8008744 <__malloc_unlock>
 8008590:	42a3      	cmp	r3, r4
 8008592:	d908      	bls.n	80085a6 <_free_r+0x46>
 8008594:	6825      	ldr	r5, [r4, #0]
 8008596:	1961      	adds	r1, r4, r5
 8008598:	428b      	cmp	r3, r1
 800859a:	bf01      	itttt	eq
 800859c:	6819      	ldreq	r1, [r3, #0]
 800859e:	685b      	ldreq	r3, [r3, #4]
 80085a0:	1949      	addeq	r1, r1, r5
 80085a2:	6021      	streq	r1, [r4, #0]
 80085a4:	e7ed      	b.n	8008582 <_free_r+0x22>
 80085a6:	461a      	mov	r2, r3
 80085a8:	685b      	ldr	r3, [r3, #4]
 80085aa:	b10b      	cbz	r3, 80085b0 <_free_r+0x50>
 80085ac:	42a3      	cmp	r3, r4
 80085ae:	d9fa      	bls.n	80085a6 <_free_r+0x46>
 80085b0:	6811      	ldr	r1, [r2, #0]
 80085b2:	1855      	adds	r5, r2, r1
 80085b4:	42a5      	cmp	r5, r4
 80085b6:	d10b      	bne.n	80085d0 <_free_r+0x70>
 80085b8:	6824      	ldr	r4, [r4, #0]
 80085ba:	4421      	add	r1, r4
 80085bc:	1854      	adds	r4, r2, r1
 80085be:	42a3      	cmp	r3, r4
 80085c0:	6011      	str	r1, [r2, #0]
 80085c2:	d1e0      	bne.n	8008586 <_free_r+0x26>
 80085c4:	681c      	ldr	r4, [r3, #0]
 80085c6:	685b      	ldr	r3, [r3, #4]
 80085c8:	6053      	str	r3, [r2, #4]
 80085ca:	440c      	add	r4, r1
 80085cc:	6014      	str	r4, [r2, #0]
 80085ce:	e7da      	b.n	8008586 <_free_r+0x26>
 80085d0:	d902      	bls.n	80085d8 <_free_r+0x78>
 80085d2:	230c      	movs	r3, #12
 80085d4:	6003      	str	r3, [r0, #0]
 80085d6:	e7d6      	b.n	8008586 <_free_r+0x26>
 80085d8:	6825      	ldr	r5, [r4, #0]
 80085da:	1961      	adds	r1, r4, r5
 80085dc:	428b      	cmp	r3, r1
 80085de:	bf04      	itt	eq
 80085e0:	6819      	ldreq	r1, [r3, #0]
 80085e2:	685b      	ldreq	r3, [r3, #4]
 80085e4:	6063      	str	r3, [r4, #4]
 80085e6:	bf04      	itt	eq
 80085e8:	1949      	addeq	r1, r1, r5
 80085ea:	6021      	streq	r1, [r4, #0]
 80085ec:	6054      	str	r4, [r2, #4]
 80085ee:	e7ca      	b.n	8008586 <_free_r+0x26>
 80085f0:	b003      	add	sp, #12
 80085f2:	bd30      	pop	{r4, r5, pc}
 80085f4:	2000632c 	.word	0x2000632c

080085f8 <sbrk_aligned>:
 80085f8:	b570      	push	{r4, r5, r6, lr}
 80085fa:	4e0e      	ldr	r6, [pc, #56]	; (8008634 <sbrk_aligned+0x3c>)
 80085fc:	460c      	mov	r4, r1
 80085fe:	6831      	ldr	r1, [r6, #0]
 8008600:	4605      	mov	r5, r0
 8008602:	b911      	cbnz	r1, 800860a <sbrk_aligned+0x12>
 8008604:	f000 fcaa 	bl	8008f5c <_sbrk_r>
 8008608:	6030      	str	r0, [r6, #0]
 800860a:	4621      	mov	r1, r4
 800860c:	4628      	mov	r0, r5
 800860e:	f000 fca5 	bl	8008f5c <_sbrk_r>
 8008612:	1c43      	adds	r3, r0, #1
 8008614:	d00a      	beq.n	800862c <sbrk_aligned+0x34>
 8008616:	1cc4      	adds	r4, r0, #3
 8008618:	f024 0403 	bic.w	r4, r4, #3
 800861c:	42a0      	cmp	r0, r4
 800861e:	d007      	beq.n	8008630 <sbrk_aligned+0x38>
 8008620:	1a21      	subs	r1, r4, r0
 8008622:	4628      	mov	r0, r5
 8008624:	f000 fc9a 	bl	8008f5c <_sbrk_r>
 8008628:	3001      	adds	r0, #1
 800862a:	d101      	bne.n	8008630 <sbrk_aligned+0x38>
 800862c:	f04f 34ff 	mov.w	r4, #4294967295
 8008630:	4620      	mov	r0, r4
 8008632:	bd70      	pop	{r4, r5, r6, pc}
 8008634:	20006330 	.word	0x20006330

08008638 <_malloc_r>:
 8008638:	e92d 43f8 	stmdb	sp!, {r3, r4, r5, r6, r7, r8, r9, lr}
 800863c:	1ccd      	adds	r5, r1, #3
 800863e:	f025 0503 	bic.w	r5, r5, #3
 8008642:	3508      	adds	r5, #8
 8008644:	2d0c      	cmp	r5, #12
 8008646:	bf38      	it	cc
 8008648:	250c      	movcc	r5, #12
 800864a:	2d00      	cmp	r5, #0
 800864c:	4607      	mov	r7, r0
 800864e:	db01      	blt.n	8008654 <_malloc_r+0x1c>
 8008650:	42a9      	cmp	r1, r5
 8008652:	d905      	bls.n	8008660 <_malloc_r+0x28>
 8008654:	230c      	movs	r3, #12
 8008656:	603b      	str	r3, [r7, #0]
 8008658:	2600      	movs	r6, #0
 800865a:	4630      	mov	r0, r6
 800865c:	e8bd 83f8 	ldmia.w	sp!, {r3, r4, r5, r6, r7, r8, r9, pc}
 8008660:	f8df 80d0 	ldr.w	r8, [pc, #208]	; 8008734 <_malloc_r+0xfc>
 8008664:	f000 f868 	bl	8008738 <__malloc_lock>
 8008668:	f8d8 3000 	ldr.w	r3, [r8]
 800866c:	461c      	mov	r4, r3
 800866e:	bb5c      	cbnz	r4, 80086c8 <_malloc_r+0x90>
 8008670:	4629      	mov	r1, r5
 8008672:	4638      	mov	r0, r7
 8008674:	f7ff ffc0 	bl	80085f8 <sbrk_aligned>
 8008678:	1c43      	adds	r3, r0, #1
 800867a:	4604      	mov	r4, r0
 800867c:	d155      	bne.n	800872a <_malloc_r+0xf2>
 800867e:	f8d8 4000 	ldr.w	r4, [r8]
 8008682:	4626      	mov	r6, r4
 8008684:	2e00      	cmp	r6, #0
 8008686:	d145      	bne.n	8008714 <_malloc_r+0xdc>
 8008688:	2c00      	cmp	r4, #0
 800868a:	d048      	beq.n	800871e <_malloc_r+0xe6>
 800868c:	6823      	ldr	r3, [r4, #0]
 800868e:	4631      	mov	r1, r6
 8008690:	4638      	mov	r0, r7
 8008692:	eb04 0903 	add.w	r9, r4, r3
 8008696:	f000 fc61 	bl	8008f5c <_sbrk_r>
 800869a:	4581      	cmp	r9, r0
 800869c:	d13f      	bne.n	800871e <_malloc_r+0xe6>
 800869e:	6821      	ldr	r1, [r4, #0]
 80086a0:	1a6d      	subs	r5, r5, r1
 80086a2:	4629      	mov	r1, r5
 80086a4:	4638      	mov	r0, r7
 80086a6:	f7ff ffa7 	bl	80085f8 <sbrk_aligned>
 80086aa:	3001      	adds	r0, #1
 80086ac:	d037      	beq.n	800871e <_malloc_r+0xe6>
 80086ae:	6823      	ldr	r3, [r4, #0]
 80086b0:	442b      	add	r3, r5
 80086b2:	6023      	str	r3, [r4, #0]
 80086b4:	f8d8 3000 	ldr.w	r3, [r8]
 80086b8:	2b00      	cmp	r3, #0
 80086ba:	d038      	beq.n	800872e <_malloc_r+0xf6>
 80086bc:	685a      	ldr	r2, [r3, #4]
 80086be:	42a2      	cmp	r2, r4
 80086c0:	d12b      	bne.n	800871a <_malloc_r+0xe2>
 80086c2:	2200      	movs	r2, #0
 80086c4:	605a      	str	r2, [r3, #4]
 80086c6:	e00f      	b.n	80086e8 <_malloc_r+0xb0>
 80086c8:	6822      	ldr	r2, [r4, #0]
 80086ca:	1b52      	subs	r2, r2, r5
 80086cc:	d41f      	bmi.n	800870e <_malloc_r+0xd6>
 80086ce:	2a0b      	cmp	r2, #11
 80086d0:	d917      	bls.n	8008702 <_malloc_r+0xca>
 80086d2:	1961      	adds	r1, r4, r5
 80086d4:	42a3      	cmp	r3, r4
 80086d6:	6025      	str	r5, [r4, #0]
 80086d8:	bf18      	it	ne
 80086da:	6059      	strne	r1, [r3, #4]
 80086dc:	6863      	ldr	r3, [r4, #4]
 80086de:	bf08      	it	eq
 80086e0:	f8c8 1000 	streq.w	r1, [r8]
 80086e4:	5162      	str	r2, [r4, r5]
 80086e6:	604b      	str	r3, [r1, #4]
 80086e8:	4638      	mov	r0, r7
 80086ea:	f104 060b 	add.w	r6, r4, #11
 80086ee:	f000 f829 	bl	8008744 <__malloc_unlock>
 80086f2:	f026 0607 	bic.w	r6, r6, #7
 80086f6:	1d23      	adds	r3, r4, #4
 80086f8:	1af2      	subs	r2, r6, r3
 80086fa:	d0ae      	beq.n	800865a <_malloc_r+0x22>
 80086fc:	1b9b      	subs	r3, r3, r6
 80086fe:	50a3      	str	r3, [r4, r2]
 8008700:	e7ab      	b.n	800865a <_malloc_r+0x22>
 8008702:	42a3      	cmp	r3, r4
 8008704:	6862      	ldr	r2, [r4, #4]
 8008706:	d1dd      	bne.n	80086c4 <_malloc_r+0x8c>
 8008708:	f8c8 2000 	str.w	r2, [r8]
 800870c:	e7ec      	b.n	80086e8 <_malloc_r+0xb0>
 800870e:	4623      	mov	r3, r4
 8008710:	6864      	ldr	r4, [r4, #4]
 8008712:	e7ac      	b.n	800866e <_malloc_r+0x36>
 8008714:	4634      	mov	r4, r6
 8008716:	6876      	ldr	r6, [r6, #4]
 8008718:	e7b4      	b.n	8008684 <_malloc_r+0x4c>
 800871a:	4613      	mov	r3, r2
 800871c:	e7cc      	b.n	80086b8 <_malloc_r+0x80>
 800871e:	230c      	movs	r3, #12
 8008720:	603b      	str	r3, [r7, #0]
 8008722:	4638      	mov	r0, r7
 8008724:	f000 f80e 	bl	8008744 <__malloc_unlock>
 8008728:	e797      	b.n	800865a <_malloc_r+0x22>
 800872a:	6025      	str	r5, [r4, #0]
 800872c:	e7dc      	b.n	80086e8 <_malloc_r+0xb0>
 800872e:	605b      	str	r3, [r3, #4]
 8008730:	deff      	udf	#255	; 0xff
 8008732:	bf00      	nop
 8008734:	2000632c 	.word	0x2000632c

08008738 <__malloc_lock>:
 8008738:	4801      	ldr	r0, [pc, #4]	; (8008740 <__malloc_lock+0x8>)
 800873a:	f7ff bf00 	b.w	800853e <__retarget_lock_acquire_recursive>
 800873e:	bf00      	nop
 8008740:	20006328 	.word	0x20006328

08008744 <__malloc_unlock>:
 8008744:	4801      	ldr	r0, [pc, #4]	; (800874c <__malloc_unlock+0x8>)
 8008746:	f7ff befb 	b.w	8008540 <__retarget_lock_release_recursive>
 800874a:	bf00      	nop
 800874c:	20006328 	.word	0x20006328

08008750 <__sfputc_r>:
 8008750:	6893      	ldr	r3, [r2, #8]
 8008752:	3b01      	subs	r3, #1
 8008754:	2b00      	cmp	r3, #0
 8008756:	b410      	push	{r4}
 8008758:	6093      	str	r3, [r2, #8]
 800875a:	da08      	bge.n	800876e <__sfputc_r+0x1e>
 800875c:	6994      	ldr	r4, [r2, #24]
 800875e:	42a3      	cmp	r3, r4
 8008760:	db01      	blt.n	8008766 <__sfputc_r+0x16>
 8008762:	290a      	cmp	r1, #10
 8008764:	d103      	bne.n	800876e <__sfputc_r+0x1e>
 8008766:	f85d 4b04 	ldr.w	r4, [sp], #4
 800876a:	f7ff bd84 	b.w	8008276 <__swbuf_r>
 800876e:	6813      	ldr	r3, [r2, #0]
 8008770:	1c58      	adds	r0, r3, #1
 8008772:	6010      	str	r0, [r2, #0]
 8008774:	7019      	strb	r1, [r3, #0]
 8008776:	4608      	mov	r0, r1
 8008778:	f85d 4b04 	ldr.w	r4, [sp], #4
 800877c:	4770      	bx	lr

0800877e <__sfputs_r>:
 800877e:	b5f8      	push	{r3, r4, r5, r6, r7, lr}
 8008780:	4606      	mov	r6, r0
 8008782:	460f      	mov	r7, r1
 8008784:	4614      	mov	r4, r2
 8008786:	18d5      	adds	r5, r2, r3
 8008788:	42ac      	cmp	r4, r5
 800878a:	d101      	bne.n	8008790 <__sfputs_r+0x12>
 800878c:	2000      	movs	r0, #0
 800878e:	e007      	b.n	80087a0 <__sfputs_r+0x22>
 8008790:	f814 1b01 	ldrb.w	r1, [r4], #1
 8008794:	463a      	mov	r2, r7
 8008796:	4630      	mov	r0, r6
 8008798:	f7ff ffda 	bl	8008750 <__sfputc_r>
 800879c:	1c43      	adds	r3, r0, #1
 800879e:	d1f3      	bne.n	8008788 <__sfputs_r+0xa>
 80087a0:	bdf8      	pop	{r3, r4, r5, r6, r7, pc}
	...

080087a4 <_vfiprintf_r>:
 80087a4:	e92d 4ff0 	stmdb	sp!, {r4, r5, r6, r7, r8, r9, sl, fp, lr}
 80087a8:	460d      	mov	r5, r1
 80087aa:	b09d      	sub	sp, #116	; 0x74
 80087ac:	4614      	mov	r4, r2
 80087ae:	4698      	mov	r8, r3
 80087b0:	4606      	mov	r6, r0
 80087b2:	b118      	cbz	r0, 80087bc <_vfiprintf_r+0x18>
 80087b4:	6a03      	ldr	r3, [r0, #32]
 80087b6:	b90b      	cbnz	r3, 80087bc <_vfiprintf_r+0x18>
 80087b8:	f7ff fc76 	bl	80080a8 <__sinit>
 80087bc:	6e6b      	ldr	r3, [r5, #100]	; 0x64
 80087be:	07d9      	lsls	r1, r3, #31
 80087c0:	d405      	bmi.n	80087ce <_vfiprintf_r+0x2a>
 80087c2:	89ab      	ldrh	r3, [r5, #12]
 80087c4:	059a      	lsls	r2, r3, #22
 80087c6:	d402      	bmi.n	80087ce <_vfiprintf_r+0x2a>
 80087c8:	6da8      	ldr	r0, [r5, #88]	; 0x58
 80087ca:	f7ff feb8 	bl	800853e <__retarget_lock_acquire_recursive>
 80087ce:	89ab      	ldrh	r3, [r5, #12]
 80087d0:	071b      	lsls	r3, r3, #28
 80087d2:	d501      	bpl.n	80087d8 <_vfiprintf_r+0x34>
 80087d4:	692b      	ldr	r3, [r5, #16]
 80087d6:	b99b      	cbnz	r3, 8008800 <_vfiprintf_r+0x5c>
 80087d8:	4629      	mov	r1, r5
 80087da:	4630      	mov	r0, r6
 80087dc:	f7ff fd88 	bl	80082f0 <__swsetup_r>
 80087e0:	b170      	cbz	r0, 8008800 <_vfiprintf_r+0x5c>
 80087e2:	6e6b      	ldr	r3, [r5, #100]	; 0x64
 80087e4:	07dc      	lsls	r4, r3, #31
 80087e6:	d504      	bpl.n	80087f2 <_vfiprintf_r+0x4e>
 80087e8:	f04f 30ff 	mov.w	r0, #4294967295
 80087ec:	b01d      	add	sp, #116	; 0x74
 80087ee:	e8bd 8ff0 	ldmia.w	sp!, {r4, r5, r6, r7, r8, r9, sl, fp, pc}
 80087f2:	89ab      	ldrh	r3, [r5, #12]
 80087f4:	0598      	lsls	r0, r3, #22
 80087f6:	d4f7      	bmi.n	80087e8 <_vfiprintf_r+0x44>
 80087f8:	6da8      	ldr	r0, [r5, #88]	; 0x58
 80087fa:	f7ff fea1 	bl	8008540 <__retarget_lock_release_recursive>
 80087fe:	e7f3      	b.n	80087e8 <_vfiprintf_r+0x44>
 8008800:	2300      	movs	r3, #0
 8008802:	9309      	str	r3, [sp, #36]	; 0x24
 8008804:	2320      	movs	r3, #32
 8008806:	f88d 3029 	strb.w	r3, [sp, #41]	; 0x29
 800880a:	f8cd 800c 	str.w	r8, [sp, #12]
 800880e:	2330      	movs	r3, #48	; 0x30
 8008810:	f8df 81b0 	ldr.w	r8, [pc, #432]	; 80089c4 <_vfiprintf_r+0x220>
 8008814:	f88d 302a 	strb.w	r3, [sp, #42]	; 0x2a
 8008818:	f04f 0901 	mov.w	r9, #1
 800881c:	4623      	mov	r3, r4
 800881e:	469a      	mov	sl, r3
 8008820:	f813 2b01 	ldrb.w	r2, [r3], #1
 8008824:	b10a      	cbz	r2, 800882a <_vfiprintf_r+0x86>
 8008826:	2a25      	cmp	r2, #37	; 0x25
 8008828:	d1f9      	bne.n	800881e <_vfiprintf_r+0x7a>
 800882a:	ebba 0b04 	subs.w	fp, sl, r4
 800882e:	d00b      	beq.n	8008848 <_vfiprintf_r+0xa4>
 8008830:	465b      	mov	r3, fp
 8008832:	4622      	mov	r2, r4
 8008834:	4629      	mov	r1, r5
 8008836:	4630      	mov	r0, r6
 8008838:	f7ff ffa1 	bl	800877e <__sfputs_r>
 800883c:	3001      	adds	r0, #1
 800883e:	f000 80a9 	beq.w	8008994 <_vfiprintf_r+0x1f0>
 8008842:	9a09      	ldr	r2, [sp, #36]	; 0x24
 8008844:	445a      	add	r2, fp
 8008846:	9209      	str	r2, [sp, #36]	; 0x24
 8008848:	f89a 3000 	ldrb.w	r3, [sl]
 800884c:	2b00      	cmp	r3, #0
 800884e:	f000 80a1 	beq.w	8008994 <_vfiprintf_r+0x1f0>
 8008852:	2300      	movs	r3, #0
 8008854:	f04f 32ff 	mov.w	r2, #4294967295
 8008858:	e9cd 2305 	strd	r2, r3, [sp, #20]
 800885c:	f10a 0a01 	add.w	sl, sl, #1
 8008860:	9304      	str	r3, [sp, #16]
 8008862:	9307      	str	r3, [sp, #28]
 8008864:	f88d 3053 	strb.w	r3, [sp, #83]	; 0x53
 8008868:	931a      	str	r3, [sp, #104]	; 0x68
 800886a:	4654      	mov	r4, sl
 800886c:	2205      	movs	r2, #5
 800886e:	f814 1b01 	ldrb.w	r1, [r4], #1
 8008872:	4854      	ldr	r0, [pc, #336]	; (80089c4 <_vfiprintf_r+0x220>)
 8008874:	f7f7 fce4 	bl	8000240 <memchr>
 8008878:	9a04      	ldr	r2, [sp, #16]
 800887a:	b9d8      	cbnz	r0, 80088b4 <_vfiprintf_r+0x110>
 800887c:	06d1      	lsls	r1, r2, #27
 800887e:	bf44      	itt	mi
 8008880:	2320      	movmi	r3, #32
 8008882:	f88d 3053 	strbmi.w	r3, [sp, #83]	; 0x53
 8008886:	0713      	lsls	r3, r2, #28
 8008888:	bf44      	itt	mi
 800888a:	232b      	movmi	r3, #43	; 0x2b
 800888c:	f88d 3053 	strbmi.w	r3, [sp, #83]	; 0x53
 8008890:	f89a 3000 	ldrb.w	r3, [sl]
 8008894:	2b2a      	cmp	r3, #42	; 0x2a
 8008896:	d015      	beq.n	80088c4 <_vfiprintf_r+0x120>
 8008898:	9a07      	ldr	r2, [sp, #28]
 800889a:	4654      	mov	r4, sl
 800889c:	2000      	movs	r0, #0
 800889e:	f04f 0c0a 	mov.w	ip, #10
 80088a2:	4621      	mov	r1, r4
 80088a4:	f811 3b01 	ldrb.w	r3, [r1], #1
 80088a8:	3b30      	subs	r3, #48	; 0x30
 80088aa:	2b09      	cmp	r3, #9
 80088ac:	d94d      	bls.n	800894a <_vfiprintf_r+0x1a6>
 80088ae:	b1b0      	cbz	r0, 80088de <_vfiprintf_r+0x13a>
 80088b0:	9207      	str	r2, [sp, #28]
 80088b2:	e014      	b.n	80088de <_vfiprintf_r+0x13a>
 80088b4:	eba0 0308 	sub.w	r3, r0, r8
 80088b8:	fa09 f303 	lsl.w	r3, r9, r3
 80088bc:	4313      	orrs	r3, r2
 80088be:	9304      	str	r3, [sp, #16]
 80088c0:	46a2      	mov	sl, r4
 80088c2:	e7d2      	b.n	800886a <_vfiprintf_r+0xc6>
 80088c4:	9b03      	ldr	r3, [sp, #12]
 80088c6:	1d19      	adds	r1, r3, #4
 80088c8:	681b      	ldr	r3, [r3, #0]
 80088ca:	9103      	str	r1, [sp, #12]
 80088cc:	2b00      	cmp	r3, #0
 80088ce:	bfbb      	ittet	lt
 80088d0:	425b      	neglt	r3, r3
 80088d2:	f042 0202 	orrlt.w	r2, r2, #2
 80088d6:	9307      	strge	r3, [sp, #28]
 80088d8:	9307      	strlt	r3, [sp, #28]
 80088da:	bfb8      	it	lt
 80088dc:	9204      	strlt	r2, [sp, #16]
 80088de:	7823      	ldrb	r3, [r4, #0]
 80088e0:	2b2e      	cmp	r3, #46	; 0x2e
 80088e2:	d10c      	bne.n	80088fe <_vfiprintf_r+0x15a>
 80088e4:	7863      	ldrb	r3, [r4, #1]
 80088e6:	2b2a      	cmp	r3, #42	; 0x2a
 80088e8:	d134      	bne.n	8008954 <_vfiprintf_r+0x1b0>
 80088ea:	9b03      	ldr	r3, [sp, #12]
 80088ec:	1d1a      	adds	r2, r3, #4
 80088ee:	681b      	ldr	r3, [r3, #0]
 80088f0:	9203      	str	r2, [sp, #12]
 80088f2:	2b00      	cmp	r3, #0
 80088f4:	bfb8      	it	lt
 80088f6:	f04f 33ff 	movlt.w	r3, #4294967295
 80088fa:	3402      	adds	r4, #2
 80088fc:	9305      	str	r3, [sp, #20]
 80088fe:	f8df a0d4 	ldr.w	sl, [pc, #212]	; 80089d4 <_vfiprintf_r+0x230>
 8008902:	7821      	ldrb	r1, [r4, #0]
 8008904:	2203      	movs	r2, #3
 8008906:	4650      	mov	r0, sl
 8008908:	f7f7 fc9a 	bl	8000240 <memchr>
 800890c:	b138      	cbz	r0, 800891e <_vfiprintf_r+0x17a>
 800890e:	9b04      	ldr	r3, [sp, #16]
 8008910:	eba0 000a 	sub.w	r0, r0, sl
 8008914:	2240      	movs	r2, #64	; 0x40
 8008916:	4082      	lsls	r2, r0
 8008918:	4313      	orrs	r3, r2
 800891a:	3401      	adds	r4, #1
 800891c:	9304      	str	r3, [sp, #16]
 800891e:	f814 1b01 	ldrb.w	r1, [r4], #1
 8008922:	4829      	ldr	r0, [pc, #164]	; (80089c8 <_vfiprintf_r+0x224>)
 8008924:	f88d 1028 	strb.w	r1, [sp, #40]	; 0x28
 8008928:	2206      	movs	r2, #6
 800892a:	f7f7 fc89 	bl	8000240 <memchr>
 800892e:	2800      	cmp	r0, #0
 8008930:	d03f      	beq.n	80089b2 <_vfiprintf_r+0x20e>
 8008932:	4b26      	ldr	r3, [pc, #152]	; (80089cc <_vfiprintf_r+0x228>)
 8008934:	bb1b      	cbnz	r3, 800897e <_vfiprintf_r+0x1da>
 8008936:	9b03      	ldr	r3, [sp, #12]
 8008938:	3307      	adds	r3, #7
 800893a:	f023 0307 	bic.w	r3, r3, #7
 800893e:	3308      	adds	r3, #8
 8008940:	9303      	str	r3, [sp, #12]
 8008942:	9b09      	ldr	r3, [sp, #36]	; 0x24
 8008944:	443b      	add	r3, r7
 8008946:	9309      	str	r3, [sp, #36]	; 0x24
 8008948:	e768      	b.n	800881c <_vfiprintf_r+0x78>
 800894a:	fb0c 3202 	mla	r2, ip, r2, r3
 800894e:	460c      	mov	r4, r1
 8008950:	2001      	movs	r0, #1
 8008952:	e7a6      	b.n	80088a2 <_vfiprintf_r+0xfe>
 8008954:	2300      	movs	r3, #0
 8008956:	3401      	adds	r4, #1
 8008958:	9305      	str	r3, [sp, #20]
 800895a:	4619      	mov	r1, r3
 800895c:	f04f 0c0a 	mov.w	ip, #10
 8008960:	4620      	mov	r0, r4
 8008962:	f810 2b01 	ldrb.w	r2, [r0], #1
 8008966:	3a30      	subs	r2, #48	; 0x30
 8008968:	2a09      	cmp	r2, #9
 800896a:	d903      	bls.n	8008974 <_vfiprintf_r+0x1d0>
 800896c:	2b00      	cmp	r3, #0
 800896e:	d0c6      	beq.n	80088fe <_vfiprintf_r+0x15a>
 8008970:	9105      	str	r1, [sp, #20]
 8008972:	e7c4      	b.n	80088fe <_vfiprintf_r+0x15a>
 8008974:	fb0c 2101 	mla	r1, ip, r1, r2
 8008978:	4604      	mov	r4, r0
 800897a:	2301      	movs	r3, #1
 800897c:	e7f0      	b.n	8008960 <_vfiprintf_r+0x1bc>
 800897e:	ab03      	add	r3, sp, #12
 8008980:	9300      	str	r3, [sp, #0]
 8008982:	462a      	mov	r2, r5
 8008984:	4b12      	ldr	r3, [pc, #72]	; (80089d0 <_vfiprintf_r+0x22c>)
 8008986:	a904      	add	r1, sp, #16
 8008988:	4630      	mov	r0, r6
 800898a:	f3af 8000 	nop.w
 800898e:	4607      	mov	r7, r0
 8008990:	1c78      	adds	r0, r7, #1
 8008992:	d1d6      	bne.n	8008942 <_vfiprintf_r+0x19e>
 8008994:	6e6b      	ldr	r3, [r5, #100]	; 0x64
 8008996:	07d9      	lsls	r1, r3, #31
 8008998:	d405      	bmi.n	80089a6 <_vfiprintf_r+0x202>
 800899a:	89ab      	ldrh	r3, [r5, #12]
 800899c:	059a      	lsls	r2, r3, #22
 800899e:	d402      	bmi.n	80089a6 <_vfiprintf_r+0x202>
 80089a0:	6da8      	ldr	r0, [r5, #88]	; 0x58
 80089a2:	f7ff fdcd 	bl	8008540 <__retarget_lock_release_recursive>
 80089a6:	89ab      	ldrh	r3, [r5, #12]
 80089a8:	065b      	lsls	r3, r3, #25
 80089aa:	f53f af1d 	bmi.w	80087e8 <_vfiprintf_r+0x44>
 80089ae:	9809      	ldr	r0, [sp, #36]	; 0x24
 80089b0:	e71c      	b.n	80087ec <_vfiprintf_r+0x48>
 80089b2:	ab03      	add	r3, sp, #12
 80089b4:	9300      	str	r3, [sp, #0]
 80089b6:	462a      	mov	r2, r5
 80089b8:	4b05      	ldr	r3, [pc, #20]	; (80089d0 <_vfiprintf_r+0x22c>)
 80089ba:	a904      	add	r1, sp, #16
 80089bc:	4630      	mov	r0, r6
 80089be:	f000 f879 	bl	8008ab4 <_printf_i>
 80089c2:	e7e4      	b.n	800898e <_vfiprintf_r+0x1ea>
 80089c4:	0800958c 	.word	0x0800958c
 80089c8:	08009596 	.word	0x08009596
 80089cc:	00000000 	.word	0x00000000
 80089d0:	0800877f 	.word	0x0800877f
 80089d4:	08009592 	.word	0x08009592

080089d8 <_printf_common>:
 80089d8:	e92d 47f0 	stmdb	sp!, {r4, r5, r6, r7, r8, r9, sl, lr}
 80089dc:	4616      	mov	r6, r2
 80089de:	4699      	mov	r9, r3
 80089e0:	688a      	ldr	r2, [r1, #8]
 80089e2:	690b      	ldr	r3, [r1, #16]
 80089e4:	f8dd 8020 	ldr.w	r8, [sp, #32]
 80089e8:	4293      	cmp	r3, r2
 80089ea:	bfb8      	it	lt
 80089ec:	4613      	movlt	r3, r2
 80089ee:	6033      	str	r3, [r6, #0]
 80089f0:	f891 2043 	ldrb.w	r2, [r1, #67]	; 0x43
 80089f4:	4607      	mov	r7, r0
 80089f6:	460c      	mov	r4, r1
 80089f8:	b10a      	cbz	r2, 80089fe <_printf_common+0x26>
 80089fa:	3301      	adds	r3, #1
 80089fc:	6033      	str	r3, [r6, #0]
 80089fe:	6823      	ldr	r3, [r4, #0]
 8008a00:	0699      	lsls	r1, r3, #26
 8008a02:	bf42      	ittt	mi
 8008a04:	6833      	ldrmi	r3, [r6, #0]
 8008a06:	3302      	addmi	r3, #2
 8008a08:	6033      	strmi	r3, [r6, #0]
 8008a0a:	6825      	ldr	r5, [r4, #0]
 8008a0c:	f015 0506 	ands.w	r5, r5, #6
 8008a10:	d106      	bne.n	8008a20 <_printf_common+0x48>
 8008a12:	f104 0a19 	add.w	sl, r4, #25
 8008a16:	68e3      	ldr	r3, [r4, #12]
 8008a18:	6832      	ldr	r2, [r6, #0]
 8008a1a:	1a9b      	subs	r3, r3, r2
 8008a1c:	42ab      	cmp	r3, r5
 8008a1e:	dc26      	bgt.n	8008a6e <_printf_common+0x96>
 8008a20:	f894 2043 	ldrb.w	r2, [r4, #67]	; 0x43
 8008a24:	1e13      	subs	r3, r2, #0
 8008a26:	6822      	ldr	r2, [r4, #0]
 8008a28:	bf18      	it	ne
 8008a2a:	2301      	movne	r3, #1
 8008a2c:	0692      	lsls	r2, r2, #26
 8008a2e:	d42b      	bmi.n	8008a88 <_printf_common+0xb0>
 8008a30:	f104 0243 	add.w	r2, r4, #67	; 0x43
 8008a34:	4649      	mov	r1, r9
 8008a36:	4638      	mov	r0, r7
 8008a38:	47c0      	blx	r8
 8008a3a:	3001      	adds	r0, #1
 8008a3c:	d01e      	beq.n	8008a7c <_printf_common+0xa4>
 8008a3e:	6823      	ldr	r3, [r4, #0]
 8008a40:	6922      	ldr	r2, [r4, #16]
 8008a42:	f003 0306 	and.w	r3, r3, #6
 8008a46:	2b04      	cmp	r3, #4
 8008a48:	bf02      	ittt	eq
 8008a4a:	68e5      	ldreq	r5, [r4, #12]
 8008a4c:	6833      	ldreq	r3, [r6, #0]
 8008a4e:	1aed      	subeq	r5, r5, r3
 8008a50:	68a3      	ldr	r3, [r4, #8]
 8008a52:	bf0c      	ite	eq
 8008a54:	ea25 75e5 	biceq.w	r5, r5, r5, asr #31
 8008a58:	2500      	movne	r5, #0
 8008a5a:	4293      	cmp	r3, r2
 8008a5c:	bfc4      	itt	gt
 8008a5e:	1a9b      	subgt	r3, r3, r2
 8008a60:	18ed      	addgt	r5, r5, r3
 8008a62:	2600      	movs	r6, #0
 8008a64:	341a      	adds	r4, #26
 8008a66:	42b5      	cmp	r5, r6
 8008a68:	d11a      	bne.n	8008aa0 <_printf_common+0xc8>
 8008a6a:	2000      	movs	r0, #0
 8008a6c:	e008      	b.n	8008a80 <_printf_common+0xa8>
 8008a6e:	2301      	movs	r3, #1
 8008a70:	4652      	mov	r2, sl
 8008a72:	4649      	mov	r1, r9
 8008a74:	4638      	mov	r0, r7
 8008a76:	47c0      	blx	r8
 8008a78:	3001      	adds	r0, #1
 8008a7a:	d103      	bne.n	8008a84 <_printf_common+0xac>
 8008a7c:	f04f 30ff 	mov.w	r0, #4294967295
 8008a80:	e8bd 87f0 	ldmia.w	sp!, {r4, r5, r6, r7, r8, r9, sl, pc}
 8008a84:	3501      	adds	r5, #1
 8008a86:	e7c6      	b.n	8008a16 <_printf_common+0x3e>
 8008a88:	18e1      	adds	r1, r4, r3
 8008a8a:	1c5a      	adds	r2, r3, #1
 8008a8c:	2030      	movs	r0, #48	; 0x30
 8008a8e:	f881 0043 	strb.w	r0, [r1, #67]	; 0x43
 8008a92:	4422      	add	r2, r4
 8008a94:	f894 1045 	ldrb.w	r1, [r4, #69]	; 0x45
 8008a98:	f882 1043 	strb.w	r1, [r2, #67]	; 0x43
 8008a9c:	3302      	adds	r3, #2
 8008a9e:	e7c7      	b.n	8008a30 <_printf_common+0x58>
 8008aa0:	2301      	movs	r3, #1
 8008aa2:	4622      	mov	r2, r4
 8008aa4:	4649      	mov	r1, r9
 8008aa6:	4638      	mov	r0, r7
 8008aa8:	47c0      	blx	r8
 8008aaa:	3001      	adds	r0, #1
 8008aac:	d0e6      	beq.n	8008a7c <_printf_common+0xa4>
 8008aae:	3601      	adds	r6, #1
 8008ab0:	e7d9      	b.n	8008a66 <_printf_common+0x8e>
	...

08008ab4 <_printf_i>:
 8008ab4:	e92d 47ff 	stmdb	sp!, {r0, r1, r2, r3, r4, r5, r6, r7, r8, r9, sl, lr}
 8008ab8:	7e0f      	ldrb	r7, [r1, #24]
 8008aba:	9d0c      	ldr	r5, [sp, #48]	; 0x30
 8008abc:	2f78      	cmp	r7, #120	; 0x78
 8008abe:	4691      	mov	r9, r2
 8008ac0:	4680      	mov	r8, r0
 8008ac2:	460c      	mov	r4, r1
 8008ac4:	469a      	mov	sl, r3
 8008ac6:	f101 0243 	add.w	r2, r1, #67	; 0x43
 8008aca:	d807      	bhi.n	8008adc <_printf_i+0x28>
 8008acc:	2f62      	cmp	r7, #98	; 0x62
 8008ace:	d80a      	bhi.n	8008ae6 <_printf_i+0x32>
 8008ad0:	2f00      	cmp	r7, #0
 8008ad2:	f000 80d4 	beq.w	8008c7e <_printf_i+0x1ca>
 8008ad6:	2f58      	cmp	r7, #88	; 0x58
 8008ad8:	f000 80c0 	beq.w	8008c5c <_printf_i+0x1a8>
 8008adc:	f104 0542 	add.w	r5, r4, #66	; 0x42
 8008ae0:	f884 7042 	strb.w	r7, [r4, #66]	; 0x42
 8008ae4:	e03a      	b.n	8008b5c <_printf_i+0xa8>
 8008ae6:	f1a7 0363 	sub.w	r3, r7, #99	; 0x63
 8008aea:	2b15      	cmp	r3, #21
 8008aec:	d8f6      	bhi.n	8008adc <_printf_i+0x28>
 8008aee:	a101      	add	r1, pc, #4	; (adr r1, 8008af4 <_printf_i+0x40>)
 8008af0:	f851 f023 	ldr.w	pc, [r1, r3, lsl #2]
 8008af4:	08008b4d 	.word	0x08008b4d
 8008af8:	08008b61 	.word	0x08008b61
 8008afc:	08008add 	.word	0x08008add
 8008b00:	08008add 	.word	0x08008add
 8008b04:	08008add 	.word	0x08008add
 8008b08:	08008add 	.word	0x08008add
 8008b0c:	08008b61 	.word	0x08008b61
 8008b10:	08008add 	.word	0x08008add
 8008b14:	08008add 	.word	0x08008add
 8008b18:	08008add 	.word	0x08008add
 8008b1c:	08008add 	.word	0x08008add
 8008b20:	08008c65 	.word	0x08008c65
 8008b24:	08008b8d 	.word	0x08008b8d
 8008b28:	08008c1f 	.word	0x08008c1f
 8008b2c:	08008add 	.word	0x08008add
 8008b30:	08008add 	.word	0x08008add
 8008b34:	08008c87 	.word	0x08008c87
 8008b38:	08008add 	.word	0x08008add
 8008b3c:	08008b8d 	.word	0x08008b8d
 8008b40:	08008add 	.word	0x08008add
 8008b44:	08008add 	.word	0x08008add
 8008b48:	08008c27 	.word	0x08008c27
 8008b4c:	682b      	ldr	r3, [r5, #0]
 8008b4e:	1d1a      	adds	r2, r3, #4
 8008b50:	681b      	ldr	r3, [r3, #0]
 8008b52:	602a      	str	r2, [r5, #0]
 8008b54:	f104 0542 	add.w	r5, r4, #66	; 0x42
 8008b58:	f884 3042 	strb.w	r3, [r4, #66]	; 0x42
 8008b5c:	2301      	movs	r3, #1
 8008b5e:	e09f      	b.n	8008ca0 <_printf_i+0x1ec>
 8008b60:	6820      	ldr	r0, [r4, #0]
 8008b62:	682b      	ldr	r3, [r5, #0]
 8008b64:	0607      	lsls	r7, r0, #24
 8008b66:	f103 0104 	add.w	r1, r3, #4
 8008b6a:	6029      	str	r1, [r5, #0]
 8008b6c:	d501      	bpl.n	8008b72 <_printf_i+0xbe>
 8008b6e:	681e      	ldr	r6, [r3, #0]
 8008b70:	e003      	b.n	8008b7a <_printf_i+0xc6>
 8008b72:	0646      	lsls	r6, r0, #25
 8008b74:	d5fb      	bpl.n	8008b6e <_printf_i+0xba>
 8008b76:	f9b3 6000 	ldrsh.w	r6, [r3]
 8008b7a:	2e00      	cmp	r6, #0
 8008b7c:	da03      	bge.n	8008b86 <_printf_i+0xd2>
 8008b7e:	232d      	movs	r3, #45	; 0x2d
 8008b80:	4276      	negs	r6, r6
 8008b82:	f884 3043 	strb.w	r3, [r4, #67]	; 0x43
 8008b86:	485a      	ldr	r0, [pc, #360]	; (8008cf0 <_printf_i+0x23c>)
 8008b88:	230a      	movs	r3, #10
 8008b8a:	e012      	b.n	8008bb2 <_printf_i+0xfe>
 8008b8c:	682b      	ldr	r3, [r5, #0]
 8008b8e:	6820      	ldr	r0, [r4, #0]
 8008b90:	1d19      	adds	r1, r3, #4
 8008b92:	6029      	str	r1, [r5, #0]
 8008b94:	0605      	lsls	r5, r0, #24
 8008b96:	d501      	bpl.n	8008b9c <_printf_i+0xe8>
 8008b98:	681e      	ldr	r6, [r3, #0]
 8008b9a:	e002      	b.n	8008ba2 <_printf_i+0xee>
 8008b9c:	0641      	lsls	r1, r0, #25
 8008b9e:	d5fb      	bpl.n	8008b98 <_printf_i+0xe4>
 8008ba0:	881e      	ldrh	r6, [r3, #0]
 8008ba2:	4853      	ldr	r0, [pc, #332]	; (8008cf0 <_printf_i+0x23c>)
 8008ba4:	2f6f      	cmp	r7, #111	; 0x6f
 8008ba6:	bf0c      	ite	eq
 8008ba8:	2308      	moveq	r3, #8
 8008baa:	230a      	movne	r3, #10
 8008bac:	2100      	movs	r1, #0
 8008bae:	f884 1043 	strb.w	r1, [r4, #67]	; 0x43
 8008bb2:	6865      	ldr	r5, [r4, #4]
 8008bb4:	60a5      	str	r5, [r4, #8]
 8008bb6:	2d00      	cmp	r5, #0
 8008bb8:	bfa2      	ittt	ge
 8008bba:	6821      	ldrge	r1, [r4, #0]
 8008bbc:	f021 0104 	bicge.w	r1, r1, #4
 8008bc0:	6021      	strge	r1, [r4, #0]
 8008bc2:	b90e      	cbnz	r6, 8008bc8 <_printf_i+0x114>
 8008bc4:	2d00      	cmp	r5, #0
 8008bc6:	d04b      	beq.n	8008c60 <_printf_i+0x1ac>
 8008bc8:	4615      	mov	r5, r2
 8008bca:	fbb6 f1f3 	udiv	r1, r6, r3
 8008bce:	fb03 6711 	mls	r7, r3, r1, r6
 8008bd2:	5dc7      	ldrb	r7, [r0, r7]
 8008bd4:	f805 7d01 	strb.w	r7, [r5, #-1]!
 8008bd8:	4637      	mov	r7, r6
 8008bda:	42bb      	cmp	r3, r7
 8008bdc:	460e      	mov	r6, r1
 8008bde:	d9f4      	bls.n	8008bca <_printf_i+0x116>
 8008be0:	2b08      	cmp	r3, #8
 8008be2:	d10b      	bne.n	8008bfc <_printf_i+0x148>
 8008be4:	6823      	ldr	r3, [r4, #0]
 8008be6:	07de      	lsls	r6, r3, #31
 8008be8:	d508      	bpl.n	8008bfc <_printf_i+0x148>
 8008bea:	6923      	ldr	r3, [r4, #16]
 8008bec:	6861      	ldr	r1, [r4, #4]
 8008bee:	4299      	cmp	r1, r3
 8008bf0:	bfde      	ittt	le
 8008bf2:	2330      	movle	r3, #48	; 0x30
 8008bf4:	f805 3c01 	strble.w	r3, [r5, #-1]
 8008bf8:	f105 35ff 	addle.w	r5, r5, #4294967295
 8008bfc:	1b52      	subs	r2, r2, r5
 8008bfe:	6122      	str	r2, [r4, #16]
 8008c00:	f8cd a000 	str.w	sl, [sp]
 8008c04:	464b      	mov	r3, r9
 8008c06:	aa03      	add	r2, sp, #12
 8008c08:	4621      	mov	r1, r4
 8008c0a:	4640      	mov	r0, r8
 8008c0c:	f7ff fee4 	bl	80089d8 <_printf_common>
 8008c10:	3001      	adds	r0, #1
 8008c12:	d14a      	bne.n	8008caa <_printf_i+0x1f6>
 8008c14:	f04f 30ff 	mov.w	r0, #4294967295
 8008c18:	b004      	add	sp, #16
 8008c1a:	e8bd 87f0 	ldmia.w	sp!, {r4, r5, r6, r7, r8, r9, sl, pc}
 8008c1e:	6823      	ldr	r3, [r4, #0]
 8008c20:	f043 0320 	orr.w	r3, r3, #32
 8008c24:	6023      	str	r3, [r4, #0]
 8008c26:	4833      	ldr	r0, [pc, #204]	; (8008cf4 <_printf_i+0x240>)
 8008c28:	2778      	movs	r7, #120	; 0x78
 8008c2a:	f884 7045 	strb.w	r7, [r4, #69]	; 0x45
 8008c2e:	6823      	ldr	r3, [r4, #0]
 8008c30:	6829      	ldr	r1, [r5, #0]
 8008c32:	061f      	lsls	r7, r3, #24
 8008c34:	f851 6b04 	ldr.w	r6, [r1], #4
 8008c38:	d402      	bmi.n	8008c40 <_printf_i+0x18c>
 8008c3a:	065f      	lsls	r7, r3, #25
 8008c3c:	bf48      	it	mi
 8008c3e:	b2b6      	uxthmi	r6, r6
 8008c40:	07df      	lsls	r7, r3, #31
 8008c42:	bf48      	it	mi
 8008c44:	f043 0320 	orrmi.w	r3, r3, #32
 8008c48:	6029      	str	r1, [r5, #0]
 8008c4a:	bf48      	it	mi
 8008c4c:	6023      	strmi	r3, [r4, #0]
 8008c4e:	b91e      	cbnz	r6, 8008c58 <_printf_i+0x1a4>
 8008c50:	6823      	ldr	r3, [r4, #0]
 8008c52:	f023 0320 	bic.w	r3, r3, #32
 8008c56:	6023      	str	r3, [r4, #0]
 8008c58:	2310      	movs	r3, #16
 8008c5a:	e7a7      	b.n	8008bac <_printf_i+0xf8>
 8008c5c:	4824      	ldr	r0, [pc, #144]	; (8008cf0 <_printf_i+0x23c>)
 8008c5e:	e7e4      	b.n	8008c2a <_printf_i+0x176>
 8008c60:	4615      	mov	r5, r2
 8008c62:	e7bd      	b.n	8008be0 <_printf_i+0x12c>
 8008c64:	682b      	ldr	r3, [r5, #0]
 8008c66:	6826      	ldr	r6, [r4, #0]
 8008c68:	6961      	ldr	r1, [r4, #20]
 8008c6a:	1d18      	adds	r0, r3, #4
 8008c6c:	6028      	str	r0, [r5, #0]
 8008c6e:	0635      	lsls	r5, r6, #24
 8008c70:	681b      	ldr	r3, [r3, #0]
 8008c72:	d501      	bpl.n	8008c78 <_printf_i+0x1c4>
 8008c74:	6019      	str	r1, [r3, #0]
 8008c76:	e002      	b.n	8008c7e <_printf_i+0x1ca>
 8008c78:	0670      	lsls	r0, r6, #25
 8008c7a:	d5fb      	bpl.n	8008c74 <_printf_i+0x1c0>
 8008c7c:	8019      	strh	r1, [r3, #0]
 8008c7e:	2300      	movs	r3, #0
 8008c80:	6123      	str	r3, [r4, #16]
 8008c82:	4615      	mov	r5, r2
 8008c84:	e7bc      	b.n	8008c00 <_printf_i+0x14c>
 8008c86:	682b      	ldr	r3, [r5, #0]
 8008c88:	1d1a      	adds	r2, r3, #4
 8008c8a:	602a      	str	r2, [r5, #0]
 8008c8c:	681d      	ldr	r5, [r3, #0]
 8008c8e:	6862      	ldr	r2, [r4, #4]
 8008c90:	2100      	movs	r1, #0
 8008c92:	4628      	mov	r0, r5
 8008c94:	f7f7 fad4 	bl	8000240 <memchr>
 8008c98:	b108      	cbz	r0, 8008c9e <_printf_i+0x1ea>
 8008c9a:	1b40      	subs	r0, r0, r5
 8008c9c:	6060      	str	r0, [r4, #4]
 8008c9e:	6863      	ldr	r3, [r4, #4]
 8008ca0:	6123      	str	r3, [r4, #16]
 8008ca2:	2300      	movs	r3, #0
 8008ca4:	f884 3043 	strb.w	r3, [r4, #67]	; 0x43
 8008ca8:	e7aa      	b.n	8008c00 <_printf_i+0x14c>
 8008caa:	6923      	ldr	r3, [r4, #16]
 8008cac:	462a      	mov	r2, r5
 8008cae:	4649      	mov	r1, r9
 8008cb0:	4640      	mov	r0, r8
 8008cb2:	47d0      	blx	sl
 8008cb4:	3001      	adds	r0, #1
 8008cb6:	d0ad      	beq.n	8008c14 <_printf_i+0x160>
 8008cb8:	6823      	ldr	r3, [r4, #0]
 8008cba:	079b      	lsls	r3, r3, #30
 8008cbc:	d413      	bmi.n	8008ce6 <_printf_i+0x232>
 8008cbe:	68e0      	ldr	r0, [r4, #12]
 8008cc0:	9b03      	ldr	r3, [sp, #12]
 8008cc2:	4298      	cmp	r0, r3
 8008cc4:	bfb8      	it	lt
 8008cc6:	4618      	movlt	r0, r3
 8008cc8:	e7a6      	b.n	8008c18 <_printf_i+0x164>
 8008cca:	2301      	movs	r3, #1
 8008ccc:	4632      	mov	r2, r6
 8008cce:	4649      	mov	r1, r9
 8008cd0:	4640      	mov	r0, r8
 8008cd2:	47d0      	blx	sl
 8008cd4:	3001      	adds	r0, #1
 8008cd6:	d09d      	beq.n	8008c14 <_printf_i+0x160>
 8008cd8:	3501      	adds	r5, #1
 8008cda:	68e3      	ldr	r3, [r4, #12]
 8008cdc:	9903      	ldr	r1, [sp, #12]
 8008cde:	1a5b      	subs	r3, r3, r1
 8008ce0:	42ab      	cmp	r3, r5
 8008ce2:	dcf2      	bgt.n	8008cca <_printf_i+0x216>
 8008ce4:	e7eb      	b.n	8008cbe <_printf_i+0x20a>
 8008ce6:	2500      	movs	r5, #0
 8008ce8:	f104 0619 	add.w	r6, r4, #25
 8008cec:	e7f5      	b.n	8008cda <_printf_i+0x226>
 8008cee:	bf00      	nop
 8008cf0:	0800959d 	.word	0x0800959d
 8008cf4:	080095ae 	.word	0x080095ae

08008cf8 <__sflush_r>:
 8008cf8:	898a      	ldrh	r2, [r1, #12]
 8008cfa:	e92d 41f0 	stmdb	sp!, {r4, r5, r6, r7, r8, lr}
 8008cfe:	4605      	mov	r5, r0
 8008d00:	0710      	lsls	r0, r2, #28
 8008d02:	460c      	mov	r4, r1
 8008d04:	d458      	bmi.n	8008db8 <__sflush_r+0xc0>
 8008d06:	684b      	ldr	r3, [r1, #4]
 8008d08:	2b00      	cmp	r3, #0
 8008d0a:	dc05      	bgt.n	8008d18 <__sflush_r+0x20>
 8008d0c:	6c0b      	ldr	r3, [r1, #64]	; 0x40
 8008d0e:	2b00      	cmp	r3, #0
 8008d10:	dc02      	bgt.n	8008d18 <__sflush_r+0x20>
 8008d12:	2000      	movs	r0, #0
 8008d14:	e8bd 81f0 	ldmia.w	sp!, {r4, r5, r6, r7, r8, pc}
 8008d18:	6ae6      	ldr	r6, [r4, #44]	; 0x2c
 8008d1a:	2e00      	cmp	r6, #0
 8008d1c:	d0f9      	beq.n	8008d12 <__sflush_r+0x1a>
 8008d1e:	2300      	movs	r3, #0
 8008d20:	f412 5280 	ands.w	r2, r2, #4096	; 0x1000
 8008d24:	682f      	ldr	r7, [r5, #0]
 8008d26:	6a21      	ldr	r1, [r4, #32]
 8008d28:	602b      	str	r3, [r5, #0]
 8008d2a:	d032      	beq.n	8008d92 <__sflush_r+0x9a>
 8008d2c:	6d60      	ldr	r0, [r4, #84]	; 0x54
 8008d2e:	89a3      	ldrh	r3, [r4, #12]
 8008d30:	075a      	lsls	r2, r3, #29
 8008d32:	d505      	bpl.n	8008d40 <__sflush_r+0x48>
 8008d34:	6863      	ldr	r3, [r4, #4]
 8008d36:	1ac0      	subs	r0, r0, r3
 8008d38:	6b63      	ldr	r3, [r4, #52]	; 0x34
 8008d3a:	b10b      	cbz	r3, 8008d40 <__sflush_r+0x48>
 8008d3c:	6c23      	ldr	r3, [r4, #64]	; 0x40
 8008d3e:	1ac0      	subs	r0, r0, r3
 8008d40:	2300      	movs	r3, #0
 8008d42:	4602      	mov	r2, r0
 8008d44:	6ae6      	ldr	r6, [r4, #44]	; 0x2c
 8008d46:	6a21      	ldr	r1, [r4, #32]
 8008d48:	4628      	mov	r0, r5
 8008d4a:	47b0      	blx	r6
 8008d4c:	1c43      	adds	r3, r0, #1
 8008d4e:	89a3      	ldrh	r3, [r4, #12]
 8008d50:	d106      	bne.n	8008d60 <__sflush_r+0x68>
 8008d52:	6829      	ldr	r1, [r5, #0]
 8008d54:	291d      	cmp	r1, #29
 8008d56:	d82b      	bhi.n	8008db0 <__sflush_r+0xb8>
 8008d58:	4a29      	ldr	r2, [pc, #164]	; (8008e00 <__sflush_r+0x108>)
 8008d5a:	410a      	asrs	r2, r1
 8008d5c:	07d6      	lsls	r6, r2, #31
 8008d5e:	d427      	bmi.n	8008db0 <__sflush_r+0xb8>
 8008d60:	2200      	movs	r2, #0
 8008d62:	6062      	str	r2, [r4, #4]
 8008d64:	04d9      	lsls	r1, r3, #19
 8008d66:	6922      	ldr	r2, [r4, #16]
 8008d68:	6022      	str	r2, [r4, #0]
 8008d6a:	d504      	bpl.n	8008d76 <__sflush_r+0x7e>
 8008d6c:	1c42      	adds	r2, r0, #1
 8008d6e:	d101      	bne.n	8008d74 <__sflush_r+0x7c>
 8008d70:	682b      	ldr	r3, [r5, #0]
 8008d72:	b903      	cbnz	r3, 8008d76 <__sflush_r+0x7e>
 8008d74:	6560      	str	r0, [r4, #84]	; 0x54
 8008d76:	6b61      	ldr	r1, [r4, #52]	; 0x34
 8008d78:	602f      	str	r7, [r5, #0]
 8008d7a:	2900      	cmp	r1, #0
 8008d7c:	d0c9      	beq.n	8008d12 <__sflush_r+0x1a>
 8008d7e:	f104 0344 	add.w	r3, r4, #68	; 0x44
 8008d82:	4299      	cmp	r1, r3
 8008d84:	d002      	beq.n	8008d8c <__sflush_r+0x94>
 8008d86:	4628      	mov	r0, r5
 8008d88:	f7ff fbea 	bl	8008560 <_free_r>
 8008d8c:	2000      	movs	r0, #0
 8008d8e:	6360      	str	r0, [r4, #52]	; 0x34
 8008d90:	e7c0      	b.n	8008d14 <__sflush_r+0x1c>
 8008d92:	2301      	movs	r3, #1
 8008d94:	4628      	mov	r0, r5
 8008d96:	47b0      	blx	r6
 8008d98:	1c41      	adds	r1, r0, #1
 8008d9a:	d1c8      	bne.n	8008d2e <__sflush_r+0x36>
 8008d9c:	682b      	ldr	r3, [r5, #0]
 8008d9e:	2b00      	cmp	r3, #0
 8008da0:	d0c5      	beq.n	8008d2e <__sflush_r+0x36>
 8008da2:	2b1d      	cmp	r3, #29
 8008da4:	d001      	beq.n	8008daa <__sflush_r+0xb2>
 8008da6:	2b16      	cmp	r3, #22
 8008da8:	d101      	bne.n	8008dae <__sflush_r+0xb6>
 8008daa:	602f      	str	r7, [r5, #0]
 8008dac:	e7b1      	b.n	8008d12 <__sflush_r+0x1a>
 8008dae:	89a3      	ldrh	r3, [r4, #12]
 8008db0:	f043 0340 	orr.w	r3, r3, #64	; 0x40
 8008db4:	81a3      	strh	r3, [r4, #12]
 8008db6:	e7ad      	b.n	8008d14 <__sflush_r+0x1c>
 8008db8:	690f      	ldr	r7, [r1, #16]
 8008dba:	2f00      	cmp	r7, #0
 8008dbc:	d0a9      	beq.n	8008d12 <__sflush_r+0x1a>
 8008dbe:	0793      	lsls	r3, r2, #30
 8008dc0:	680e      	ldr	r6, [r1, #0]
 8008dc2:	bf08      	it	eq
 8008dc4:	694b      	ldreq	r3, [r1, #20]
 8008dc6:	600f      	str	r7, [r1, #0]
 8008dc8:	bf18      	it	ne
 8008dca:	2300      	movne	r3, #0
 8008dcc:	eba6 0807 	sub.w	r8, r6, r7
 8008dd0:	608b      	str	r3, [r1, #8]
 8008dd2:	f1b8 0f00 	cmp.w	r8, #0
 8008dd6:	dd9c      	ble.n	8008d12 <__sflush_r+0x1a>
 8008dd8:	6a21      	ldr	r1, [r4, #32]
 8008dda:	6aa6      	ldr	r6, [r4, #40]	; 0x28
 8008ddc:	4643      	mov	r3, r8
 8008dde:	463a      	mov	r2, r7
 8008de0:	4628      	mov	r0, r5
 8008de2:	47b0      	blx	r6
 8008de4:	2800      	cmp	r0, #0
 8008de6:	dc06      	bgt.n	8008df6 <__sflush_r+0xfe>
 8008de8:	89a3      	ldrh	r3, [r4, #12]
 8008dea:	f043 0340 	orr.w	r3, r3, #64	; 0x40
 8008dee:	81a3      	strh	r3, [r4, #12]
 8008df0:	f04f 30ff 	mov.w	r0, #4294967295
 8008df4:	e78e      	b.n	8008d14 <__sflush_r+0x1c>
 8008df6:	4407      	add	r7, r0
 8008df8:	eba8 0800 	sub.w	r8, r8, r0
 8008dfc:	e7e9      	b.n	8008dd2 <__sflush_r+0xda>
 8008dfe:	bf00      	nop
 8008e00:	dfbffffe 	.word	0xdfbffffe

08008e04 <_fflush_r>:
 8008e04:	b538      	push	{r3, r4, r5, lr}
 8008e06:	690b      	ldr	r3, [r1, #16]
 8008e08:	4605      	mov	r5, r0
 8008e0a:	460c      	mov	r4, r1
 8008e0c:	b913      	cbnz	r3, 8008e14 <_fflush_r+0x10>
 8008e0e:	2500      	movs	r5, #0
 8008e10:	4628      	mov	r0, r5
 8008e12:	bd38      	pop	{r3, r4, r5, pc}
 8008e14:	b118      	cbz	r0, 8008e1e <_fflush_r+0x1a>
 8008e16:	6a03      	ldr	r3, [r0, #32]
 8008e18:	b90b      	cbnz	r3, 8008e1e <_fflush_r+0x1a>
 8008e1a:	f7ff f945 	bl	80080a8 <__sinit>
 8008e1e:	f9b4 300c 	ldrsh.w	r3, [r4, #12]
 8008e22:	2b00      	cmp	r3, #0
 8008e24:	d0f3      	beq.n	8008e0e <_fflush_r+0xa>
 8008e26:	6e62      	ldr	r2, [r4, #100]	; 0x64
 8008e28:	07d0      	lsls	r0, r2, #31
 8008e2a:	d404      	bmi.n	8008e36 <_fflush_r+0x32>
 8008e2c:	0599      	lsls	r1, r3, #22
 8008e2e:	d402      	bmi.n	8008e36 <_fflush_r+0x32>
 8008e30:	6da0      	ldr	r0, [r4, #88]	; 0x58
 8008e32:	f7ff fb84 	bl	800853e <__retarget_lock_acquire_recursive>
 8008e36:	4628      	mov	r0, r5
 8008e38:	4621      	mov	r1, r4
 8008e3a:	f7ff ff5d 	bl	8008cf8 <__sflush_r>
 8008e3e:	6e63      	ldr	r3, [r4, #100]	; 0x64
 8008e40:	07da      	lsls	r2, r3, #31
 8008e42:	4605      	mov	r5, r0
 8008e44:	d4e4      	bmi.n	8008e10 <_fflush_r+0xc>
 8008e46:	89a3      	ldrh	r3, [r4, #12]
 8008e48:	059b      	lsls	r3, r3, #22
 8008e4a:	d4e1      	bmi.n	8008e10 <_fflush_r+0xc>
 8008e4c:	6da0      	ldr	r0, [r4, #88]	; 0x58
 8008e4e:	f7ff fb77 	bl	8008540 <__retarget_lock_release_recursive>
 8008e52:	e7dd      	b.n	8008e10 <_fflush_r+0xc>

08008e54 <__swhatbuf_r>:
 8008e54:	b570      	push	{r4, r5, r6, lr}
 8008e56:	460c      	mov	r4, r1
 8008e58:	f9b1 100e 	ldrsh.w	r1, [r1, #14]
 8008e5c:	2900      	cmp	r1, #0
 8008e5e:	b096      	sub	sp, #88	; 0x58
 8008e60:	4615      	mov	r5, r2
 8008e62:	461e      	mov	r6, r3
 8008e64:	da0d      	bge.n	8008e82 <__swhatbuf_r+0x2e>
 8008e66:	89a3      	ldrh	r3, [r4, #12]
 8008e68:	f013 0f80 	tst.w	r3, #128	; 0x80
 8008e6c:	f04f 0100 	mov.w	r1, #0
 8008e70:	bf0c      	ite	eq
 8008e72:	f44f 6380 	moveq.w	r3, #1024	; 0x400
 8008e76:	2340      	movne	r3, #64	; 0x40
 8008e78:	2000      	movs	r0, #0
 8008e7a:	6031      	str	r1, [r6, #0]
 8008e7c:	602b      	str	r3, [r5, #0]
 8008e7e:	b016      	add	sp, #88	; 0x58
 8008e80:	bd70      	pop	{r4, r5, r6, pc}
 8008e82:	466a      	mov	r2, sp
 8008e84:	f000 f848 	bl	8008f18 <_fstat_r>
 8008e88:	2800      	cmp	r0, #0
 8008e8a:	dbec      	blt.n	8008e66 <__swhatbuf_r+0x12>
 8008e8c:	9901      	ldr	r1, [sp, #4]
 8008e8e:	f401 4170 	and.w	r1, r1, #61440	; 0xf000
 8008e92:	f5a1 5300 	sub.w	r3, r1, #8192	; 0x2000
 8008e96:	4259      	negs	r1, r3
 8008e98:	4159      	adcs	r1, r3
 8008e9a:	f44f 6380 	mov.w	r3, #1024	; 0x400
 8008e9e:	e7eb      	b.n	8008e78 <__swhatbuf_r+0x24>

08008ea0 <__smakebuf_r>:
 8008ea0:	898b      	ldrh	r3, [r1, #12]
 8008ea2:	b573      	push	{r0, r1, r4, r5, r6, lr}
 8008ea4:	079d      	lsls	r5, r3, #30
 8008ea6:	4606      	mov	r6, r0
 8008ea8:	460c      	mov	r4, r1
 8008eaa:	d507      	bpl.n	8008ebc <__smakebuf_r+0x1c>
 8008eac:	f104 0347 	add.w	r3, r4, #71	; 0x47
 8008eb0:	6023      	str	r3, [r4, #0]
 8008eb2:	6123      	str	r3, [r4, #16]
 8008eb4:	2301      	movs	r3, #1
 8008eb6:	6163      	str	r3, [r4, #20]
 8008eb8:	b002      	add	sp, #8
 8008eba:	bd70      	pop	{r4, r5, r6, pc}
 8008ebc:	ab01      	add	r3, sp, #4
 8008ebe:	466a      	mov	r2, sp
 8008ec0:	f7ff ffc8 	bl	8008e54 <__swhatbuf_r>
 8008ec4:	9900      	ldr	r1, [sp, #0]
 8008ec6:	4605      	mov	r5, r0
 8008ec8:	4630      	mov	r0, r6
 8008eca:	f7ff fbb5 	bl	8008638 <_malloc_r>
 8008ece:	b948      	cbnz	r0, 8008ee4 <__smakebuf_r+0x44>
 8008ed0:	f9b4 300c 	ldrsh.w	r3, [r4, #12]
 8008ed4:	059a      	lsls	r2, r3, #22
 8008ed6:	d4ef      	bmi.n	8008eb8 <__smakebuf_r+0x18>
 8008ed8:	f023 0303 	bic.w	r3, r3, #3
 8008edc:	f043 0302 	orr.w	r3, r3, #2
 8008ee0:	81a3      	strh	r3, [r4, #12]
 8008ee2:	e7e3      	b.n	8008eac <__smakebuf_r+0xc>
 8008ee4:	89a3      	ldrh	r3, [r4, #12]
 8008ee6:	6020      	str	r0, [r4, #0]
 8008ee8:	f043 0380 	orr.w	r3, r3, #128	; 0x80
 8008eec:	81a3      	strh	r3, [r4, #12]
 8008eee:	9b00      	ldr	r3, [sp, #0]
 8008ef0:	6163      	str	r3, [r4, #20]
 8008ef2:	9b01      	ldr	r3, [sp, #4]
 8008ef4:	6120      	str	r0, [r4, #16]
 8008ef6:	b15b      	cbz	r3, 8008f10 <__smakebuf_r+0x70>
 8008ef8:	f9b4 100e 	ldrsh.w	r1, [r4, #14]
 8008efc:	4630      	mov	r0, r6
 8008efe:	f000 f81d 	bl	8008f3c <_isatty_r>
 8008f02:	b128      	cbz	r0, 8008f10 <__smakebuf_r+0x70>
 8008f04:	89a3      	ldrh	r3, [r4, #12]
 8008f06:	f023 0303 	bic.w	r3, r3, #3
 8008f0a:	f043 0301 	orr.w	r3, r3, #1
 8008f0e:	81a3      	strh	r3, [r4, #12]
 8008f10:	89a3      	ldrh	r3, [r4, #12]
 8008f12:	431d      	orrs	r5, r3
 8008f14:	81a5      	strh	r5, [r4, #12]
 8008f16:	e7cf      	b.n	8008eb8 <__smakebuf_r+0x18>

08008f18 <_fstat_r>:
 8008f18:	b538      	push	{r3, r4, r5, lr}
 8008f1a:	4d07      	ldr	r5, [pc, #28]	; (8008f38 <_fstat_r+0x20>)
 8008f1c:	2300      	movs	r3, #0
 8008f1e:	4604      	mov	r4, r0
 8008f20:	4608      	mov	r0, r1
 8008f22:	4611      	mov	r1, r2
 8008f24:	602b      	str	r3, [r5, #0]
 8008f26:	f7f8 fd74 	bl	8001a12 <_fstat>
 8008f2a:	1c43      	adds	r3, r0, #1
 8008f2c:	d102      	bne.n	8008f34 <_fstat_r+0x1c>
 8008f2e:	682b      	ldr	r3, [r5, #0]
 8008f30:	b103      	cbz	r3, 8008f34 <_fstat_r+0x1c>
 8008f32:	6023      	str	r3, [r4, #0]
 8008f34:	bd38      	pop	{r3, r4, r5, pc}
 8008f36:	bf00      	nop
 8008f38:	20006324 	.word	0x20006324

08008f3c <_isatty_r>:
 8008f3c:	b538      	push	{r3, r4, r5, lr}
 8008f3e:	4d06      	ldr	r5, [pc, #24]	; (8008f58 <_isatty_r+0x1c>)
 8008f40:	2300      	movs	r3, #0
 8008f42:	4604      	mov	r4, r0
 8008f44:	4608      	mov	r0, r1
 8008f46:	602b      	str	r3, [r5, #0]
 8008f48:	f7f8 fd68 	bl	8001a1c <_isatty>
 8008f4c:	1c43      	adds	r3, r0, #1
 8008f4e:	d102      	bne.n	8008f56 <_isatty_r+0x1a>
 8008f50:	682b      	ldr	r3, [r5, #0]
 8008f52:	b103      	cbz	r3, 8008f56 <_isatty_r+0x1a>
 8008f54:	6023      	str	r3, [r4, #0]
 8008f56:	bd38      	pop	{r3, r4, r5, pc}
 8008f58:	20006324 	.word	0x20006324

08008f5c <_sbrk_r>:
 8008f5c:	b538      	push	{r3, r4, r5, lr}
 8008f5e:	4d06      	ldr	r5, [pc, #24]	; (8008f78 <_sbrk_r+0x1c>)
 8008f60:	2300      	movs	r3, #0
 8008f62:	4604      	mov	r4, r0
 8008f64:	4608      	mov	r0, r1
 8008f66:	602b      	str	r3, [r5, #0]
 8008f68:	f7f8 fd5c 	bl	8001a24 <_sbrk>
 8008f6c:	1c43      	adds	r3, r0, #1
 8008f6e:	d102      	bne.n	8008f76 <_sbrk_r+0x1a>
 8008f70:	682b      	ldr	r3, [r5, #0]
 8008f72:	b103      	cbz	r3, 8008f76 <_sbrk_r+0x1a>
 8008f74:	6023      	str	r3, [r4, #0]
 8008f76:	bd38      	pop	{r3, r4, r5, pc}
 8008f78:	20006324 	.word	0x20006324

08008f7c <_init>:
 8008f7c:	b5f8      	push	{r3, r4, r5, r6, r7, lr}
 8008f7e:	bf00      	nop
 8008f80:	bcf8      	pop	{r3, r4, r5, r6, r7}
 8008f82:	bc08      	pop	{r3}
 8008f84:	469e      	mov	lr, r3
 8008f86:	4770      	bx	lr

08008f88 <_fini>:
 8008f88:	b5f8      	push	{r3, r4, r5, r6, r7, lr}
 8008f8a:	bf00      	nop
 8008f8c:	bcf8      	pop	{r3, r4, r5, r6, r7}
 8008f8e:	bc08      	pop	{r3}
 8008f90:	469e      	mov	lr, r3
 8008f92:	4770      	bx	lr
